
interp.elf:     file format elf32-avr


Disassembly of section .text:

00000000 <__vectors>:
       0:	0c 94 41 00 	jmp	0x82	; 0x82 <reset_handler>
       4:	0c 94 40 00 	jmp	0x80	; 0x80 <default_isr>
       8:	0c 94 40 00 	jmp	0x80	; 0x80 <default_isr>
       c:	0c 94 40 00 	jmp	0x80	; 0x80 <default_isr>
      10:	0c 94 40 00 	jmp	0x80	; 0x80 <default_isr>
      14:	0c 94 40 00 	jmp	0x80	; 0x80 <default_isr>
      18:	0c 94 40 00 	jmp	0x80	; 0x80 <default_isr>
      1c:	0c 94 40 00 	jmp	0x80	; 0x80 <default_isr>
      20:	0c 94 40 00 	jmp	0x80	; 0x80 <default_isr>
      24:	0c 94 40 00 	jmp	0x80	; 0x80 <default_isr>
      28:	0c 94 40 00 	jmp	0x80	; 0x80 <default_isr>
      2c:	0c 94 40 00 	jmp	0x80	; 0x80 <default_isr>
      30:	0c 94 40 00 	jmp	0x80	; 0x80 <default_isr>
      34:	0c 94 40 00 	jmp	0x80	; 0x80 <default_isr>
      38:	0c 94 40 00 	jmp	0x80	; 0x80 <default_isr>
      3c:	0c 94 40 00 	jmp	0x80	; 0x80 <default_isr>
      40:	0c 94 40 00 	jmp	0x80	; 0x80 <default_isr>
      44:	0c 94 40 00 	jmp	0x80	; 0x80 <default_isr>
      48:	0c 94 40 00 	jmp	0x80	; 0x80 <default_isr>
      4c:	0c 94 40 00 	jmp	0x80	; 0x80 <default_isr>
      50:	0c 94 40 00 	jmp	0x80	; 0x80 <default_isr>
      54:	0c 94 40 00 	jmp	0x80	; 0x80 <default_isr>
      58:	0c 94 40 00 	jmp	0x80	; 0x80 <default_isr>
      5c:	0c 94 40 00 	jmp	0x80	; 0x80 <default_isr>
      60:	0c 94 40 00 	jmp	0x80	; 0x80 <default_isr>
      64:	0c 94 40 00 	jmp	0x80	; 0x80 <default_isr>
      68:	0c 94 40 00 	jmp	0x80	; 0x80 <default_isr>
      6c:	0c 94 40 00 	jmp	0x80	; 0x80 <default_isr>
      70:	0c 94 40 00 	jmp	0x80	; 0x80 <default_isr>
      74:	0c 94 40 00 	jmp	0x80	; 0x80 <default_isr>
      78:	0c 94 40 00 	jmp	0x80	; 0x80 <default_isr>
      7c:	0c 94 40 00 	jmp	0x80	; 0x80 <default_isr>

00000080 <default_isr>:
      80:	ff cf       	rjmp	.-2      	; 0x80 <default_isr>

00000082 <reset_handler>:
      82:	22 24       	eor	r2, r2
      84:	a0 e2       	ldi	r26, 0x20	; 32
      86:	7a 2e       	mov	r7, r26
      88:	c0 e0       	ldi	r28, 0x00	; 0
      8a:	da e0       	ldi	r29, 0x0A	; 10
      8c:	55 24       	eor	r5, r5
      8e:	2a bc       	out	0x2a, r2	; 42
      90:	2b bc       	out	0x2b, r2	; 43
      92:	78 94       	sei

00000094 <reset_loop>:
      94:	ff cf       	rjmp	.-2      	; 0x94 <reset_loop>
	...

00000200 <abvm_interp>:
     200:	c8 95       	lpm
     202:	00 27       	eor	r16, r16
     204:	11 27       	eor	r17, r17
     206:	01 96       	adiw	r24, 0x01	; 1
     208:	f8 94       	cli
     20a:	2e bc       	out	0x2e, r2	; 46
     20c:	6e b4       	in	r6, 0x2e	; 46
     20e:	78 94       	sei
     210:	67 9c       	mul	r6, r7
     212:	f0 01       	movw	r30, r0
     214:	f3 95       	inc	r31
     216:	09 94       	ijmp
	...

00000240 <I_01__MOV_c0_c1>:
     240:	00 c0       	rjmp	.+0      	; 0x242 <I_01__MOV_c0_c1+0x2>
     242:	00 c0       	rjmp	.+0      	; 0x244 <I_01__MOV_c0_c1+0x4>
     244:	89 01       	movw	r16, r18
     246:	01 96       	adiw	r24, 0x01	; 1
     248:	f8 94       	cli
     24a:	2e bc       	out	0x2e, r2	; 46
     24c:	6e b4       	in	r6, 0x2e	; 46
     24e:	78 94       	sei
     250:	67 9c       	mul	r6, r7
     252:	f0 01       	movw	r30, r0
     254:	f3 95       	inc	r31
     256:	09 94       	ijmp
	...

00000280 <I_02__MOV_c0_c2>:
     280:	00 c0       	rjmp	.+0      	; 0x282 <I_02__MOV_c0_c2+0x2>
     282:	00 c0       	rjmp	.+0      	; 0x284 <I_02__MOV_c0_c2+0x4>
     284:	8a 01       	movw	r16, r20
     286:	01 96       	adiw	r24, 0x01	; 1
     288:	f8 94       	cli
     28a:	2e bc       	out	0x2e, r2	; 46
     28c:	6e b4       	in	r6, 0x2e	; 46
     28e:	78 94       	sei
     290:	67 9c       	mul	r6, r7
     292:	f0 01       	movw	r30, r0
     294:	f3 95       	inc	r31
     296:	09 94       	ijmp
	...

000002c0 <I_03__MOV_c0_c3>:
     2c0:	00 c0       	rjmp	.+0      	; 0x2c2 <I_03__MOV_c0_c3+0x2>
     2c2:	00 c0       	rjmp	.+0      	; 0x2c4 <I_03__MOV_c0_c3+0x4>
     2c4:	8b 01       	movw	r16, r22
     2c6:	01 96       	adiw	r24, 0x01	; 1
     2c8:	f8 94       	cli
     2ca:	2e bc       	out	0x2e, r2	; 46
     2cc:	6e b4       	in	r6, 0x2e	; 46
     2ce:	78 94       	sei
     2d0:	67 9c       	mul	r6, r7
     2d2:	f0 01       	movw	r30, r0
     2d4:	f3 95       	inc	r31
     2d6:	09 94       	ijmp
	...

00000300 <I_04__MOV_c1_c0>:
     300:	00 c0       	rjmp	.+0      	; 0x302 <I_04__MOV_c1_c0+0x2>
     302:	00 c0       	rjmp	.+0      	; 0x304 <I_04__MOV_c1_c0+0x4>
     304:	98 01       	movw	r18, r16
     306:	01 96       	adiw	r24, 0x01	; 1
     308:	f8 94       	cli
     30a:	2e bc       	out	0x2e, r2	; 46
     30c:	6e b4       	in	r6, 0x2e	; 46
     30e:	78 94       	sei
     310:	67 9c       	mul	r6, r7
     312:	f0 01       	movw	r30, r0
     314:	f3 95       	inc	r31
     316:	09 94       	ijmp
	...

00000340 <I_05__CLR_c1>:
     340:	c8 95       	lpm
     342:	22 27       	eor	r18, r18
     344:	33 27       	eor	r19, r19
     346:	01 96       	adiw	r24, 0x01	; 1
     348:	f8 94       	cli
     34a:	2e bc       	out	0x2e, r2	; 46
     34c:	6e b4       	in	r6, 0x2e	; 46
     34e:	78 94       	sei
     350:	67 9c       	mul	r6, r7
     352:	f0 01       	movw	r30, r0
     354:	f3 95       	inc	r31
     356:	09 94       	ijmp
	...

00000380 <I_06__MOV_c1_c2>:
     380:	00 c0       	rjmp	.+0      	; 0x382 <I_06__MOV_c1_c2+0x2>
     382:	00 c0       	rjmp	.+0      	; 0x384 <I_06__MOV_c1_c2+0x4>
     384:	9a 01       	movw	r18, r20
     386:	01 96       	adiw	r24, 0x01	; 1
     388:	f8 94       	cli
     38a:	2e bc       	out	0x2e, r2	; 46
     38c:	6e b4       	in	r6, 0x2e	; 46
     38e:	78 94       	sei
     390:	67 9c       	mul	r6, r7
     392:	f0 01       	movw	r30, r0
     394:	f3 95       	inc	r31
     396:	09 94       	ijmp
	...

000003c0 <I_07__MOV_c1_c3>:
     3c0:	00 c0       	rjmp	.+0      	; 0x3c2 <I_07__MOV_c1_c3+0x2>
     3c2:	00 c0       	rjmp	.+0      	; 0x3c4 <I_07__MOV_c1_c3+0x4>
     3c4:	9b 01       	movw	r18, r22
     3c6:	01 96       	adiw	r24, 0x01	; 1
     3c8:	f8 94       	cli
     3ca:	2e bc       	out	0x2e, r2	; 46
     3cc:	6e b4       	in	r6, 0x2e	; 46
     3ce:	78 94       	sei
     3d0:	67 9c       	mul	r6, r7
     3d2:	f0 01       	movw	r30, r0
     3d4:	f3 95       	inc	r31
     3d6:	09 94       	ijmp
	...

00000400 <I_08__MOV_c2_c0>:
     400:	00 c0       	rjmp	.+0      	; 0x402 <I_08__MOV_c2_c0+0x2>
     402:	00 c0       	rjmp	.+0      	; 0x404 <I_08__MOV_c2_c0+0x4>
     404:	a8 01       	movw	r20, r16
     406:	01 96       	adiw	r24, 0x01	; 1
     408:	f8 94       	cli
     40a:	2e bc       	out	0x2e, r2	; 46
     40c:	6e b4       	in	r6, 0x2e	; 46
     40e:	78 94       	sei
     410:	67 9c       	mul	r6, r7
     412:	f0 01       	movw	r30, r0
     414:	f3 95       	inc	r31
     416:	09 94       	ijmp
	...

00000440 <I_09__MOV_c2_c1>:
     440:	00 c0       	rjmp	.+0      	; 0x442 <I_09__MOV_c2_c1+0x2>
     442:	00 c0       	rjmp	.+0      	; 0x444 <I_09__MOV_c2_c1+0x4>
     444:	a9 01       	movw	r20, r18
     446:	01 96       	adiw	r24, 0x01	; 1
     448:	f8 94       	cli
     44a:	2e bc       	out	0x2e, r2	; 46
     44c:	6e b4       	in	r6, 0x2e	; 46
     44e:	78 94       	sei
     450:	67 9c       	mul	r6, r7
     452:	f0 01       	movw	r30, r0
     454:	f3 95       	inc	r31
     456:	09 94       	ijmp
	...

00000480 <I_0A__CLR_c2>:
     480:	c8 95       	lpm
     482:	44 27       	eor	r20, r20
     484:	55 27       	eor	r21, r21
     486:	01 96       	adiw	r24, 0x01	; 1
     488:	f8 94       	cli
     48a:	2e bc       	out	0x2e, r2	; 46
     48c:	6e b4       	in	r6, 0x2e	; 46
     48e:	78 94       	sei
     490:	67 9c       	mul	r6, r7
     492:	f0 01       	movw	r30, r0
     494:	f3 95       	inc	r31
     496:	09 94       	ijmp
	...

000004c0 <I_0B__MOV_c2_c3>:
     4c0:	00 c0       	rjmp	.+0      	; 0x4c2 <I_0B__MOV_c2_c3+0x2>
     4c2:	00 c0       	rjmp	.+0      	; 0x4c4 <I_0B__MOV_c2_c3+0x4>
     4c4:	ab 01       	movw	r20, r22
     4c6:	01 96       	adiw	r24, 0x01	; 1
     4c8:	f8 94       	cli
     4ca:	2e bc       	out	0x2e, r2	; 46
     4cc:	6e b4       	in	r6, 0x2e	; 46
     4ce:	78 94       	sei
     4d0:	67 9c       	mul	r6, r7
     4d2:	f0 01       	movw	r30, r0
     4d4:	f3 95       	inc	r31
     4d6:	09 94       	ijmp
	...

00000500 <I_0C__MOV_c3_c0>:
     500:	00 c0       	rjmp	.+0      	; 0x502 <I_0C__MOV_c3_c0+0x2>
     502:	00 c0       	rjmp	.+0      	; 0x504 <I_0C__MOV_c3_c0+0x4>
     504:	b8 01       	movw	r22, r16
     506:	01 96       	adiw	r24, 0x01	; 1
     508:	f8 94       	cli
     50a:	2e bc       	out	0x2e, r2	; 46
     50c:	6e b4       	in	r6, 0x2e	; 46
     50e:	78 94       	sei
     510:	67 9c       	mul	r6, r7
     512:	f0 01       	movw	r30, r0
     514:	f3 95       	inc	r31
     516:	09 94       	ijmp
	...

00000540 <I_0D__MOV_c3_c1>:
     540:	00 c0       	rjmp	.+0      	; 0x542 <I_0D__MOV_c3_c1+0x2>
     542:	00 c0       	rjmp	.+0      	; 0x544 <I_0D__MOV_c3_c1+0x4>
     544:	b9 01       	movw	r22, r18
     546:	01 96       	adiw	r24, 0x01	; 1
     548:	f8 94       	cli
     54a:	2e bc       	out	0x2e, r2	; 46
     54c:	6e b4       	in	r6, 0x2e	; 46
     54e:	78 94       	sei
     550:	67 9c       	mul	r6, r7
     552:	f0 01       	movw	r30, r0
     554:	f3 95       	inc	r31
     556:	09 94       	ijmp
	...

00000580 <I_0E__MOV_c3_c2>:
     580:	00 c0       	rjmp	.+0      	; 0x582 <I_0E__MOV_c3_c2+0x2>
     582:	00 c0       	rjmp	.+0      	; 0x584 <I_0E__MOV_c3_c2+0x4>
     584:	ba 01       	movw	r22, r20
     586:	01 96       	adiw	r24, 0x01	; 1
     588:	f8 94       	cli
     58a:	2e bc       	out	0x2e, r2	; 46
     58c:	6e b4       	in	r6, 0x2e	; 46
     58e:	78 94       	sei
     590:	67 9c       	mul	r6, r7
     592:	f0 01       	movw	r30, r0
     594:	f3 95       	inc	r31
     596:	09 94       	ijmp
	...

000005c0 <I_0F__CLR_c3>:
     5c0:	c8 95       	lpm
     5c2:	66 27       	eor	r22, r22
     5c4:	77 27       	eor	r23, r23
     5c6:	01 96       	adiw	r24, 0x01	; 1
     5c8:	f8 94       	cli
     5ca:	2e bc       	out	0x2e, r2	; 46
     5cc:	6e b4       	in	r6, 0x2e	; 46
     5ce:	78 94       	sei
     5d0:	67 9c       	mul	r6, r7
     5d2:	f0 01       	movw	r30, r0
     5d4:	f3 95       	inc	r31
     5d6:	09 94       	ijmp
	...

00000600 <I_10__LD8_c0_c0>:
     600:	00 00       	nop
     602:	d8 01       	movw	r26, r16
     604:	0c 91       	ld	r16, X
     606:	11 27       	eor	r17, r17
     608:	01 96       	adiw	r24, 0x01	; 1
     60a:	f8 94       	cli
     60c:	2e bc       	out	0x2e, r2	; 46
     60e:	6e b4       	in	r6, 0x2e	; 46
     610:	78 94       	sei
     612:	67 9c       	mul	r6, r7
     614:	f0 01       	movw	r30, r0
     616:	f3 95       	inc	r31
     618:	09 94       	ijmp
	...

00000640 <I_11__LD8_c0_c1>:
     640:	00 00       	nop
     642:	d9 01       	movw	r26, r18
     644:	0c 91       	ld	r16, X
     646:	11 27       	eor	r17, r17
     648:	01 96       	adiw	r24, 0x01	; 1
     64a:	f8 94       	cli
     64c:	2e bc       	out	0x2e, r2	; 46
     64e:	6e b4       	in	r6, 0x2e	; 46
     650:	78 94       	sei
     652:	67 9c       	mul	r6, r7
     654:	f0 01       	movw	r30, r0
     656:	f3 95       	inc	r31
     658:	09 94       	ijmp
	...

00000680 <I_12__LD8_c0_c2>:
     680:	00 00       	nop
     682:	da 01       	movw	r26, r20
     684:	0c 91       	ld	r16, X
     686:	11 27       	eor	r17, r17
     688:	01 96       	adiw	r24, 0x01	; 1
     68a:	f8 94       	cli
     68c:	2e bc       	out	0x2e, r2	; 46
     68e:	6e b4       	in	r6, 0x2e	; 46
     690:	78 94       	sei
     692:	67 9c       	mul	r6, r7
     694:	f0 01       	movw	r30, r0
     696:	f3 95       	inc	r31
     698:	09 94       	ijmp
	...

000006c0 <I_13__LD8_c0_c3>:
     6c0:	00 00       	nop
     6c2:	db 01       	movw	r26, r22
     6c4:	0c 91       	ld	r16, X
     6c6:	11 27       	eor	r17, r17
     6c8:	01 96       	adiw	r24, 0x01	; 1
     6ca:	f8 94       	cli
     6cc:	2e bc       	out	0x2e, r2	; 46
     6ce:	6e b4       	in	r6, 0x2e	; 46
     6d0:	78 94       	sei
     6d2:	67 9c       	mul	r6, r7
     6d4:	f0 01       	movw	r30, r0
     6d6:	f3 95       	inc	r31
     6d8:	09 94       	ijmp
	...

00000700 <I_14__LD8_c1_c0>:
     700:	00 00       	nop
     702:	d8 01       	movw	r26, r16
     704:	2c 91       	ld	r18, X
     706:	33 27       	eor	r19, r19
     708:	01 96       	adiw	r24, 0x01	; 1
     70a:	f8 94       	cli
     70c:	2e bc       	out	0x2e, r2	; 46
     70e:	6e b4       	in	r6, 0x2e	; 46
     710:	78 94       	sei
     712:	67 9c       	mul	r6, r7
     714:	f0 01       	movw	r30, r0
     716:	f3 95       	inc	r31
     718:	09 94       	ijmp
	...

00000740 <I_15__LD8_c1_c1>:
     740:	00 00       	nop
     742:	d9 01       	movw	r26, r18
     744:	2c 91       	ld	r18, X
     746:	33 27       	eor	r19, r19
     748:	01 96       	adiw	r24, 0x01	; 1
     74a:	f8 94       	cli
     74c:	2e bc       	out	0x2e, r2	; 46
     74e:	6e b4       	in	r6, 0x2e	; 46
     750:	78 94       	sei
     752:	67 9c       	mul	r6, r7
     754:	f0 01       	movw	r30, r0
     756:	f3 95       	inc	r31
     758:	09 94       	ijmp
	...

00000780 <I_16__LD8_c1_c2>:
     780:	00 00       	nop
     782:	da 01       	movw	r26, r20
     784:	2c 91       	ld	r18, X
     786:	33 27       	eor	r19, r19
     788:	01 96       	adiw	r24, 0x01	; 1
     78a:	f8 94       	cli
     78c:	2e bc       	out	0x2e, r2	; 46
     78e:	6e b4       	in	r6, 0x2e	; 46
     790:	78 94       	sei
     792:	67 9c       	mul	r6, r7
     794:	f0 01       	movw	r30, r0
     796:	f3 95       	inc	r31
     798:	09 94       	ijmp
	...

000007c0 <I_17__LD8_c1_c3>:
     7c0:	00 00       	nop
     7c2:	db 01       	movw	r26, r22
     7c4:	2c 91       	ld	r18, X
     7c6:	33 27       	eor	r19, r19
     7c8:	01 96       	adiw	r24, 0x01	; 1
     7ca:	f8 94       	cli
     7cc:	2e bc       	out	0x2e, r2	; 46
     7ce:	6e b4       	in	r6, 0x2e	; 46
     7d0:	78 94       	sei
     7d2:	67 9c       	mul	r6, r7
     7d4:	f0 01       	movw	r30, r0
     7d6:	f3 95       	inc	r31
     7d8:	09 94       	ijmp
	...

00000800 <I_18__LD8_c2_c0>:
     800:	00 00       	nop
     802:	d8 01       	movw	r26, r16
     804:	4c 91       	ld	r20, X
     806:	55 27       	eor	r21, r21
     808:	01 96       	adiw	r24, 0x01	; 1
     80a:	f8 94       	cli
     80c:	2e bc       	out	0x2e, r2	; 46
     80e:	6e b4       	in	r6, 0x2e	; 46
     810:	78 94       	sei
     812:	67 9c       	mul	r6, r7
     814:	f0 01       	movw	r30, r0
     816:	f3 95       	inc	r31
     818:	09 94       	ijmp
	...

00000840 <I_19__LD8_c2_c1>:
     840:	00 00       	nop
     842:	d9 01       	movw	r26, r18
     844:	4c 91       	ld	r20, X
     846:	55 27       	eor	r21, r21
     848:	01 96       	adiw	r24, 0x01	; 1
     84a:	f8 94       	cli
     84c:	2e bc       	out	0x2e, r2	; 46
     84e:	6e b4       	in	r6, 0x2e	; 46
     850:	78 94       	sei
     852:	67 9c       	mul	r6, r7
     854:	f0 01       	movw	r30, r0
     856:	f3 95       	inc	r31
     858:	09 94       	ijmp
	...

00000880 <I_1A__LD8_c2_c2>:
     880:	00 00       	nop
     882:	da 01       	movw	r26, r20
     884:	4c 91       	ld	r20, X
     886:	55 27       	eor	r21, r21
     888:	01 96       	adiw	r24, 0x01	; 1
     88a:	f8 94       	cli
     88c:	2e bc       	out	0x2e, r2	; 46
     88e:	6e b4       	in	r6, 0x2e	; 46
     890:	78 94       	sei
     892:	67 9c       	mul	r6, r7
     894:	f0 01       	movw	r30, r0
     896:	f3 95       	inc	r31
     898:	09 94       	ijmp
	...

000008c0 <I_1B__LD8_c2_c3>:
     8c0:	00 00       	nop
     8c2:	db 01       	movw	r26, r22
     8c4:	4c 91       	ld	r20, X
     8c6:	55 27       	eor	r21, r21
     8c8:	01 96       	adiw	r24, 0x01	; 1
     8ca:	f8 94       	cli
     8cc:	2e bc       	out	0x2e, r2	; 46
     8ce:	6e b4       	in	r6, 0x2e	; 46
     8d0:	78 94       	sei
     8d2:	67 9c       	mul	r6, r7
     8d4:	f0 01       	movw	r30, r0
     8d6:	f3 95       	inc	r31
     8d8:	09 94       	ijmp
	...

00000900 <I_1C__LD8_c3_c0>:
     900:	00 00       	nop
     902:	d8 01       	movw	r26, r16
     904:	6c 91       	ld	r22, X
     906:	77 27       	eor	r23, r23
     908:	01 96       	adiw	r24, 0x01	; 1
     90a:	f8 94       	cli
     90c:	2e bc       	out	0x2e, r2	; 46
     90e:	6e b4       	in	r6, 0x2e	; 46
     910:	78 94       	sei
     912:	67 9c       	mul	r6, r7
     914:	f0 01       	movw	r30, r0
     916:	f3 95       	inc	r31
     918:	09 94       	ijmp
	...

00000940 <I_1D__LD8_c3_c1>:
     940:	00 00       	nop
     942:	d9 01       	movw	r26, r18
     944:	6c 91       	ld	r22, X
     946:	77 27       	eor	r23, r23
     948:	01 96       	adiw	r24, 0x01	; 1
     94a:	f8 94       	cli
     94c:	2e bc       	out	0x2e, r2	; 46
     94e:	6e b4       	in	r6, 0x2e	; 46
     950:	78 94       	sei
     952:	67 9c       	mul	r6, r7
     954:	f0 01       	movw	r30, r0
     956:	f3 95       	inc	r31
     958:	09 94       	ijmp
	...

00000980 <I_1E__LD8_c3_c2>:
     980:	00 00       	nop
     982:	da 01       	movw	r26, r20
     984:	6c 91       	ld	r22, X
     986:	77 27       	eor	r23, r23
     988:	01 96       	adiw	r24, 0x01	; 1
     98a:	f8 94       	cli
     98c:	2e bc       	out	0x2e, r2	; 46
     98e:	6e b4       	in	r6, 0x2e	; 46
     990:	78 94       	sei
     992:	67 9c       	mul	r6, r7
     994:	f0 01       	movw	r30, r0
     996:	f3 95       	inc	r31
     998:	09 94       	ijmp
	...

000009c0 <I_1F__LD8_c3_c3>:
     9c0:	00 00       	nop
     9c2:	db 01       	movw	r26, r22
     9c4:	6c 91       	ld	r22, X
     9c6:	77 27       	eor	r23, r23
     9c8:	01 96       	adiw	r24, 0x01	; 1
     9ca:	f8 94       	cli
     9cc:	2e bc       	out	0x2e, r2	; 46
     9ce:	6e b4       	in	r6, 0x2e	; 46
     9d0:	78 94       	sei
     9d2:	67 9c       	mul	r6, r7
     9d4:	f0 01       	movw	r30, r0
     9d6:	f3 95       	inc	r31
     9d8:	09 94       	ijmp
	...

00000a00 <I_20__ST8_c0_c0>:
     a00:	00 c0       	rjmp	.+0      	; 0xa02 <I_20__ST8_c0_c0+0x2>
     a02:	d8 01       	movw	r26, r16
     a04:	0c 93       	st	X, r16
     a06:	01 96       	adiw	r24, 0x01	; 1
     a08:	f8 94       	cli
     a0a:	2e bc       	out	0x2e, r2	; 46
     a0c:	6e b4       	in	r6, 0x2e	; 46
     a0e:	78 94       	sei
     a10:	67 9c       	mul	r6, r7
     a12:	f0 01       	movw	r30, r0
     a14:	f3 95       	inc	r31
     a16:	09 94       	ijmp
	...

00000a40 <I_21__ST8_c0_c1>:
     a40:	00 c0       	rjmp	.+0      	; 0xa42 <I_21__ST8_c0_c1+0x2>
     a42:	d8 01       	movw	r26, r16
     a44:	2c 93       	st	X, r18
     a46:	01 96       	adiw	r24, 0x01	; 1
     a48:	f8 94       	cli
     a4a:	2e bc       	out	0x2e, r2	; 46
     a4c:	6e b4       	in	r6, 0x2e	; 46
     a4e:	78 94       	sei
     a50:	67 9c       	mul	r6, r7
     a52:	f0 01       	movw	r30, r0
     a54:	f3 95       	inc	r31
     a56:	09 94       	ijmp
	...

00000a80 <I_22__ST8_c0_c2>:
     a80:	00 c0       	rjmp	.+0      	; 0xa82 <I_22__ST8_c0_c2+0x2>
     a82:	d8 01       	movw	r26, r16
     a84:	4c 93       	st	X, r20
     a86:	01 96       	adiw	r24, 0x01	; 1
     a88:	f8 94       	cli
     a8a:	2e bc       	out	0x2e, r2	; 46
     a8c:	6e b4       	in	r6, 0x2e	; 46
     a8e:	78 94       	sei
     a90:	67 9c       	mul	r6, r7
     a92:	f0 01       	movw	r30, r0
     a94:	f3 95       	inc	r31
     a96:	09 94       	ijmp
	...

00000ac0 <I_23__ST8_c0_c3>:
     ac0:	00 c0       	rjmp	.+0      	; 0xac2 <I_23__ST8_c0_c3+0x2>
     ac2:	d8 01       	movw	r26, r16
     ac4:	6c 93       	st	X, r22
     ac6:	01 96       	adiw	r24, 0x01	; 1
     ac8:	f8 94       	cli
     aca:	2e bc       	out	0x2e, r2	; 46
     acc:	6e b4       	in	r6, 0x2e	; 46
     ace:	78 94       	sei
     ad0:	67 9c       	mul	r6, r7
     ad2:	f0 01       	movw	r30, r0
     ad4:	f3 95       	inc	r31
     ad6:	09 94       	ijmp
	...

00000b00 <I_24__ST8_c1_c0>:
     b00:	00 c0       	rjmp	.+0      	; 0xb02 <I_24__ST8_c1_c0+0x2>
     b02:	d9 01       	movw	r26, r18
     b04:	0c 93       	st	X, r16
     b06:	01 96       	adiw	r24, 0x01	; 1
     b08:	f8 94       	cli
     b0a:	2e bc       	out	0x2e, r2	; 46
     b0c:	6e b4       	in	r6, 0x2e	; 46
     b0e:	78 94       	sei
     b10:	67 9c       	mul	r6, r7
     b12:	f0 01       	movw	r30, r0
     b14:	f3 95       	inc	r31
     b16:	09 94       	ijmp
	...

00000b40 <I_25__ST8_c1_c1>:
     b40:	00 c0       	rjmp	.+0      	; 0xb42 <I_25__ST8_c1_c1+0x2>
     b42:	d9 01       	movw	r26, r18
     b44:	2c 93       	st	X, r18
     b46:	01 96       	adiw	r24, 0x01	; 1
     b48:	f8 94       	cli
     b4a:	2e bc       	out	0x2e, r2	; 46
     b4c:	6e b4       	in	r6, 0x2e	; 46
     b4e:	78 94       	sei
     b50:	67 9c       	mul	r6, r7
     b52:	f0 01       	movw	r30, r0
     b54:	f3 95       	inc	r31
     b56:	09 94       	ijmp
	...

00000b80 <I_26__ST8_c1_c2>:
     b80:	00 c0       	rjmp	.+0      	; 0xb82 <I_26__ST8_c1_c2+0x2>
     b82:	d9 01       	movw	r26, r18
     b84:	4c 93       	st	X, r20
     b86:	01 96       	adiw	r24, 0x01	; 1
     b88:	f8 94       	cli
     b8a:	2e bc       	out	0x2e, r2	; 46
     b8c:	6e b4       	in	r6, 0x2e	; 46
     b8e:	78 94       	sei
     b90:	67 9c       	mul	r6, r7
     b92:	f0 01       	movw	r30, r0
     b94:	f3 95       	inc	r31
     b96:	09 94       	ijmp
	...

00000bc0 <I_27__ST8_c1_c3>:
     bc0:	00 c0       	rjmp	.+0      	; 0xbc2 <I_27__ST8_c1_c3+0x2>
     bc2:	d9 01       	movw	r26, r18
     bc4:	6c 93       	st	X, r22
     bc6:	01 96       	adiw	r24, 0x01	; 1
     bc8:	f8 94       	cli
     bca:	2e bc       	out	0x2e, r2	; 46
     bcc:	6e b4       	in	r6, 0x2e	; 46
     bce:	78 94       	sei
     bd0:	67 9c       	mul	r6, r7
     bd2:	f0 01       	movw	r30, r0
     bd4:	f3 95       	inc	r31
     bd6:	09 94       	ijmp
	...

00000c00 <I_28__ST8_c2_c0>:
     c00:	00 c0       	rjmp	.+0      	; 0xc02 <I_28__ST8_c2_c0+0x2>
     c02:	da 01       	movw	r26, r20
     c04:	0c 93       	st	X, r16
     c06:	01 96       	adiw	r24, 0x01	; 1
     c08:	f8 94       	cli
     c0a:	2e bc       	out	0x2e, r2	; 46
     c0c:	6e b4       	in	r6, 0x2e	; 46
     c0e:	78 94       	sei
     c10:	67 9c       	mul	r6, r7
     c12:	f0 01       	movw	r30, r0
     c14:	f3 95       	inc	r31
     c16:	09 94       	ijmp
	...

00000c40 <I_29__ST8_c2_c1>:
     c40:	00 c0       	rjmp	.+0      	; 0xc42 <I_29__ST8_c2_c1+0x2>
     c42:	da 01       	movw	r26, r20
     c44:	2c 93       	st	X, r18
     c46:	01 96       	adiw	r24, 0x01	; 1
     c48:	f8 94       	cli
     c4a:	2e bc       	out	0x2e, r2	; 46
     c4c:	6e b4       	in	r6, 0x2e	; 46
     c4e:	78 94       	sei
     c50:	67 9c       	mul	r6, r7
     c52:	f0 01       	movw	r30, r0
     c54:	f3 95       	inc	r31
     c56:	09 94       	ijmp
	...

00000c80 <I_2A__ST8_c2_c2>:
     c80:	00 c0       	rjmp	.+0      	; 0xc82 <I_2A__ST8_c2_c2+0x2>
     c82:	da 01       	movw	r26, r20
     c84:	4c 93       	st	X, r20
     c86:	01 96       	adiw	r24, 0x01	; 1
     c88:	f8 94       	cli
     c8a:	2e bc       	out	0x2e, r2	; 46
     c8c:	6e b4       	in	r6, 0x2e	; 46
     c8e:	78 94       	sei
     c90:	67 9c       	mul	r6, r7
     c92:	f0 01       	movw	r30, r0
     c94:	f3 95       	inc	r31
     c96:	09 94       	ijmp
	...

00000cc0 <I_2B__ST8_c2_c3>:
     cc0:	00 c0       	rjmp	.+0      	; 0xcc2 <I_2B__ST8_c2_c3+0x2>
     cc2:	da 01       	movw	r26, r20
     cc4:	6c 93       	st	X, r22
     cc6:	01 96       	adiw	r24, 0x01	; 1
     cc8:	f8 94       	cli
     cca:	2e bc       	out	0x2e, r2	; 46
     ccc:	6e b4       	in	r6, 0x2e	; 46
     cce:	78 94       	sei
     cd0:	67 9c       	mul	r6, r7
     cd2:	f0 01       	movw	r30, r0
     cd4:	f3 95       	inc	r31
     cd6:	09 94       	ijmp
	...

00000d00 <I_2C__ST8_c3_c0>:
     d00:	00 c0       	rjmp	.+0      	; 0xd02 <I_2C__ST8_c3_c0+0x2>
     d02:	db 01       	movw	r26, r22
     d04:	0c 93       	st	X, r16
     d06:	01 96       	adiw	r24, 0x01	; 1
     d08:	f8 94       	cli
     d0a:	2e bc       	out	0x2e, r2	; 46
     d0c:	6e b4       	in	r6, 0x2e	; 46
     d0e:	78 94       	sei
     d10:	67 9c       	mul	r6, r7
     d12:	f0 01       	movw	r30, r0
     d14:	f3 95       	inc	r31
     d16:	09 94       	ijmp
	...

00000d40 <I_2D__ST8_c3_c1>:
     d40:	00 c0       	rjmp	.+0      	; 0xd42 <I_2D__ST8_c3_c1+0x2>
     d42:	db 01       	movw	r26, r22
     d44:	2c 93       	st	X, r18
     d46:	01 96       	adiw	r24, 0x01	; 1
     d48:	f8 94       	cli
     d4a:	2e bc       	out	0x2e, r2	; 46
     d4c:	6e b4       	in	r6, 0x2e	; 46
     d4e:	78 94       	sei
     d50:	67 9c       	mul	r6, r7
     d52:	f0 01       	movw	r30, r0
     d54:	f3 95       	inc	r31
     d56:	09 94       	ijmp
	...

00000d80 <I_2E__ST8_c3_c2>:
     d80:	00 c0       	rjmp	.+0      	; 0xd82 <I_2E__ST8_c3_c2+0x2>
     d82:	db 01       	movw	r26, r22
     d84:	4c 93       	st	X, r20
     d86:	01 96       	adiw	r24, 0x01	; 1
     d88:	f8 94       	cli
     d8a:	2e bc       	out	0x2e, r2	; 46
     d8c:	6e b4       	in	r6, 0x2e	; 46
     d8e:	78 94       	sei
     d90:	67 9c       	mul	r6, r7
     d92:	f0 01       	movw	r30, r0
     d94:	f3 95       	inc	r31
     d96:	09 94       	ijmp
	...

00000dc0 <I_2F__ST8_c3_c3>:
     dc0:	00 c0       	rjmp	.+0      	; 0xdc2 <I_2F__ST8_c3_c3+0x2>
     dc2:	db 01       	movw	r26, r22
     dc4:	6c 93       	st	X, r22
     dc6:	01 96       	adiw	r24, 0x01	; 1
     dc8:	f8 94       	cli
     dca:	2e bc       	out	0x2e, r2	; 46
     dcc:	6e b4       	in	r6, 0x2e	; 46
     dce:	78 94       	sei
     dd0:	67 9c       	mul	r6, r7
     dd2:	f0 01       	movw	r30, r0
     dd4:	f3 95       	inc	r31
     dd6:	09 94       	ijmp
	...

00000e00 <I_30__LD16_c0_c0>:
     e00:	d8 01       	movw	r26, r16
     e02:	0d 91       	ld	r16, X+
     e04:	1c 91       	ld	r17, X
     e06:	01 96       	adiw	r24, 0x01	; 1
     e08:	f8 94       	cli
     e0a:	2e bc       	out	0x2e, r2	; 46
     e0c:	6e b4       	in	r6, 0x2e	; 46
     e0e:	78 94       	sei
     e10:	67 9c       	mul	r6, r7
     e12:	f0 01       	movw	r30, r0
     e14:	f3 95       	inc	r31
     e16:	09 94       	ijmp
	...

00000e40 <I_31__LD16_c0_c1>:
     e40:	d9 01       	movw	r26, r18
     e42:	0d 91       	ld	r16, X+
     e44:	1c 91       	ld	r17, X
     e46:	01 96       	adiw	r24, 0x01	; 1
     e48:	f8 94       	cli
     e4a:	2e bc       	out	0x2e, r2	; 46
     e4c:	6e b4       	in	r6, 0x2e	; 46
     e4e:	78 94       	sei
     e50:	67 9c       	mul	r6, r7
     e52:	f0 01       	movw	r30, r0
     e54:	f3 95       	inc	r31
     e56:	09 94       	ijmp
	...

00000e80 <I_32__LD16_c0_c2>:
     e80:	da 01       	movw	r26, r20
     e82:	0d 91       	ld	r16, X+
     e84:	1c 91       	ld	r17, X
     e86:	01 96       	adiw	r24, 0x01	; 1
     e88:	f8 94       	cli
     e8a:	2e bc       	out	0x2e, r2	; 46
     e8c:	6e b4       	in	r6, 0x2e	; 46
     e8e:	78 94       	sei
     e90:	67 9c       	mul	r6, r7
     e92:	f0 01       	movw	r30, r0
     e94:	f3 95       	inc	r31
     e96:	09 94       	ijmp
	...

00000ec0 <I_33__LD16_c0_c3>:
     ec0:	db 01       	movw	r26, r22
     ec2:	0d 91       	ld	r16, X+
     ec4:	1c 91       	ld	r17, X
     ec6:	01 96       	adiw	r24, 0x01	; 1
     ec8:	f8 94       	cli
     eca:	2e bc       	out	0x2e, r2	; 46
     ecc:	6e b4       	in	r6, 0x2e	; 46
     ece:	78 94       	sei
     ed0:	67 9c       	mul	r6, r7
     ed2:	f0 01       	movw	r30, r0
     ed4:	f3 95       	inc	r31
     ed6:	09 94       	ijmp
	...

00000f00 <I_34__LD16_c1_c0>:
     f00:	d8 01       	movw	r26, r16
     f02:	2d 91       	ld	r18, X+
     f04:	3c 91       	ld	r19, X
     f06:	01 96       	adiw	r24, 0x01	; 1
     f08:	f8 94       	cli
     f0a:	2e bc       	out	0x2e, r2	; 46
     f0c:	6e b4       	in	r6, 0x2e	; 46
     f0e:	78 94       	sei
     f10:	67 9c       	mul	r6, r7
     f12:	f0 01       	movw	r30, r0
     f14:	f3 95       	inc	r31
     f16:	09 94       	ijmp
	...

00000f40 <I_35__LD16_c1_c1>:
     f40:	d9 01       	movw	r26, r18
     f42:	2d 91       	ld	r18, X+
     f44:	3c 91       	ld	r19, X
     f46:	01 96       	adiw	r24, 0x01	; 1
     f48:	f8 94       	cli
     f4a:	2e bc       	out	0x2e, r2	; 46
     f4c:	6e b4       	in	r6, 0x2e	; 46
     f4e:	78 94       	sei
     f50:	67 9c       	mul	r6, r7
     f52:	f0 01       	movw	r30, r0
     f54:	f3 95       	inc	r31
     f56:	09 94       	ijmp
	...

00000f80 <I_36__LD16_c1_c2>:
     f80:	da 01       	movw	r26, r20
     f82:	2d 91       	ld	r18, X+
     f84:	3c 91       	ld	r19, X
     f86:	01 96       	adiw	r24, 0x01	; 1
     f88:	f8 94       	cli
     f8a:	2e bc       	out	0x2e, r2	; 46
     f8c:	6e b4       	in	r6, 0x2e	; 46
     f8e:	78 94       	sei
     f90:	67 9c       	mul	r6, r7
     f92:	f0 01       	movw	r30, r0
     f94:	f3 95       	inc	r31
     f96:	09 94       	ijmp
	...

00000fc0 <I_37__LD16_c1_c3>:
     fc0:	db 01       	movw	r26, r22
     fc2:	2d 91       	ld	r18, X+
     fc4:	3c 91       	ld	r19, X
     fc6:	01 96       	adiw	r24, 0x01	; 1
     fc8:	f8 94       	cli
     fca:	2e bc       	out	0x2e, r2	; 46
     fcc:	6e b4       	in	r6, 0x2e	; 46
     fce:	78 94       	sei
     fd0:	67 9c       	mul	r6, r7
     fd2:	f0 01       	movw	r30, r0
     fd4:	f3 95       	inc	r31
     fd6:	09 94       	ijmp
	...

00001000 <I_38__LD16_c2_c0>:
    1000:	d8 01       	movw	r26, r16
    1002:	4d 91       	ld	r20, X+
    1004:	5c 91       	ld	r21, X
    1006:	01 96       	adiw	r24, 0x01	; 1
    1008:	f8 94       	cli
    100a:	2e bc       	out	0x2e, r2	; 46
    100c:	6e b4       	in	r6, 0x2e	; 46
    100e:	78 94       	sei
    1010:	67 9c       	mul	r6, r7
    1012:	f0 01       	movw	r30, r0
    1014:	f3 95       	inc	r31
    1016:	09 94       	ijmp
	...

00001040 <I_39__LD16_c2_c1>:
    1040:	d9 01       	movw	r26, r18
    1042:	4d 91       	ld	r20, X+
    1044:	5c 91       	ld	r21, X
    1046:	01 96       	adiw	r24, 0x01	; 1
    1048:	f8 94       	cli
    104a:	2e bc       	out	0x2e, r2	; 46
    104c:	6e b4       	in	r6, 0x2e	; 46
    104e:	78 94       	sei
    1050:	67 9c       	mul	r6, r7
    1052:	f0 01       	movw	r30, r0
    1054:	f3 95       	inc	r31
    1056:	09 94       	ijmp
	...

00001080 <I_3A__LD16_c2_c2>:
    1080:	da 01       	movw	r26, r20
    1082:	4d 91       	ld	r20, X+
    1084:	5c 91       	ld	r21, X
    1086:	01 96       	adiw	r24, 0x01	; 1
    1088:	f8 94       	cli
    108a:	2e bc       	out	0x2e, r2	; 46
    108c:	6e b4       	in	r6, 0x2e	; 46
    108e:	78 94       	sei
    1090:	67 9c       	mul	r6, r7
    1092:	f0 01       	movw	r30, r0
    1094:	f3 95       	inc	r31
    1096:	09 94       	ijmp
	...

000010c0 <I_3B__LD16_c2_c3>:
    10c0:	db 01       	movw	r26, r22
    10c2:	4d 91       	ld	r20, X+
    10c4:	5c 91       	ld	r21, X
    10c6:	01 96       	adiw	r24, 0x01	; 1
    10c8:	f8 94       	cli
    10ca:	2e bc       	out	0x2e, r2	; 46
    10cc:	6e b4       	in	r6, 0x2e	; 46
    10ce:	78 94       	sei
    10d0:	67 9c       	mul	r6, r7
    10d2:	f0 01       	movw	r30, r0
    10d4:	f3 95       	inc	r31
    10d6:	09 94       	ijmp
	...

00001100 <I_3C__LD16_c3_c0>:
    1100:	d8 01       	movw	r26, r16
    1102:	6d 91       	ld	r22, X+
    1104:	7c 91       	ld	r23, X
    1106:	01 96       	adiw	r24, 0x01	; 1
    1108:	f8 94       	cli
    110a:	2e bc       	out	0x2e, r2	; 46
    110c:	6e b4       	in	r6, 0x2e	; 46
    110e:	78 94       	sei
    1110:	67 9c       	mul	r6, r7
    1112:	f0 01       	movw	r30, r0
    1114:	f3 95       	inc	r31
    1116:	09 94       	ijmp
	...

00001140 <I_3D__LD16_c3_c1>:
    1140:	d9 01       	movw	r26, r18
    1142:	6d 91       	ld	r22, X+
    1144:	7c 91       	ld	r23, X
    1146:	01 96       	adiw	r24, 0x01	; 1
    1148:	f8 94       	cli
    114a:	2e bc       	out	0x2e, r2	; 46
    114c:	6e b4       	in	r6, 0x2e	; 46
    114e:	78 94       	sei
    1150:	67 9c       	mul	r6, r7
    1152:	f0 01       	movw	r30, r0
    1154:	f3 95       	inc	r31
    1156:	09 94       	ijmp
	...

00001180 <I_3E__LD16_c3_c2>:
    1180:	da 01       	movw	r26, r20
    1182:	6d 91       	ld	r22, X+
    1184:	7c 91       	ld	r23, X
    1186:	01 96       	adiw	r24, 0x01	; 1
    1188:	f8 94       	cli
    118a:	2e bc       	out	0x2e, r2	; 46
    118c:	6e b4       	in	r6, 0x2e	; 46
    118e:	78 94       	sei
    1190:	67 9c       	mul	r6, r7
    1192:	f0 01       	movw	r30, r0
    1194:	f3 95       	inc	r31
    1196:	09 94       	ijmp
	...

000011c0 <I_3F__LD16_c3_c3>:
    11c0:	db 01       	movw	r26, r22
    11c2:	6d 91       	ld	r22, X+
    11c4:	7c 91       	ld	r23, X
    11c6:	01 96       	adiw	r24, 0x01	; 1
    11c8:	f8 94       	cli
    11ca:	2e bc       	out	0x2e, r2	; 46
    11cc:	6e b4       	in	r6, 0x2e	; 46
    11ce:	78 94       	sei
    11d0:	67 9c       	mul	r6, r7
    11d2:	f0 01       	movw	r30, r0
    11d4:	f3 95       	inc	r31
    11d6:	09 94       	ijmp
	...

00001200 <I_40__ST16_c0_c0>:
    1200:	d8 01       	movw	r26, r16
    1202:	0d 93       	st	X+, r16
    1204:	1c 93       	st	X, r17
    1206:	01 96       	adiw	r24, 0x01	; 1
    1208:	f8 94       	cli
    120a:	2e bc       	out	0x2e, r2	; 46
    120c:	6e b4       	in	r6, 0x2e	; 46
    120e:	78 94       	sei
    1210:	67 9c       	mul	r6, r7
    1212:	f0 01       	movw	r30, r0
    1214:	f3 95       	inc	r31
    1216:	09 94       	ijmp
	...

00001240 <I_41__ST16_c0_c1>:
    1240:	d8 01       	movw	r26, r16
    1242:	2d 93       	st	X+, r18
    1244:	3c 93       	st	X, r19
    1246:	01 96       	adiw	r24, 0x01	; 1
    1248:	f8 94       	cli
    124a:	2e bc       	out	0x2e, r2	; 46
    124c:	6e b4       	in	r6, 0x2e	; 46
    124e:	78 94       	sei
    1250:	67 9c       	mul	r6, r7
    1252:	f0 01       	movw	r30, r0
    1254:	f3 95       	inc	r31
    1256:	09 94       	ijmp
	...

00001280 <I_42__ST16_c0_c2>:
    1280:	d8 01       	movw	r26, r16
    1282:	4d 93       	st	X+, r20
    1284:	5c 93       	st	X, r21
    1286:	01 96       	adiw	r24, 0x01	; 1
    1288:	f8 94       	cli
    128a:	2e bc       	out	0x2e, r2	; 46
    128c:	6e b4       	in	r6, 0x2e	; 46
    128e:	78 94       	sei
    1290:	67 9c       	mul	r6, r7
    1292:	f0 01       	movw	r30, r0
    1294:	f3 95       	inc	r31
    1296:	09 94       	ijmp
	...

000012c0 <I_43__ST16_c0_c3>:
    12c0:	d8 01       	movw	r26, r16
    12c2:	6d 93       	st	X+, r22
    12c4:	7c 93       	st	X, r23
    12c6:	01 96       	adiw	r24, 0x01	; 1
    12c8:	f8 94       	cli
    12ca:	2e bc       	out	0x2e, r2	; 46
    12cc:	6e b4       	in	r6, 0x2e	; 46
    12ce:	78 94       	sei
    12d0:	67 9c       	mul	r6, r7
    12d2:	f0 01       	movw	r30, r0
    12d4:	f3 95       	inc	r31
    12d6:	09 94       	ijmp
	...

00001300 <I_44__ST16_c1_c0>:
    1300:	d9 01       	movw	r26, r18
    1302:	0d 93       	st	X+, r16
    1304:	1c 93       	st	X, r17
    1306:	01 96       	adiw	r24, 0x01	; 1
    1308:	f8 94       	cli
    130a:	2e bc       	out	0x2e, r2	; 46
    130c:	6e b4       	in	r6, 0x2e	; 46
    130e:	78 94       	sei
    1310:	67 9c       	mul	r6, r7
    1312:	f0 01       	movw	r30, r0
    1314:	f3 95       	inc	r31
    1316:	09 94       	ijmp
	...

00001340 <I_45__ST16_c1_c1>:
    1340:	d9 01       	movw	r26, r18
    1342:	2d 93       	st	X+, r18
    1344:	3c 93       	st	X, r19
    1346:	01 96       	adiw	r24, 0x01	; 1
    1348:	f8 94       	cli
    134a:	2e bc       	out	0x2e, r2	; 46
    134c:	6e b4       	in	r6, 0x2e	; 46
    134e:	78 94       	sei
    1350:	67 9c       	mul	r6, r7
    1352:	f0 01       	movw	r30, r0
    1354:	f3 95       	inc	r31
    1356:	09 94       	ijmp
	...

00001380 <I_46__ST16_c1_c2>:
    1380:	d9 01       	movw	r26, r18
    1382:	4d 93       	st	X+, r20
    1384:	5c 93       	st	X, r21
    1386:	01 96       	adiw	r24, 0x01	; 1
    1388:	f8 94       	cli
    138a:	2e bc       	out	0x2e, r2	; 46
    138c:	6e b4       	in	r6, 0x2e	; 46
    138e:	78 94       	sei
    1390:	67 9c       	mul	r6, r7
    1392:	f0 01       	movw	r30, r0
    1394:	f3 95       	inc	r31
    1396:	09 94       	ijmp
	...

000013c0 <I_47__ST16_c1_c3>:
    13c0:	d9 01       	movw	r26, r18
    13c2:	6d 93       	st	X+, r22
    13c4:	7c 93       	st	X, r23
    13c6:	01 96       	adiw	r24, 0x01	; 1
    13c8:	f8 94       	cli
    13ca:	2e bc       	out	0x2e, r2	; 46
    13cc:	6e b4       	in	r6, 0x2e	; 46
    13ce:	78 94       	sei
    13d0:	67 9c       	mul	r6, r7
    13d2:	f0 01       	movw	r30, r0
    13d4:	f3 95       	inc	r31
    13d6:	09 94       	ijmp
	...

00001400 <I_48__ST16_c2_c0>:
    1400:	da 01       	movw	r26, r20
    1402:	0d 93       	st	X+, r16
    1404:	1c 93       	st	X, r17
    1406:	01 96       	adiw	r24, 0x01	; 1
    1408:	f8 94       	cli
    140a:	2e bc       	out	0x2e, r2	; 46
    140c:	6e b4       	in	r6, 0x2e	; 46
    140e:	78 94       	sei
    1410:	67 9c       	mul	r6, r7
    1412:	f0 01       	movw	r30, r0
    1414:	f3 95       	inc	r31
    1416:	09 94       	ijmp
	...

00001440 <I_49__ST16_c2_c1>:
    1440:	da 01       	movw	r26, r20
    1442:	2d 93       	st	X+, r18
    1444:	3c 93       	st	X, r19
    1446:	01 96       	adiw	r24, 0x01	; 1
    1448:	f8 94       	cli
    144a:	2e bc       	out	0x2e, r2	; 46
    144c:	6e b4       	in	r6, 0x2e	; 46
    144e:	78 94       	sei
    1450:	67 9c       	mul	r6, r7
    1452:	f0 01       	movw	r30, r0
    1454:	f3 95       	inc	r31
    1456:	09 94       	ijmp
	...

00001480 <I_4A__ST16_c2_c2>:
    1480:	da 01       	movw	r26, r20
    1482:	4d 93       	st	X+, r20
    1484:	5c 93       	st	X, r21
    1486:	01 96       	adiw	r24, 0x01	; 1
    1488:	f8 94       	cli
    148a:	2e bc       	out	0x2e, r2	; 46
    148c:	6e b4       	in	r6, 0x2e	; 46
    148e:	78 94       	sei
    1490:	67 9c       	mul	r6, r7
    1492:	f0 01       	movw	r30, r0
    1494:	f3 95       	inc	r31
    1496:	09 94       	ijmp
	...

000014c0 <I_4B__ST16_c2_c3>:
    14c0:	da 01       	movw	r26, r20
    14c2:	6d 93       	st	X+, r22
    14c4:	7c 93       	st	X, r23
    14c6:	01 96       	adiw	r24, 0x01	; 1
    14c8:	f8 94       	cli
    14ca:	2e bc       	out	0x2e, r2	; 46
    14cc:	6e b4       	in	r6, 0x2e	; 46
    14ce:	78 94       	sei
    14d0:	67 9c       	mul	r6, r7
    14d2:	f0 01       	movw	r30, r0
    14d4:	f3 95       	inc	r31
    14d6:	09 94       	ijmp
	...

00001500 <I_4C__ST16_c3_c0>:
    1500:	db 01       	movw	r26, r22
    1502:	0d 93       	st	X+, r16
    1504:	1c 93       	st	X, r17
    1506:	01 96       	adiw	r24, 0x01	; 1
    1508:	f8 94       	cli
    150a:	2e bc       	out	0x2e, r2	; 46
    150c:	6e b4       	in	r6, 0x2e	; 46
    150e:	78 94       	sei
    1510:	67 9c       	mul	r6, r7
    1512:	f0 01       	movw	r30, r0
    1514:	f3 95       	inc	r31
    1516:	09 94       	ijmp
	...

00001540 <I_4D__ST16_c3_c1>:
    1540:	db 01       	movw	r26, r22
    1542:	2d 93       	st	X+, r18
    1544:	3c 93       	st	X, r19
    1546:	01 96       	adiw	r24, 0x01	; 1
    1548:	f8 94       	cli
    154a:	2e bc       	out	0x2e, r2	; 46
    154c:	6e b4       	in	r6, 0x2e	; 46
    154e:	78 94       	sei
    1550:	67 9c       	mul	r6, r7
    1552:	f0 01       	movw	r30, r0
    1554:	f3 95       	inc	r31
    1556:	09 94       	ijmp
	...

00001580 <I_4E__ST16_c3_c2>:
    1580:	db 01       	movw	r26, r22
    1582:	4d 93       	st	X+, r20
    1584:	5c 93       	st	X, r21
    1586:	01 96       	adiw	r24, 0x01	; 1
    1588:	f8 94       	cli
    158a:	2e bc       	out	0x2e, r2	; 46
    158c:	6e b4       	in	r6, 0x2e	; 46
    158e:	78 94       	sei
    1590:	67 9c       	mul	r6, r7
    1592:	f0 01       	movw	r30, r0
    1594:	f3 95       	inc	r31
    1596:	09 94       	ijmp
	...

000015c0 <I_4F__ST16_c3_c3>:
    15c0:	db 01       	movw	r26, r22
    15c2:	6d 93       	st	X+, r22
    15c4:	7c 93       	st	X, r23
    15c6:	01 96       	adiw	r24, 0x01	; 1
    15c8:	f8 94       	cli
    15ca:	2e bc       	out	0x2e, r2	; 46
    15cc:	6e b4       	in	r6, 0x2e	; 46
    15ce:	78 94       	sei
    15d0:	67 9c       	mul	r6, r7
    15d2:	f0 01       	movw	r30, r0
    15d4:	f3 95       	inc	r31
    15d6:	09 94       	ijmp
	...

00001600 <I_50__LDI1_c0>:
    1600:	c8 95       	lpm
    1602:	01 e0       	ldi	r16, 0x01	; 1
    1604:	10 e0       	ldi	r17, 0x00	; 0
    1606:	01 96       	adiw	r24, 0x01	; 1
    1608:	f8 94       	cli
    160a:	2e bc       	out	0x2e, r2	; 46
    160c:	6e b4       	in	r6, 0x2e	; 46
    160e:	78 94       	sei
    1610:	67 9c       	mul	r6, r7
    1612:	f0 01       	movw	r30, r0
    1614:	f3 95       	inc	r31
    1616:	09 94       	ijmp
	...

00001640 <I_51__LD8_POST_c0_c1>:
    1640:	d9 01       	movw	r26, r18
    1642:	0d 91       	ld	r16, X+
    1644:	11 27       	eor	r17, r17
    1646:	9d 01       	movw	r18, r26
    1648:	01 96       	adiw	r24, 0x01	; 1
    164a:	f8 94       	cli
    164c:	2e bc       	out	0x2e, r2	; 46
    164e:	6e b4       	in	r6, 0x2e	; 46
    1650:	78 94       	sei
    1652:	67 9c       	mul	r6, r7
    1654:	f0 01       	movw	r30, r0
    1656:	f3 95       	inc	r31
    1658:	09 94       	ijmp
	...

00001680 <I_52__LD8_POST_c0_c2>:
    1680:	da 01       	movw	r26, r20
    1682:	0d 91       	ld	r16, X+
    1684:	11 27       	eor	r17, r17
    1686:	ad 01       	movw	r20, r26
    1688:	01 96       	adiw	r24, 0x01	; 1
    168a:	f8 94       	cli
    168c:	2e bc       	out	0x2e, r2	; 46
    168e:	6e b4       	in	r6, 0x2e	; 46
    1690:	78 94       	sei
    1692:	67 9c       	mul	r6, r7
    1694:	f0 01       	movw	r30, r0
    1696:	f3 95       	inc	r31
    1698:	09 94       	ijmp
	...

000016c0 <I_53__LD8_POST_c0_c3>:
    16c0:	db 01       	movw	r26, r22
    16c2:	0d 91       	ld	r16, X+
    16c4:	11 27       	eor	r17, r17
    16c6:	bd 01       	movw	r22, r26
    16c8:	01 96       	adiw	r24, 0x01	; 1
    16ca:	f8 94       	cli
    16cc:	2e bc       	out	0x2e, r2	; 46
    16ce:	6e b4       	in	r6, 0x2e	; 46
    16d0:	78 94       	sei
    16d2:	67 9c       	mul	r6, r7
    16d4:	f0 01       	movw	r30, r0
    16d6:	f3 95       	inc	r31
    16d8:	09 94       	ijmp
	...

00001700 <I_54__LD8_POST_c1_c0>:
    1700:	d8 01       	movw	r26, r16
    1702:	2d 91       	ld	r18, X+
    1704:	33 27       	eor	r19, r19
    1706:	8d 01       	movw	r16, r26
    1708:	01 96       	adiw	r24, 0x01	; 1
    170a:	f8 94       	cli
    170c:	2e bc       	out	0x2e, r2	; 46
    170e:	6e b4       	in	r6, 0x2e	; 46
    1710:	78 94       	sei
    1712:	67 9c       	mul	r6, r7
    1714:	f0 01       	movw	r30, r0
    1716:	f3 95       	inc	r31
    1718:	09 94       	ijmp
	...

00001740 <I_55__LDI1_c1>:
    1740:	c8 95       	lpm
    1742:	21 e0       	ldi	r18, 0x01	; 1
    1744:	30 e0       	ldi	r19, 0x00	; 0
    1746:	01 96       	adiw	r24, 0x01	; 1
    1748:	f8 94       	cli
    174a:	2e bc       	out	0x2e, r2	; 46
    174c:	6e b4       	in	r6, 0x2e	; 46
    174e:	78 94       	sei
    1750:	67 9c       	mul	r6, r7
    1752:	f0 01       	movw	r30, r0
    1754:	f3 95       	inc	r31
    1756:	09 94       	ijmp
	...

00001780 <I_56__LD8_POST_c1_c2>:
    1780:	da 01       	movw	r26, r20
    1782:	2d 91       	ld	r18, X+
    1784:	33 27       	eor	r19, r19
    1786:	ad 01       	movw	r20, r26
    1788:	01 96       	adiw	r24, 0x01	; 1
    178a:	f8 94       	cli
    178c:	2e bc       	out	0x2e, r2	; 46
    178e:	6e b4       	in	r6, 0x2e	; 46
    1790:	78 94       	sei
    1792:	67 9c       	mul	r6, r7
    1794:	f0 01       	movw	r30, r0
    1796:	f3 95       	inc	r31
    1798:	09 94       	ijmp
	...

000017c0 <I_57__LD8_POST_c1_c3>:
    17c0:	db 01       	movw	r26, r22
    17c2:	2d 91       	ld	r18, X+
    17c4:	33 27       	eor	r19, r19
    17c6:	bd 01       	movw	r22, r26
    17c8:	01 96       	adiw	r24, 0x01	; 1
    17ca:	f8 94       	cli
    17cc:	2e bc       	out	0x2e, r2	; 46
    17ce:	6e b4       	in	r6, 0x2e	; 46
    17d0:	78 94       	sei
    17d2:	67 9c       	mul	r6, r7
    17d4:	f0 01       	movw	r30, r0
    17d6:	f3 95       	inc	r31
    17d8:	09 94       	ijmp
	...

00001800 <I_58__LD8_POST_c2_c0>:
    1800:	d8 01       	movw	r26, r16
    1802:	4d 91       	ld	r20, X+
    1804:	55 27       	eor	r21, r21
    1806:	8d 01       	movw	r16, r26
    1808:	01 96       	adiw	r24, 0x01	; 1
    180a:	f8 94       	cli
    180c:	2e bc       	out	0x2e, r2	; 46
    180e:	6e b4       	in	r6, 0x2e	; 46
    1810:	78 94       	sei
    1812:	67 9c       	mul	r6, r7
    1814:	f0 01       	movw	r30, r0
    1816:	f3 95       	inc	r31
    1818:	09 94       	ijmp
	...

00001840 <I_59__LD8_POST_c2_c1>:
    1840:	d9 01       	movw	r26, r18
    1842:	4d 91       	ld	r20, X+
    1844:	55 27       	eor	r21, r21
    1846:	9d 01       	movw	r18, r26
    1848:	01 96       	adiw	r24, 0x01	; 1
    184a:	f8 94       	cli
    184c:	2e bc       	out	0x2e, r2	; 46
    184e:	6e b4       	in	r6, 0x2e	; 46
    1850:	78 94       	sei
    1852:	67 9c       	mul	r6, r7
    1854:	f0 01       	movw	r30, r0
    1856:	f3 95       	inc	r31
    1858:	09 94       	ijmp
	...

00001880 <I_5A__LDI1_c2>:
    1880:	c8 95       	lpm
    1882:	41 e0       	ldi	r20, 0x01	; 1
    1884:	50 e0       	ldi	r21, 0x00	; 0
    1886:	01 96       	adiw	r24, 0x01	; 1
    1888:	f8 94       	cli
    188a:	2e bc       	out	0x2e, r2	; 46
    188c:	6e b4       	in	r6, 0x2e	; 46
    188e:	78 94       	sei
    1890:	67 9c       	mul	r6, r7
    1892:	f0 01       	movw	r30, r0
    1894:	f3 95       	inc	r31
    1896:	09 94       	ijmp
	...

000018c0 <I_5B__LD8_POST_c2_c3>:
    18c0:	db 01       	movw	r26, r22
    18c2:	4d 91       	ld	r20, X+
    18c4:	55 27       	eor	r21, r21
    18c6:	bd 01       	movw	r22, r26
    18c8:	01 96       	adiw	r24, 0x01	; 1
    18ca:	f8 94       	cli
    18cc:	2e bc       	out	0x2e, r2	; 46
    18ce:	6e b4       	in	r6, 0x2e	; 46
    18d0:	78 94       	sei
    18d2:	67 9c       	mul	r6, r7
    18d4:	f0 01       	movw	r30, r0
    18d6:	f3 95       	inc	r31
    18d8:	09 94       	ijmp
	...

00001900 <I_5C__LD8_POST_c3_c0>:
    1900:	d8 01       	movw	r26, r16
    1902:	6d 91       	ld	r22, X+
    1904:	77 27       	eor	r23, r23
    1906:	8d 01       	movw	r16, r26
    1908:	01 96       	adiw	r24, 0x01	; 1
    190a:	f8 94       	cli
    190c:	2e bc       	out	0x2e, r2	; 46
    190e:	6e b4       	in	r6, 0x2e	; 46
    1910:	78 94       	sei
    1912:	67 9c       	mul	r6, r7
    1914:	f0 01       	movw	r30, r0
    1916:	f3 95       	inc	r31
    1918:	09 94       	ijmp
	...

00001940 <I_5D__LD8_POST_c3_c1>:
    1940:	d9 01       	movw	r26, r18
    1942:	6d 91       	ld	r22, X+
    1944:	77 27       	eor	r23, r23
    1946:	9d 01       	movw	r18, r26
    1948:	01 96       	adiw	r24, 0x01	; 1
    194a:	f8 94       	cli
    194c:	2e bc       	out	0x2e, r2	; 46
    194e:	6e b4       	in	r6, 0x2e	; 46
    1950:	78 94       	sei
    1952:	67 9c       	mul	r6, r7
    1954:	f0 01       	movw	r30, r0
    1956:	f3 95       	inc	r31
    1958:	09 94       	ijmp
	...

00001980 <I_5E__LD8_POST_c3_c2>:
    1980:	da 01       	movw	r26, r20
    1982:	6d 91       	ld	r22, X+
    1984:	77 27       	eor	r23, r23
    1986:	ad 01       	movw	r20, r26
    1988:	01 96       	adiw	r24, 0x01	; 1
    198a:	f8 94       	cli
    198c:	2e bc       	out	0x2e, r2	; 46
    198e:	6e b4       	in	r6, 0x2e	; 46
    1990:	78 94       	sei
    1992:	67 9c       	mul	r6, r7
    1994:	f0 01       	movw	r30, r0
    1996:	f3 95       	inc	r31
    1998:	09 94       	ijmp
	...

000019c0 <I_5F__LDI1_c3>:
    19c0:	c8 95       	lpm
    19c2:	61 e0       	ldi	r22, 0x01	; 1
    19c4:	70 e0       	ldi	r23, 0x00	; 0
    19c6:	01 96       	adiw	r24, 0x01	; 1
    19c8:	f8 94       	cli
    19ca:	2e bc       	out	0x2e, r2	; 46
    19cc:	6e b4       	in	r6, 0x2e	; 46
    19ce:	78 94       	sei
    19d0:	67 9c       	mul	r6, r7
    19d2:	f0 01       	movw	r30, r0
    19d4:	f3 95       	inc	r31
    19d6:	09 94       	ijmp
	...

00001a00 <I_60__ST8_POST_c0_c0>:
    1a00:	00 00       	nop
    1a02:	d8 01       	movw	r26, r16
    1a04:	0d 93       	st	X+, r16
    1a06:	8d 01       	movw	r16, r26
    1a08:	01 96       	adiw	r24, 0x01	; 1
    1a0a:	f8 94       	cli
    1a0c:	2e bc       	out	0x2e, r2	; 46
    1a0e:	6e b4       	in	r6, 0x2e	; 46
    1a10:	78 94       	sei
    1a12:	67 9c       	mul	r6, r7
    1a14:	f0 01       	movw	r30, r0
    1a16:	f3 95       	inc	r31
    1a18:	09 94       	ijmp
	...

00001a40 <I_61__ST8_POST_c0_c1>:
    1a40:	00 00       	nop
    1a42:	d8 01       	movw	r26, r16
    1a44:	2d 93       	st	X+, r18
    1a46:	8d 01       	movw	r16, r26
    1a48:	01 96       	adiw	r24, 0x01	; 1
    1a4a:	f8 94       	cli
    1a4c:	2e bc       	out	0x2e, r2	; 46
    1a4e:	6e b4       	in	r6, 0x2e	; 46
    1a50:	78 94       	sei
    1a52:	67 9c       	mul	r6, r7
    1a54:	f0 01       	movw	r30, r0
    1a56:	f3 95       	inc	r31
    1a58:	09 94       	ijmp
	...

00001a80 <I_62__ST8_POST_c0_c2>:
    1a80:	00 00       	nop
    1a82:	d8 01       	movw	r26, r16
    1a84:	4d 93       	st	X+, r20
    1a86:	8d 01       	movw	r16, r26
    1a88:	01 96       	adiw	r24, 0x01	; 1
    1a8a:	f8 94       	cli
    1a8c:	2e bc       	out	0x2e, r2	; 46
    1a8e:	6e b4       	in	r6, 0x2e	; 46
    1a90:	78 94       	sei
    1a92:	67 9c       	mul	r6, r7
    1a94:	f0 01       	movw	r30, r0
    1a96:	f3 95       	inc	r31
    1a98:	09 94       	ijmp
	...

00001ac0 <I_63__ST8_POST_c0_c3>:
    1ac0:	00 00       	nop
    1ac2:	d8 01       	movw	r26, r16
    1ac4:	6d 93       	st	X+, r22
    1ac6:	8d 01       	movw	r16, r26
    1ac8:	01 96       	adiw	r24, 0x01	; 1
    1aca:	f8 94       	cli
    1acc:	2e bc       	out	0x2e, r2	; 46
    1ace:	6e b4       	in	r6, 0x2e	; 46
    1ad0:	78 94       	sei
    1ad2:	67 9c       	mul	r6, r7
    1ad4:	f0 01       	movw	r30, r0
    1ad6:	f3 95       	inc	r31
    1ad8:	09 94       	ijmp
	...

00001b00 <I_64__ST8_POST_c1_c0>:
    1b00:	00 00       	nop
    1b02:	d9 01       	movw	r26, r18
    1b04:	0d 93       	st	X+, r16
    1b06:	9d 01       	movw	r18, r26
    1b08:	01 96       	adiw	r24, 0x01	; 1
    1b0a:	f8 94       	cli
    1b0c:	2e bc       	out	0x2e, r2	; 46
    1b0e:	6e b4       	in	r6, 0x2e	; 46
    1b10:	78 94       	sei
    1b12:	67 9c       	mul	r6, r7
    1b14:	f0 01       	movw	r30, r0
    1b16:	f3 95       	inc	r31
    1b18:	09 94       	ijmp
	...

00001b40 <I_65__ST8_POST_c1_c1>:
    1b40:	00 00       	nop
    1b42:	d9 01       	movw	r26, r18
    1b44:	2d 93       	st	X+, r18
    1b46:	9d 01       	movw	r18, r26
    1b48:	01 96       	adiw	r24, 0x01	; 1
    1b4a:	f8 94       	cli
    1b4c:	2e bc       	out	0x2e, r2	; 46
    1b4e:	6e b4       	in	r6, 0x2e	; 46
    1b50:	78 94       	sei
    1b52:	67 9c       	mul	r6, r7
    1b54:	f0 01       	movw	r30, r0
    1b56:	f3 95       	inc	r31
    1b58:	09 94       	ijmp
	...

00001b80 <I_66__ST8_POST_c1_c2>:
    1b80:	00 00       	nop
    1b82:	d9 01       	movw	r26, r18
    1b84:	4d 93       	st	X+, r20
    1b86:	9d 01       	movw	r18, r26
    1b88:	01 96       	adiw	r24, 0x01	; 1
    1b8a:	f8 94       	cli
    1b8c:	2e bc       	out	0x2e, r2	; 46
    1b8e:	6e b4       	in	r6, 0x2e	; 46
    1b90:	78 94       	sei
    1b92:	67 9c       	mul	r6, r7
    1b94:	f0 01       	movw	r30, r0
    1b96:	f3 95       	inc	r31
    1b98:	09 94       	ijmp
	...

00001bc0 <I_67__ST8_POST_c1_c3>:
    1bc0:	00 00       	nop
    1bc2:	d9 01       	movw	r26, r18
    1bc4:	6d 93       	st	X+, r22
    1bc6:	9d 01       	movw	r18, r26
    1bc8:	01 96       	adiw	r24, 0x01	; 1
    1bca:	f8 94       	cli
    1bcc:	2e bc       	out	0x2e, r2	; 46
    1bce:	6e b4       	in	r6, 0x2e	; 46
    1bd0:	78 94       	sei
    1bd2:	67 9c       	mul	r6, r7
    1bd4:	f0 01       	movw	r30, r0
    1bd6:	f3 95       	inc	r31
    1bd8:	09 94       	ijmp
	...

00001c00 <I_68__ST8_POST_c2_c0>:
    1c00:	00 00       	nop
    1c02:	da 01       	movw	r26, r20
    1c04:	0d 93       	st	X+, r16
    1c06:	ad 01       	movw	r20, r26
    1c08:	01 96       	adiw	r24, 0x01	; 1
    1c0a:	f8 94       	cli
    1c0c:	2e bc       	out	0x2e, r2	; 46
    1c0e:	6e b4       	in	r6, 0x2e	; 46
    1c10:	78 94       	sei
    1c12:	67 9c       	mul	r6, r7
    1c14:	f0 01       	movw	r30, r0
    1c16:	f3 95       	inc	r31
    1c18:	09 94       	ijmp
	...

00001c40 <I_69__ST8_POST_c2_c1>:
    1c40:	00 00       	nop
    1c42:	da 01       	movw	r26, r20
    1c44:	2d 93       	st	X+, r18
    1c46:	ad 01       	movw	r20, r26
    1c48:	01 96       	adiw	r24, 0x01	; 1
    1c4a:	f8 94       	cli
    1c4c:	2e bc       	out	0x2e, r2	; 46
    1c4e:	6e b4       	in	r6, 0x2e	; 46
    1c50:	78 94       	sei
    1c52:	67 9c       	mul	r6, r7
    1c54:	f0 01       	movw	r30, r0
    1c56:	f3 95       	inc	r31
    1c58:	09 94       	ijmp
	...

00001c80 <I_6A__ST8_POST_c2_c2>:
    1c80:	00 00       	nop
    1c82:	da 01       	movw	r26, r20
    1c84:	4d 93       	st	X+, r20
    1c86:	ad 01       	movw	r20, r26
    1c88:	01 96       	adiw	r24, 0x01	; 1
    1c8a:	f8 94       	cli
    1c8c:	2e bc       	out	0x2e, r2	; 46
    1c8e:	6e b4       	in	r6, 0x2e	; 46
    1c90:	78 94       	sei
    1c92:	67 9c       	mul	r6, r7
    1c94:	f0 01       	movw	r30, r0
    1c96:	f3 95       	inc	r31
    1c98:	09 94       	ijmp
	...

00001cc0 <I_6B__ST8_POST_c2_c3>:
    1cc0:	00 00       	nop
    1cc2:	da 01       	movw	r26, r20
    1cc4:	6d 93       	st	X+, r22
    1cc6:	ad 01       	movw	r20, r26
    1cc8:	01 96       	adiw	r24, 0x01	; 1
    1cca:	f8 94       	cli
    1ccc:	2e bc       	out	0x2e, r2	; 46
    1cce:	6e b4       	in	r6, 0x2e	; 46
    1cd0:	78 94       	sei
    1cd2:	67 9c       	mul	r6, r7
    1cd4:	f0 01       	movw	r30, r0
    1cd6:	f3 95       	inc	r31
    1cd8:	09 94       	ijmp
	...

00001d00 <I_6C__ST8_POST_c3_c0>:
    1d00:	00 00       	nop
    1d02:	db 01       	movw	r26, r22
    1d04:	0d 93       	st	X+, r16
    1d06:	bd 01       	movw	r22, r26
    1d08:	01 96       	adiw	r24, 0x01	; 1
    1d0a:	f8 94       	cli
    1d0c:	2e bc       	out	0x2e, r2	; 46
    1d0e:	6e b4       	in	r6, 0x2e	; 46
    1d10:	78 94       	sei
    1d12:	67 9c       	mul	r6, r7
    1d14:	f0 01       	movw	r30, r0
    1d16:	f3 95       	inc	r31
    1d18:	09 94       	ijmp
	...

00001d40 <I_6D__ST8_POST_c3_c1>:
    1d40:	00 00       	nop
    1d42:	db 01       	movw	r26, r22
    1d44:	2d 93       	st	X+, r18
    1d46:	bd 01       	movw	r22, r26
    1d48:	01 96       	adiw	r24, 0x01	; 1
    1d4a:	f8 94       	cli
    1d4c:	2e bc       	out	0x2e, r2	; 46
    1d4e:	6e b4       	in	r6, 0x2e	; 46
    1d50:	78 94       	sei
    1d52:	67 9c       	mul	r6, r7
    1d54:	f0 01       	movw	r30, r0
    1d56:	f3 95       	inc	r31
    1d58:	09 94       	ijmp
	...

00001d80 <I_6E__ST8_POST_c3_c2>:
    1d80:	00 00       	nop
    1d82:	db 01       	movw	r26, r22
    1d84:	4d 93       	st	X+, r20
    1d86:	bd 01       	movw	r22, r26
    1d88:	01 96       	adiw	r24, 0x01	; 1
    1d8a:	f8 94       	cli
    1d8c:	2e bc       	out	0x2e, r2	; 46
    1d8e:	6e b4       	in	r6, 0x2e	; 46
    1d90:	78 94       	sei
    1d92:	67 9c       	mul	r6, r7
    1d94:	f0 01       	movw	r30, r0
    1d96:	f3 95       	inc	r31
    1d98:	09 94       	ijmp
	...

00001dc0 <I_6F__ST8_POST_c3_c3>:
    1dc0:	00 00       	nop
    1dc2:	db 01       	movw	r26, r22
    1dc4:	6d 93       	st	X+, r22
    1dc6:	bd 01       	movw	r22, r26
    1dc8:	01 96       	adiw	r24, 0x01	; 1
    1dca:	f8 94       	cli
    1dcc:	2e bc       	out	0x2e, r2	; 46
    1dce:	6e b4       	in	r6, 0x2e	; 46
    1dd0:	78 94       	sei
    1dd2:	67 9c       	mul	r6, r7
    1dd4:	f0 01       	movw	r30, r0
    1dd6:	f3 95       	inc	r31
    1dd8:	09 94       	ijmp
	...

00001e00 <I_70__PUSH16_r0>:
    1e00:	00 00       	nop
    1e02:	9a 92       	st	-Y, r9
    1e04:	8a 92       	st	-Y, r8
    1e06:	01 96       	adiw	r24, 0x01	; 1
    1e08:	f8 94       	cli
    1e0a:	2e bc       	out	0x2e, r2	; 46
    1e0c:	6e b4       	in	r6, 0x2e	; 46
    1e0e:	78 94       	sei
    1e10:	67 9c       	mul	r6, r7
    1e12:	f0 01       	movw	r30, r0
    1e14:	f3 95       	inc	r31
    1e16:	09 94       	ijmp

00001e18 <I_71__PUSH16_r1>:
    1e18:	00 00       	nop
    1e1a:	ba 92       	st	-Y, r11
    1e1c:	aa 92       	st	-Y, r10
    1e1e:	01 96       	adiw	r24, 0x01	; 1
    1e20:	f8 94       	cli
    1e22:	2e bc       	out	0x2e, r2	; 46
    1e24:	6e b4       	in	r6, 0x2e	; 46
    1e26:	78 94       	sei
    1e28:	67 9c       	mul	r6, r7
    1e2a:	f0 01       	movw	r30, r0
    1e2c:	f3 95       	inc	r31
    1e2e:	09 94       	ijmp

00001e30 <I_72__PUSH16_r2>:
    1e30:	00 00       	nop
    1e32:	da 92       	st	-Y, r13
    1e34:	ca 92       	st	-Y, r12
    1e36:	01 96       	adiw	r24, 0x01	; 1
    1e38:	f8 94       	cli
    1e3a:	2e bc       	out	0x2e, r2	; 46
    1e3c:	6e b4       	in	r6, 0x2e	; 46
    1e3e:	78 94       	sei
    1e40:	67 9c       	mul	r6, r7
    1e42:	f0 01       	movw	r30, r0
    1e44:	f3 95       	inc	r31
    1e46:	09 94       	ijmp

00001e48 <I_73__PUSH16_r3>:
    1e48:	00 00       	nop
    1e4a:	fa 92       	st	-Y, r15
    1e4c:	ea 92       	st	-Y, r14
    1e4e:	01 96       	adiw	r24, 0x01	; 1
    1e50:	f8 94       	cli
    1e52:	2e bc       	out	0x2e, r2	; 46
    1e54:	6e b4       	in	r6, 0x2e	; 46
    1e56:	78 94       	sei
    1e58:	67 9c       	mul	r6, r7
    1e5a:	f0 01       	movw	r30, r0
    1e5c:	f3 95       	inc	r31
    1e5e:	09 94       	ijmp

00001e60 <I_74__PUSH16_r4>:
    1e60:	00 00       	nop
    1e62:	1a 93       	st	-Y, r17
    1e64:	0a 93       	st	-Y, r16
    1e66:	01 96       	adiw	r24, 0x01	; 1
    1e68:	f8 94       	cli
    1e6a:	2e bc       	out	0x2e, r2	; 46
    1e6c:	6e b4       	in	r6, 0x2e	; 46
    1e6e:	78 94       	sei
    1e70:	67 9c       	mul	r6, r7
    1e72:	f0 01       	movw	r30, r0
    1e74:	f3 95       	inc	r31
    1e76:	09 94       	ijmp

00001e78 <I_75__PUSH16_r5>:
    1e78:	00 00       	nop
    1e7a:	3a 93       	st	-Y, r19
    1e7c:	2a 93       	st	-Y, r18
    1e7e:	01 96       	adiw	r24, 0x01	; 1
    1e80:	f8 94       	cli
    1e82:	2e bc       	out	0x2e, r2	; 46
    1e84:	6e b4       	in	r6, 0x2e	; 46
    1e86:	78 94       	sei
    1e88:	67 9c       	mul	r6, r7
    1e8a:	f0 01       	movw	r30, r0
    1e8c:	f3 95       	inc	r31
    1e8e:	09 94       	ijmp

00001e90 <I_76__PUSH16_r6>:
    1e90:	00 00       	nop
    1e92:	5a 93       	st	-Y, r21
    1e94:	4a 93       	st	-Y, r20
    1e96:	01 96       	adiw	r24, 0x01	; 1
    1e98:	f8 94       	cli
    1e9a:	2e bc       	out	0x2e, r2	; 46
    1e9c:	6e b4       	in	r6, 0x2e	; 46
    1e9e:	78 94       	sei
    1ea0:	67 9c       	mul	r6, r7
    1ea2:	f0 01       	movw	r30, r0
    1ea4:	f3 95       	inc	r31
    1ea6:	09 94       	ijmp

00001ea8 <I_77__PUSH16_r7>:
    1ea8:	00 00       	nop
    1eaa:	7a 93       	st	-Y, r23
    1eac:	6a 93       	st	-Y, r22
    1eae:	01 96       	adiw	r24, 0x01	; 1
    1eb0:	f8 94       	cli
    1eb2:	2e bc       	out	0x2e, r2	; 46
    1eb4:	6e b4       	in	r6, 0x2e	; 46
    1eb6:	78 94       	sei
    1eb8:	67 9c       	mul	r6, r7
    1eba:	f0 01       	movw	r30, r0
    1ebc:	f3 95       	inc	r31
    1ebe:	09 94       	ijmp

00001ec0 <I_78__POP16_r0>:
    1ec0:	00 00       	nop
    1ec2:	89 90       	ld	r8, Y+
    1ec4:	99 90       	ld	r9, Y+
    1ec6:	01 96       	adiw	r24, 0x01	; 1
    1ec8:	f8 94       	cli
    1eca:	2e bc       	out	0x2e, r2	; 46
    1ecc:	6e b4       	in	r6, 0x2e	; 46
    1ece:	78 94       	sei
    1ed0:	67 9c       	mul	r6, r7
    1ed2:	f0 01       	movw	r30, r0
    1ed4:	f3 95       	inc	r31
    1ed6:	09 94       	ijmp

00001ed8 <I_79__POP16_r1>:
    1ed8:	00 00       	nop
    1eda:	a9 90       	ld	r10, Y+
    1edc:	b9 90       	ld	r11, Y+
    1ede:	01 96       	adiw	r24, 0x01	; 1
    1ee0:	f8 94       	cli
    1ee2:	2e bc       	out	0x2e, r2	; 46
    1ee4:	6e b4       	in	r6, 0x2e	; 46
    1ee6:	78 94       	sei
    1ee8:	67 9c       	mul	r6, r7
    1eea:	f0 01       	movw	r30, r0
    1eec:	f3 95       	inc	r31
    1eee:	09 94       	ijmp

00001ef0 <I_7A__POP16_r2>:
    1ef0:	00 00       	nop
    1ef2:	c9 90       	ld	r12, Y+
    1ef4:	d9 90       	ld	r13, Y+
    1ef6:	01 96       	adiw	r24, 0x01	; 1
    1ef8:	f8 94       	cli
    1efa:	2e bc       	out	0x2e, r2	; 46
    1efc:	6e b4       	in	r6, 0x2e	; 46
    1efe:	78 94       	sei
    1f00:	67 9c       	mul	r6, r7
    1f02:	f0 01       	movw	r30, r0
    1f04:	f3 95       	inc	r31
    1f06:	09 94       	ijmp

00001f08 <I_7B__POP16_r3>:
    1f08:	00 00       	nop
    1f0a:	e9 90       	ld	r14, Y+
    1f0c:	f9 90       	ld	r15, Y+
    1f0e:	01 96       	adiw	r24, 0x01	; 1
    1f10:	f8 94       	cli
    1f12:	2e bc       	out	0x2e, r2	; 46
    1f14:	6e b4       	in	r6, 0x2e	; 46
    1f16:	78 94       	sei
    1f18:	67 9c       	mul	r6, r7
    1f1a:	f0 01       	movw	r30, r0
    1f1c:	f3 95       	inc	r31
    1f1e:	09 94       	ijmp

00001f20 <I_7C__POP16_r4>:
    1f20:	00 00       	nop
    1f22:	09 91       	ld	r16, Y+
    1f24:	19 91       	ld	r17, Y+
    1f26:	01 96       	adiw	r24, 0x01	; 1
    1f28:	f8 94       	cli
    1f2a:	2e bc       	out	0x2e, r2	; 46
    1f2c:	6e b4       	in	r6, 0x2e	; 46
    1f2e:	78 94       	sei
    1f30:	67 9c       	mul	r6, r7
    1f32:	f0 01       	movw	r30, r0
    1f34:	f3 95       	inc	r31
    1f36:	09 94       	ijmp

00001f38 <I_7D__POP16_r5>:
    1f38:	00 00       	nop
    1f3a:	29 91       	ld	r18, Y+
    1f3c:	39 91       	ld	r19, Y+
    1f3e:	01 96       	adiw	r24, 0x01	; 1
    1f40:	f8 94       	cli
    1f42:	2e bc       	out	0x2e, r2	; 46
    1f44:	6e b4       	in	r6, 0x2e	; 46
    1f46:	78 94       	sei
    1f48:	67 9c       	mul	r6, r7
    1f4a:	f0 01       	movw	r30, r0
    1f4c:	f3 95       	inc	r31
    1f4e:	09 94       	ijmp

00001f50 <I_7E__POP16_r6>:
    1f50:	00 00       	nop
    1f52:	49 91       	ld	r20, Y+
    1f54:	59 91       	ld	r21, Y+
    1f56:	01 96       	adiw	r24, 0x01	; 1
    1f58:	f8 94       	cli
    1f5a:	2e bc       	out	0x2e, r2	; 46
    1f5c:	6e b4       	in	r6, 0x2e	; 46
    1f5e:	78 94       	sei
    1f60:	67 9c       	mul	r6, r7
    1f62:	f0 01       	movw	r30, r0
    1f64:	f3 95       	inc	r31
    1f66:	09 94       	ijmp

00001f68 <I_7F__POP16_r7>:
    1f68:	00 00       	nop
    1f6a:	69 91       	ld	r22, Y+
    1f6c:	79 91       	ld	r23, Y+
    1f6e:	01 96       	adiw	r24, 0x01	; 1
    1f70:	f8 94       	cli
    1f72:	2e bc       	out	0x2e, r2	; 46
    1f74:	6e b4       	in	r6, 0x2e	; 46
    1f76:	78 94       	sei
    1f78:	67 9c       	mul	r6, r7
    1f7a:	f0 01       	movw	r30, r0
    1f7c:	f3 95       	inc	r31
    1f7e:	09 94       	ijmp

00001f80 <I_80__ADD_c0_c0>:
    1f80:	00 c0       	rjmp	.+0      	; 0x1f82 <I_80__ADD_c0_c0+0x2>
    1f82:	00 0f       	add	r16, r16
    1f84:	11 1f       	adc	r17, r17
    1f86:	5f b6       	in	r5, 0x3f	; 63
    1f88:	01 96       	adiw	r24, 0x01	; 1
    1f8a:	f8 94       	cli
    1f8c:	2e bc       	out	0x2e, r2	; 46
    1f8e:	6e b4       	in	r6, 0x2e	; 46
    1f90:	78 94       	sei
    1f92:	67 9c       	mul	r6, r7
    1f94:	f0 01       	movw	r30, r0
    1f96:	f3 95       	inc	r31
    1f98:	09 94       	ijmp

00001f9a <I_81__ADD_c0_c1>:
    1f9a:	00 c0       	rjmp	.+0      	; 0x1f9c <I_81__ADD_c0_c1+0x2>
    1f9c:	02 0f       	add	r16, r18
    1f9e:	13 1f       	adc	r17, r19
    1fa0:	5f b6       	in	r5, 0x3f	; 63
    1fa2:	01 96       	adiw	r24, 0x01	; 1
    1fa4:	f8 94       	cli
    1fa6:	2e bc       	out	0x2e, r2	; 46
    1fa8:	6e b4       	in	r6, 0x2e	; 46
    1faa:	78 94       	sei
    1fac:	67 9c       	mul	r6, r7
    1fae:	f0 01       	movw	r30, r0
    1fb0:	f3 95       	inc	r31
    1fb2:	09 94       	ijmp

00001fb4 <I_82__ADD_c0_c2>:
    1fb4:	00 c0       	rjmp	.+0      	; 0x1fb6 <I_82__ADD_c0_c2+0x2>
    1fb6:	04 0f       	add	r16, r20
    1fb8:	15 1f       	adc	r17, r21
    1fba:	5f b6       	in	r5, 0x3f	; 63
    1fbc:	01 96       	adiw	r24, 0x01	; 1
    1fbe:	f8 94       	cli
    1fc0:	2e bc       	out	0x2e, r2	; 46
    1fc2:	6e b4       	in	r6, 0x2e	; 46
    1fc4:	78 94       	sei
    1fc6:	67 9c       	mul	r6, r7
    1fc8:	f0 01       	movw	r30, r0
    1fca:	f3 95       	inc	r31
    1fcc:	09 94       	ijmp

00001fce <I_83__ADD_c0_c3>:
    1fce:	00 c0       	rjmp	.+0      	; 0x1fd0 <I_83__ADD_c0_c3+0x2>
    1fd0:	06 0f       	add	r16, r22
    1fd2:	17 1f       	adc	r17, r23
    1fd4:	5f b6       	in	r5, 0x3f	; 63
    1fd6:	01 96       	adiw	r24, 0x01	; 1
    1fd8:	f8 94       	cli
    1fda:	2e bc       	out	0x2e, r2	; 46
    1fdc:	6e b4       	in	r6, 0x2e	; 46
    1fde:	78 94       	sei
    1fe0:	67 9c       	mul	r6, r7
    1fe2:	f0 01       	movw	r30, r0
    1fe4:	f3 95       	inc	r31
    1fe6:	09 94       	ijmp

00001fe8 <I_84__ADD_c1_c0>:
    1fe8:	00 c0       	rjmp	.+0      	; 0x1fea <I_84__ADD_c1_c0+0x2>
    1fea:	20 0f       	add	r18, r16
    1fec:	31 1f       	adc	r19, r17
    1fee:	5f b6       	in	r5, 0x3f	; 63
    1ff0:	01 96       	adiw	r24, 0x01	; 1
    1ff2:	f8 94       	cli
    1ff4:	2e bc       	out	0x2e, r2	; 46
    1ff6:	6e b4       	in	r6, 0x2e	; 46
    1ff8:	78 94       	sei
    1ffa:	67 9c       	mul	r6, r7
    1ffc:	f0 01       	movw	r30, r0
    1ffe:	f3 95       	inc	r31
    2000:	09 94       	ijmp

00002002 <I_85__ADD_c1_c1>:
    2002:	00 c0       	rjmp	.+0      	; 0x2004 <I_85__ADD_c1_c1+0x2>
    2004:	22 0f       	add	r18, r18
    2006:	33 1f       	adc	r19, r19
    2008:	5f b6       	in	r5, 0x3f	; 63
    200a:	01 96       	adiw	r24, 0x01	; 1
    200c:	f8 94       	cli
    200e:	2e bc       	out	0x2e, r2	; 46
    2010:	6e b4       	in	r6, 0x2e	; 46
    2012:	78 94       	sei
    2014:	67 9c       	mul	r6, r7
    2016:	f0 01       	movw	r30, r0
    2018:	f3 95       	inc	r31
    201a:	09 94       	ijmp

0000201c <I_86__ADD_c1_c2>:
    201c:	00 c0       	rjmp	.+0      	; 0x201e <I_86__ADD_c1_c2+0x2>
    201e:	24 0f       	add	r18, r20
    2020:	35 1f       	adc	r19, r21
    2022:	5f b6       	in	r5, 0x3f	; 63
    2024:	01 96       	adiw	r24, 0x01	; 1
    2026:	f8 94       	cli
    2028:	2e bc       	out	0x2e, r2	; 46
    202a:	6e b4       	in	r6, 0x2e	; 46
    202c:	78 94       	sei
    202e:	67 9c       	mul	r6, r7
    2030:	f0 01       	movw	r30, r0
    2032:	f3 95       	inc	r31
    2034:	09 94       	ijmp

00002036 <I_87__ADD_c1_c3>:
    2036:	00 c0       	rjmp	.+0      	; 0x2038 <I_87__ADD_c1_c3+0x2>
    2038:	26 0f       	add	r18, r22
    203a:	37 1f       	adc	r19, r23
    203c:	5f b6       	in	r5, 0x3f	; 63
    203e:	01 96       	adiw	r24, 0x01	; 1
    2040:	f8 94       	cli
    2042:	2e bc       	out	0x2e, r2	; 46
    2044:	6e b4       	in	r6, 0x2e	; 46
    2046:	78 94       	sei
    2048:	67 9c       	mul	r6, r7
    204a:	f0 01       	movw	r30, r0
    204c:	f3 95       	inc	r31
    204e:	09 94       	ijmp

00002050 <I_88__ADD_c2_c0>:
    2050:	00 c0       	rjmp	.+0      	; 0x2052 <I_88__ADD_c2_c0+0x2>
    2052:	40 0f       	add	r20, r16
    2054:	51 1f       	adc	r21, r17
    2056:	5f b6       	in	r5, 0x3f	; 63
    2058:	01 96       	adiw	r24, 0x01	; 1
    205a:	f8 94       	cli
    205c:	2e bc       	out	0x2e, r2	; 46
    205e:	6e b4       	in	r6, 0x2e	; 46
    2060:	78 94       	sei
    2062:	67 9c       	mul	r6, r7
    2064:	f0 01       	movw	r30, r0
    2066:	f3 95       	inc	r31
    2068:	09 94       	ijmp

0000206a <I_89__ADD_c2_c1>:
    206a:	00 c0       	rjmp	.+0      	; 0x206c <I_89__ADD_c2_c1+0x2>
    206c:	42 0f       	add	r20, r18
    206e:	53 1f       	adc	r21, r19
    2070:	5f b6       	in	r5, 0x3f	; 63
    2072:	01 96       	adiw	r24, 0x01	; 1
    2074:	f8 94       	cli
    2076:	2e bc       	out	0x2e, r2	; 46
    2078:	6e b4       	in	r6, 0x2e	; 46
    207a:	78 94       	sei
    207c:	67 9c       	mul	r6, r7
    207e:	f0 01       	movw	r30, r0
    2080:	f3 95       	inc	r31
    2082:	09 94       	ijmp

00002084 <I_8A__ADD_c2_c2>:
    2084:	00 c0       	rjmp	.+0      	; 0x2086 <I_8A__ADD_c2_c2+0x2>
    2086:	44 0f       	add	r20, r20
    2088:	55 1f       	adc	r21, r21
    208a:	5f b6       	in	r5, 0x3f	; 63
    208c:	01 96       	adiw	r24, 0x01	; 1
    208e:	f8 94       	cli
    2090:	2e bc       	out	0x2e, r2	; 46
    2092:	6e b4       	in	r6, 0x2e	; 46
    2094:	78 94       	sei
    2096:	67 9c       	mul	r6, r7
    2098:	f0 01       	movw	r30, r0
    209a:	f3 95       	inc	r31
    209c:	09 94       	ijmp

0000209e <I_8B__ADD_c2_c3>:
    209e:	00 c0       	rjmp	.+0      	; 0x20a0 <I_8B__ADD_c2_c3+0x2>
    20a0:	46 0f       	add	r20, r22
    20a2:	57 1f       	adc	r21, r23
    20a4:	5f b6       	in	r5, 0x3f	; 63
    20a6:	01 96       	adiw	r24, 0x01	; 1
    20a8:	f8 94       	cli
    20aa:	2e bc       	out	0x2e, r2	; 46
    20ac:	6e b4       	in	r6, 0x2e	; 46
    20ae:	78 94       	sei
    20b0:	67 9c       	mul	r6, r7
    20b2:	f0 01       	movw	r30, r0
    20b4:	f3 95       	inc	r31
    20b6:	09 94       	ijmp

000020b8 <I_8C__ADD_c3_c0>:
    20b8:	00 c0       	rjmp	.+0      	; 0x20ba <I_8C__ADD_c3_c0+0x2>
    20ba:	60 0f       	add	r22, r16
    20bc:	71 1f       	adc	r23, r17
    20be:	5f b6       	in	r5, 0x3f	; 63
    20c0:	01 96       	adiw	r24, 0x01	; 1
    20c2:	f8 94       	cli
    20c4:	2e bc       	out	0x2e, r2	; 46
    20c6:	6e b4       	in	r6, 0x2e	; 46
    20c8:	78 94       	sei
    20ca:	67 9c       	mul	r6, r7
    20cc:	f0 01       	movw	r30, r0
    20ce:	f3 95       	inc	r31
    20d0:	09 94       	ijmp

000020d2 <I_8D__ADD_c3_c1>:
    20d2:	00 c0       	rjmp	.+0      	; 0x20d4 <I_8D__ADD_c3_c1+0x2>
    20d4:	62 0f       	add	r22, r18
    20d6:	73 1f       	adc	r23, r19
    20d8:	5f b6       	in	r5, 0x3f	; 63
    20da:	01 96       	adiw	r24, 0x01	; 1
    20dc:	f8 94       	cli
    20de:	2e bc       	out	0x2e, r2	; 46
    20e0:	6e b4       	in	r6, 0x2e	; 46
    20e2:	78 94       	sei
    20e4:	67 9c       	mul	r6, r7
    20e6:	f0 01       	movw	r30, r0
    20e8:	f3 95       	inc	r31
    20ea:	09 94       	ijmp

000020ec <I_8E__ADD_c3_c2>:
    20ec:	00 c0       	rjmp	.+0      	; 0x20ee <I_8E__ADD_c3_c2+0x2>
    20ee:	64 0f       	add	r22, r20
    20f0:	75 1f       	adc	r23, r21
    20f2:	5f b6       	in	r5, 0x3f	; 63
    20f4:	01 96       	adiw	r24, 0x01	; 1
    20f6:	f8 94       	cli
    20f8:	2e bc       	out	0x2e, r2	; 46
    20fa:	6e b4       	in	r6, 0x2e	; 46
    20fc:	78 94       	sei
    20fe:	67 9c       	mul	r6, r7
    2100:	f0 01       	movw	r30, r0
    2102:	f3 95       	inc	r31
    2104:	09 94       	ijmp

00002106 <I_8F__ADD_c3_c3>:
    2106:	00 c0       	rjmp	.+0      	; 0x2108 <I_8F__ADD_c3_c3+0x2>
    2108:	66 0f       	add	r22, r22
    210a:	77 1f       	adc	r23, r23
    210c:	5f b6       	in	r5, 0x3f	; 63
    210e:	01 96       	adiw	r24, 0x01	; 1
    2110:	f8 94       	cli
    2112:	2e bc       	out	0x2e, r2	; 46
    2114:	6e b4       	in	r6, 0x2e	; 46
    2116:	78 94       	sei
    2118:	67 9c       	mul	r6, r7
    211a:	f0 01       	movw	r30, r0
    211c:	f3 95       	inc	r31
    211e:	09 94       	ijmp

00002120 <I_90__SUB_c0_c0>:
    2120:	00 c0       	rjmp	.+0      	; 0x2122 <I_90__SUB_c0_c0+0x2>
    2122:	00 1b       	sub	r16, r16
    2124:	11 0b       	sbc	r17, r17
    2126:	5f b6       	in	r5, 0x3f	; 63
    2128:	01 96       	adiw	r24, 0x01	; 1
    212a:	f8 94       	cli
    212c:	2e bc       	out	0x2e, r2	; 46
    212e:	6e b4       	in	r6, 0x2e	; 46
    2130:	78 94       	sei
    2132:	67 9c       	mul	r6, r7
    2134:	f0 01       	movw	r30, r0
    2136:	f3 95       	inc	r31
    2138:	09 94       	ijmp

0000213a <I_91__SUB_c0_c1>:
    213a:	00 c0       	rjmp	.+0      	; 0x213c <I_91__SUB_c0_c1+0x2>
    213c:	02 1b       	sub	r16, r18
    213e:	13 0b       	sbc	r17, r19
    2140:	5f b6       	in	r5, 0x3f	; 63
    2142:	01 96       	adiw	r24, 0x01	; 1
    2144:	f8 94       	cli
    2146:	2e bc       	out	0x2e, r2	; 46
    2148:	6e b4       	in	r6, 0x2e	; 46
    214a:	78 94       	sei
    214c:	67 9c       	mul	r6, r7
    214e:	f0 01       	movw	r30, r0
    2150:	f3 95       	inc	r31
    2152:	09 94       	ijmp

00002154 <I_92__SUB_c0_c2>:
    2154:	00 c0       	rjmp	.+0      	; 0x2156 <I_92__SUB_c0_c2+0x2>
    2156:	04 1b       	sub	r16, r20
    2158:	15 0b       	sbc	r17, r21
    215a:	5f b6       	in	r5, 0x3f	; 63
    215c:	01 96       	adiw	r24, 0x01	; 1
    215e:	f8 94       	cli
    2160:	2e bc       	out	0x2e, r2	; 46
    2162:	6e b4       	in	r6, 0x2e	; 46
    2164:	78 94       	sei
    2166:	67 9c       	mul	r6, r7
    2168:	f0 01       	movw	r30, r0
    216a:	f3 95       	inc	r31
    216c:	09 94       	ijmp

0000216e <I_93__SUB_c0_c3>:
    216e:	00 c0       	rjmp	.+0      	; 0x2170 <I_93__SUB_c0_c3+0x2>
    2170:	06 1b       	sub	r16, r22
    2172:	17 0b       	sbc	r17, r23
    2174:	5f b6       	in	r5, 0x3f	; 63
    2176:	01 96       	adiw	r24, 0x01	; 1
    2178:	f8 94       	cli
    217a:	2e bc       	out	0x2e, r2	; 46
    217c:	6e b4       	in	r6, 0x2e	; 46
    217e:	78 94       	sei
    2180:	67 9c       	mul	r6, r7
    2182:	f0 01       	movw	r30, r0
    2184:	f3 95       	inc	r31
    2186:	09 94       	ijmp

00002188 <I_94__SUB_c1_c0>:
    2188:	00 c0       	rjmp	.+0      	; 0x218a <I_94__SUB_c1_c0+0x2>
    218a:	20 1b       	sub	r18, r16
    218c:	31 0b       	sbc	r19, r17
    218e:	5f b6       	in	r5, 0x3f	; 63
    2190:	01 96       	adiw	r24, 0x01	; 1
    2192:	f8 94       	cli
    2194:	2e bc       	out	0x2e, r2	; 46
    2196:	6e b4       	in	r6, 0x2e	; 46
    2198:	78 94       	sei
    219a:	67 9c       	mul	r6, r7
    219c:	f0 01       	movw	r30, r0
    219e:	f3 95       	inc	r31
    21a0:	09 94       	ijmp

000021a2 <I_95__SUB_c1_c1>:
    21a2:	00 c0       	rjmp	.+0      	; 0x21a4 <I_95__SUB_c1_c1+0x2>
    21a4:	22 1b       	sub	r18, r18
    21a6:	33 0b       	sbc	r19, r19
    21a8:	5f b6       	in	r5, 0x3f	; 63
    21aa:	01 96       	adiw	r24, 0x01	; 1
    21ac:	f8 94       	cli
    21ae:	2e bc       	out	0x2e, r2	; 46
    21b0:	6e b4       	in	r6, 0x2e	; 46
    21b2:	78 94       	sei
    21b4:	67 9c       	mul	r6, r7
    21b6:	f0 01       	movw	r30, r0
    21b8:	f3 95       	inc	r31
    21ba:	09 94       	ijmp

000021bc <I_96__SUB_c1_c2>:
    21bc:	00 c0       	rjmp	.+0      	; 0x21be <I_96__SUB_c1_c2+0x2>
    21be:	24 1b       	sub	r18, r20
    21c0:	35 0b       	sbc	r19, r21
    21c2:	5f b6       	in	r5, 0x3f	; 63
    21c4:	01 96       	adiw	r24, 0x01	; 1
    21c6:	f8 94       	cli
    21c8:	2e bc       	out	0x2e, r2	; 46
    21ca:	6e b4       	in	r6, 0x2e	; 46
    21cc:	78 94       	sei
    21ce:	67 9c       	mul	r6, r7
    21d0:	f0 01       	movw	r30, r0
    21d2:	f3 95       	inc	r31
    21d4:	09 94       	ijmp

000021d6 <I_97__SUB_c1_c3>:
    21d6:	00 c0       	rjmp	.+0      	; 0x21d8 <I_97__SUB_c1_c3+0x2>
    21d8:	26 1b       	sub	r18, r22
    21da:	37 0b       	sbc	r19, r23
    21dc:	5f b6       	in	r5, 0x3f	; 63
    21de:	01 96       	adiw	r24, 0x01	; 1
    21e0:	f8 94       	cli
    21e2:	2e bc       	out	0x2e, r2	; 46
    21e4:	6e b4       	in	r6, 0x2e	; 46
    21e6:	78 94       	sei
    21e8:	67 9c       	mul	r6, r7
    21ea:	f0 01       	movw	r30, r0
    21ec:	f3 95       	inc	r31
    21ee:	09 94       	ijmp

000021f0 <I_98__SUB_c2_c0>:
    21f0:	00 c0       	rjmp	.+0      	; 0x21f2 <I_98__SUB_c2_c0+0x2>
    21f2:	40 1b       	sub	r20, r16
    21f4:	51 0b       	sbc	r21, r17
    21f6:	5f b6       	in	r5, 0x3f	; 63
    21f8:	01 96       	adiw	r24, 0x01	; 1
    21fa:	f8 94       	cli
    21fc:	2e bc       	out	0x2e, r2	; 46
    21fe:	6e b4       	in	r6, 0x2e	; 46
    2200:	78 94       	sei
    2202:	67 9c       	mul	r6, r7
    2204:	f0 01       	movw	r30, r0
    2206:	f3 95       	inc	r31
    2208:	09 94       	ijmp

0000220a <I_99__SUB_c2_c1>:
    220a:	00 c0       	rjmp	.+0      	; 0x220c <I_99__SUB_c2_c1+0x2>
    220c:	42 1b       	sub	r20, r18
    220e:	53 0b       	sbc	r21, r19
    2210:	5f b6       	in	r5, 0x3f	; 63
    2212:	01 96       	adiw	r24, 0x01	; 1
    2214:	f8 94       	cli
    2216:	2e bc       	out	0x2e, r2	; 46
    2218:	6e b4       	in	r6, 0x2e	; 46
    221a:	78 94       	sei
    221c:	67 9c       	mul	r6, r7
    221e:	f0 01       	movw	r30, r0
    2220:	f3 95       	inc	r31
    2222:	09 94       	ijmp

00002224 <I_9A__SUB_c2_c2>:
    2224:	00 c0       	rjmp	.+0      	; 0x2226 <I_9A__SUB_c2_c2+0x2>
    2226:	44 1b       	sub	r20, r20
    2228:	55 0b       	sbc	r21, r21
    222a:	5f b6       	in	r5, 0x3f	; 63
    222c:	01 96       	adiw	r24, 0x01	; 1
    222e:	f8 94       	cli
    2230:	2e bc       	out	0x2e, r2	; 46
    2232:	6e b4       	in	r6, 0x2e	; 46
    2234:	78 94       	sei
    2236:	67 9c       	mul	r6, r7
    2238:	f0 01       	movw	r30, r0
    223a:	f3 95       	inc	r31
    223c:	09 94       	ijmp

0000223e <I_9B__SUB_c2_c3>:
    223e:	00 c0       	rjmp	.+0      	; 0x2240 <I_9B__SUB_c2_c3+0x2>
    2240:	46 1b       	sub	r20, r22
    2242:	57 0b       	sbc	r21, r23
    2244:	5f b6       	in	r5, 0x3f	; 63
    2246:	01 96       	adiw	r24, 0x01	; 1
    2248:	f8 94       	cli
    224a:	2e bc       	out	0x2e, r2	; 46
    224c:	6e b4       	in	r6, 0x2e	; 46
    224e:	78 94       	sei
    2250:	67 9c       	mul	r6, r7
    2252:	f0 01       	movw	r30, r0
    2254:	f3 95       	inc	r31
    2256:	09 94       	ijmp

00002258 <I_9C__SUB_c3_c0>:
    2258:	00 c0       	rjmp	.+0      	; 0x225a <I_9C__SUB_c3_c0+0x2>
    225a:	60 1b       	sub	r22, r16
    225c:	71 0b       	sbc	r23, r17
    225e:	5f b6       	in	r5, 0x3f	; 63
    2260:	01 96       	adiw	r24, 0x01	; 1
    2262:	f8 94       	cli
    2264:	2e bc       	out	0x2e, r2	; 46
    2266:	6e b4       	in	r6, 0x2e	; 46
    2268:	78 94       	sei
    226a:	67 9c       	mul	r6, r7
    226c:	f0 01       	movw	r30, r0
    226e:	f3 95       	inc	r31
    2270:	09 94       	ijmp

00002272 <I_9D__SUB_c3_c1>:
    2272:	00 c0       	rjmp	.+0      	; 0x2274 <I_9D__SUB_c3_c1+0x2>
    2274:	62 1b       	sub	r22, r18
    2276:	73 0b       	sbc	r23, r19
    2278:	5f b6       	in	r5, 0x3f	; 63
    227a:	01 96       	adiw	r24, 0x01	; 1
    227c:	f8 94       	cli
    227e:	2e bc       	out	0x2e, r2	; 46
    2280:	6e b4       	in	r6, 0x2e	; 46
    2282:	78 94       	sei
    2284:	67 9c       	mul	r6, r7
    2286:	f0 01       	movw	r30, r0
    2288:	f3 95       	inc	r31
    228a:	09 94       	ijmp

0000228c <I_9E__SUB_c3_c2>:
    228c:	00 c0       	rjmp	.+0      	; 0x228e <I_9E__SUB_c3_c2+0x2>
    228e:	64 1b       	sub	r22, r20
    2290:	75 0b       	sbc	r23, r21
    2292:	5f b6       	in	r5, 0x3f	; 63
    2294:	01 96       	adiw	r24, 0x01	; 1
    2296:	f8 94       	cli
    2298:	2e bc       	out	0x2e, r2	; 46
    229a:	6e b4       	in	r6, 0x2e	; 46
    229c:	78 94       	sei
    229e:	67 9c       	mul	r6, r7
    22a0:	f0 01       	movw	r30, r0
    22a2:	f3 95       	inc	r31
    22a4:	09 94       	ijmp

000022a6 <I_9F__SUB_c3_c3>:
    22a6:	00 c0       	rjmp	.+0      	; 0x22a8 <I_9F__SUB_c3_c3+0x2>
    22a8:	66 1b       	sub	r22, r22
    22aa:	77 0b       	sbc	r23, r23
    22ac:	5f b6       	in	r5, 0x3f	; 63
    22ae:	01 96       	adiw	r24, 0x01	; 1
    22b0:	f8 94       	cli
    22b2:	2e bc       	out	0x2e, r2	; 46
    22b4:	6e b4       	in	r6, 0x2e	; 46
    22b6:	78 94       	sei
    22b8:	67 9c       	mul	r6, r7
    22ba:	f0 01       	movw	r30, r0
    22bc:	f3 95       	inc	r31
    22be:	09 94       	ijmp
