
interp.elf:     file format elf32-avr


Disassembly of section .text:

00000000 <__vectors>:
       0:	0c 94 41 00 	jmp	0x82	; 0x82 <reset_handler>
       4:	0c 94 40 00 	jmp	0x80	; 0x80 <default_isr>
       8:	0c 94 40 00 	jmp	0x80	; 0x80 <default_isr>
       c:	0c 94 40 00 	jmp	0x80	; 0x80 <default_isr>
      10:	0c 94 40 00 	jmp	0x80	; 0x80 <default_isr>
      14:	0c 94 40 00 	jmp	0x80	; 0x80 <default_isr>
      18:	0c 94 40 00 	jmp	0x80	; 0x80 <default_isr>
      1c:	0c 94 40 00 	jmp	0x80	; 0x80 <default_isr>
      20:	0c 94 40 00 	jmp	0x80	; 0x80 <default_isr>
      24:	0c 94 40 00 	jmp	0x80	; 0x80 <default_isr>
      28:	0c 94 40 00 	jmp	0x80	; 0x80 <default_isr>
      2c:	0c 94 40 00 	jmp	0x80	; 0x80 <default_isr>
      30:	0c 94 40 00 	jmp	0x80	; 0x80 <default_isr>
      34:	0c 94 40 00 	jmp	0x80	; 0x80 <default_isr>
      38:	0c 94 40 00 	jmp	0x80	; 0x80 <default_isr>
      3c:	0c 94 40 00 	jmp	0x80	; 0x80 <default_isr>
      40:	0c 94 40 00 	jmp	0x80	; 0x80 <default_isr>
      44:	0c 94 40 00 	jmp	0x80	; 0x80 <default_isr>
      48:	0c 94 40 00 	jmp	0x80	; 0x80 <default_isr>
      4c:	0c 94 40 00 	jmp	0x80	; 0x80 <default_isr>
      50:	0c 94 40 00 	jmp	0x80	; 0x80 <default_isr>
      54:	0c 94 40 00 	jmp	0x80	; 0x80 <default_isr>
      58:	0c 94 40 00 	jmp	0x80	; 0x80 <default_isr>
      5c:	0c 94 40 00 	jmp	0x80	; 0x80 <default_isr>
      60:	0c 94 40 00 	jmp	0x80	; 0x80 <default_isr>
      64:	0c 94 40 00 	jmp	0x80	; 0x80 <default_isr>
      68:	0c 94 40 00 	jmp	0x80	; 0x80 <default_isr>
      6c:	0c 94 40 00 	jmp	0x80	; 0x80 <default_isr>
      70:	0c 94 40 00 	jmp	0x80	; 0x80 <default_isr>
      74:	0c 94 40 00 	jmp	0x80	; 0x80 <default_isr>
      78:	0c 94 40 00 	jmp	0x80	; 0x80 <default_isr>
      7c:	0c 94 40 00 	jmp	0x80	; 0x80 <default_isr>

00000080 <default_isr>:
      80:	ff cf       	rjmp	.-2      	; 0x80 <default_isr>

00000082 <reset_handler>:
      82:	22 24       	eor	r2, r2
      84:	a0 e2       	ldi	r26, 0x20	; 32
      86:	7a 2e       	mov	r7, r26
      88:	c0 e0       	ldi	r28, 0x00	; 0
      8a:	da e0       	ldi	r29, 0x0A	; 10
      8c:	55 24       	eor	r5, r5
      8e:	2a bc       	out	0x2a, r2	; 42
      90:	2b bc       	out	0x2b, r2	; 43
      92:	78 94       	sei

00000094 <reset_loop>:
      94:	ff cf       	rjmp	.-2      	; 0x94 <reset_loop>
	...

00000200 <abvm_interp>:
     200:	c8 95       	lpm
     202:	00 27       	eor	r16, r16
     204:	11 27       	eor	r17, r17
     206:	01 96       	adiw	r24, 0x01	; 1
     208:	f8 94       	cli
     20a:	2e bc       	out	0x2e, r2	; 46
     20c:	6e b4       	in	r6, 0x2e	; 46
     20e:	78 94       	sei
     210:	67 9c       	mul	r6, r7
     212:	f0 01       	movw	r30, r0
     214:	f3 95       	inc	r31
     216:	09 94       	ijmp
	...

00000240 <I_01__MOV_c0_c1>:
     240:	00 c0       	rjmp	.+0      	; 0x242 <I_01__MOV_c0_c1+0x2>
     242:	00 c0       	rjmp	.+0      	; 0x244 <I_01__MOV_c0_c1+0x4>
     244:	89 01       	movw	r16, r18
     246:	01 96       	adiw	r24, 0x01	; 1
     248:	f8 94       	cli
     24a:	2e bc       	out	0x2e, r2	; 46
     24c:	6e b4       	in	r6, 0x2e	; 46
     24e:	78 94       	sei
     250:	67 9c       	mul	r6, r7
     252:	f0 01       	movw	r30, r0
     254:	f3 95       	inc	r31
     256:	09 94       	ijmp
	...

00000280 <I_02__MOV_c0_c2>:
     280:	00 c0       	rjmp	.+0      	; 0x282 <I_02__MOV_c0_c2+0x2>
     282:	00 c0       	rjmp	.+0      	; 0x284 <I_02__MOV_c0_c2+0x4>
     284:	8a 01       	movw	r16, r20
     286:	01 96       	adiw	r24, 0x01	; 1
     288:	f8 94       	cli
     28a:	2e bc       	out	0x2e, r2	; 46
     28c:	6e b4       	in	r6, 0x2e	; 46
     28e:	78 94       	sei
     290:	67 9c       	mul	r6, r7
     292:	f0 01       	movw	r30, r0
     294:	f3 95       	inc	r31
     296:	09 94       	ijmp
	...

000002c0 <I_03__MOV_c0_c3>:
     2c0:	00 c0       	rjmp	.+0      	; 0x2c2 <I_03__MOV_c0_c3+0x2>
     2c2:	00 c0       	rjmp	.+0      	; 0x2c4 <I_03__MOV_c0_c3+0x4>
     2c4:	8b 01       	movw	r16, r22
     2c6:	01 96       	adiw	r24, 0x01	; 1
     2c8:	f8 94       	cli
     2ca:	2e bc       	out	0x2e, r2	; 46
     2cc:	6e b4       	in	r6, 0x2e	; 46
     2ce:	78 94       	sei
     2d0:	67 9c       	mul	r6, r7
     2d2:	f0 01       	movw	r30, r0
     2d4:	f3 95       	inc	r31
     2d6:	09 94       	ijmp
	...

00000300 <I_04__MOV_c1_c0>:
     300:	00 c0       	rjmp	.+0      	; 0x302 <I_04__MOV_c1_c0+0x2>
     302:	00 c0       	rjmp	.+0      	; 0x304 <I_04__MOV_c1_c0+0x4>
     304:	98 01       	movw	r18, r16
     306:	01 96       	adiw	r24, 0x01	; 1
     308:	f8 94       	cli
     30a:	2e bc       	out	0x2e, r2	; 46
     30c:	6e b4       	in	r6, 0x2e	; 46
     30e:	78 94       	sei
     310:	67 9c       	mul	r6, r7
     312:	f0 01       	movw	r30, r0
     314:	f3 95       	inc	r31
     316:	09 94       	ijmp
	...

00000340 <I_05__CLR_c1>:
     340:	c8 95       	lpm
     342:	22 27       	eor	r18, r18
     344:	33 27       	eor	r19, r19
     346:	01 96       	adiw	r24, 0x01	; 1
     348:	f8 94       	cli
     34a:	2e bc       	out	0x2e, r2	; 46
     34c:	6e b4       	in	r6, 0x2e	; 46
     34e:	78 94       	sei
     350:	67 9c       	mul	r6, r7
     352:	f0 01       	movw	r30, r0
     354:	f3 95       	inc	r31
     356:	09 94       	ijmp
	...

00000380 <I_06__MOV_c1_c2>:
     380:	00 c0       	rjmp	.+0      	; 0x382 <I_06__MOV_c1_c2+0x2>
     382:	00 c0       	rjmp	.+0      	; 0x384 <I_06__MOV_c1_c2+0x4>
     384:	9a 01       	movw	r18, r20
     386:	01 96       	adiw	r24, 0x01	; 1
     388:	f8 94       	cli
     38a:	2e bc       	out	0x2e, r2	; 46
     38c:	6e b4       	in	r6, 0x2e	; 46
     38e:	78 94       	sei
     390:	67 9c       	mul	r6, r7
     392:	f0 01       	movw	r30, r0
     394:	f3 95       	inc	r31
     396:	09 94       	ijmp
	...

000003c0 <I_07__MOV_c1_c3>:
     3c0:	00 c0       	rjmp	.+0      	; 0x3c2 <I_07__MOV_c1_c3+0x2>
     3c2:	00 c0       	rjmp	.+0      	; 0x3c4 <I_07__MOV_c1_c3+0x4>
     3c4:	9b 01       	movw	r18, r22
     3c6:	01 96       	adiw	r24, 0x01	; 1
     3c8:	f8 94       	cli
     3ca:	2e bc       	out	0x2e, r2	; 46
     3cc:	6e b4       	in	r6, 0x2e	; 46
     3ce:	78 94       	sei
     3d0:	67 9c       	mul	r6, r7
     3d2:	f0 01       	movw	r30, r0
     3d4:	f3 95       	inc	r31
     3d6:	09 94       	ijmp
	...

00000400 <I_08__MOV_c2_c0>:
     400:	00 c0       	rjmp	.+0      	; 0x402 <I_08__MOV_c2_c0+0x2>
     402:	00 c0       	rjmp	.+0      	; 0x404 <I_08__MOV_c2_c0+0x4>
     404:	a8 01       	movw	r20, r16
     406:	01 96       	adiw	r24, 0x01	; 1
     408:	f8 94       	cli
     40a:	2e bc       	out	0x2e, r2	; 46
     40c:	6e b4       	in	r6, 0x2e	; 46
     40e:	78 94       	sei
     410:	67 9c       	mul	r6, r7
     412:	f0 01       	movw	r30, r0
     414:	f3 95       	inc	r31
     416:	09 94       	ijmp
	...

00000440 <I_09__MOV_c2_c1>:
     440:	00 c0       	rjmp	.+0      	; 0x442 <I_09__MOV_c2_c1+0x2>
     442:	00 c0       	rjmp	.+0      	; 0x444 <I_09__MOV_c2_c1+0x4>
     444:	a9 01       	movw	r20, r18
     446:	01 96       	adiw	r24, 0x01	; 1
     448:	f8 94       	cli
     44a:	2e bc       	out	0x2e, r2	; 46
     44c:	6e b4       	in	r6, 0x2e	; 46
     44e:	78 94       	sei
     450:	67 9c       	mul	r6, r7
     452:	f0 01       	movw	r30, r0
     454:	f3 95       	inc	r31
     456:	09 94       	ijmp
	...

00000480 <I_0A__CLR_c2>:
     480:	c8 95       	lpm
     482:	44 27       	eor	r20, r20
     484:	55 27       	eor	r21, r21
     486:	01 96       	adiw	r24, 0x01	; 1
     488:	f8 94       	cli
     48a:	2e bc       	out	0x2e, r2	; 46
     48c:	6e b4       	in	r6, 0x2e	; 46
     48e:	78 94       	sei
     490:	67 9c       	mul	r6, r7
     492:	f0 01       	movw	r30, r0
     494:	f3 95       	inc	r31
     496:	09 94       	ijmp
	...

000004c0 <I_0B__MOV_c2_c3>:
     4c0:	00 c0       	rjmp	.+0      	; 0x4c2 <I_0B__MOV_c2_c3+0x2>
     4c2:	00 c0       	rjmp	.+0      	; 0x4c4 <I_0B__MOV_c2_c3+0x4>
     4c4:	ab 01       	movw	r20, r22
     4c6:	01 96       	adiw	r24, 0x01	; 1
     4c8:	f8 94       	cli
     4ca:	2e bc       	out	0x2e, r2	; 46
     4cc:	6e b4       	in	r6, 0x2e	; 46
     4ce:	78 94       	sei
     4d0:	67 9c       	mul	r6, r7
     4d2:	f0 01       	movw	r30, r0
     4d4:	f3 95       	inc	r31
     4d6:	09 94       	ijmp
	...

00000500 <I_0C__MOV_c3_c0>:
     500:	00 c0       	rjmp	.+0      	; 0x502 <I_0C__MOV_c3_c0+0x2>
     502:	00 c0       	rjmp	.+0      	; 0x504 <I_0C__MOV_c3_c0+0x4>
     504:	b8 01       	movw	r22, r16
     506:	01 96       	adiw	r24, 0x01	; 1
     508:	f8 94       	cli
     50a:	2e bc       	out	0x2e, r2	; 46
     50c:	6e b4       	in	r6, 0x2e	; 46
     50e:	78 94       	sei
     510:	67 9c       	mul	r6, r7
     512:	f0 01       	movw	r30, r0
     514:	f3 95       	inc	r31
     516:	09 94       	ijmp
	...

00000540 <I_0D__MOV_c3_c1>:
     540:	00 c0       	rjmp	.+0      	; 0x542 <I_0D__MOV_c3_c1+0x2>
     542:	00 c0       	rjmp	.+0      	; 0x544 <I_0D__MOV_c3_c1+0x4>
     544:	b9 01       	movw	r22, r18
     546:	01 96       	adiw	r24, 0x01	; 1
     548:	f8 94       	cli
     54a:	2e bc       	out	0x2e, r2	; 46
     54c:	6e b4       	in	r6, 0x2e	; 46
     54e:	78 94       	sei
     550:	67 9c       	mul	r6, r7
     552:	f0 01       	movw	r30, r0
     554:	f3 95       	inc	r31
     556:	09 94       	ijmp
	...

00000580 <I_0E__MOV_c3_c2>:
     580:	00 c0       	rjmp	.+0      	; 0x582 <I_0E__MOV_c3_c2+0x2>
     582:	00 c0       	rjmp	.+0      	; 0x584 <I_0E__MOV_c3_c2+0x4>
     584:	ba 01       	movw	r22, r20
     586:	01 96       	adiw	r24, 0x01	; 1
     588:	f8 94       	cli
     58a:	2e bc       	out	0x2e, r2	; 46
     58c:	6e b4       	in	r6, 0x2e	; 46
     58e:	78 94       	sei
     590:	67 9c       	mul	r6, r7
     592:	f0 01       	movw	r30, r0
     594:	f3 95       	inc	r31
     596:	09 94       	ijmp
	...

000005c0 <I_0F__CLR_c3>:
     5c0:	c8 95       	lpm
     5c2:	66 27       	eor	r22, r22
     5c4:	77 27       	eor	r23, r23
     5c6:	01 96       	adiw	r24, 0x01	; 1
     5c8:	f8 94       	cli
     5ca:	2e bc       	out	0x2e, r2	; 46
     5cc:	6e b4       	in	r6, 0x2e	; 46
     5ce:	78 94       	sei
     5d0:	67 9c       	mul	r6, r7
     5d2:	f0 01       	movw	r30, r0
     5d4:	f3 95       	inc	r31
     5d6:	09 94       	ijmp
	...

00000600 <I_10__LD8_c0_c0>:
     600:	00 00       	nop
     602:	d8 01       	movw	r26, r16
     604:	0c 91       	ld	r16, X
     606:	11 27       	eor	r17, r17
     608:	01 96       	adiw	r24, 0x01	; 1
     60a:	f8 94       	cli
     60c:	2e bc       	out	0x2e, r2	; 46
     60e:	6e b4       	in	r6, 0x2e	; 46
     610:	78 94       	sei
     612:	67 9c       	mul	r6, r7
     614:	f0 01       	movw	r30, r0
     616:	f3 95       	inc	r31
     618:	09 94       	ijmp
	...

00000640 <I_11__LD8_c0_c1>:
     640:	00 00       	nop
     642:	d9 01       	movw	r26, r18
     644:	0c 91       	ld	r16, X
     646:	11 27       	eor	r17, r17
     648:	01 96       	adiw	r24, 0x01	; 1
     64a:	f8 94       	cli
     64c:	2e bc       	out	0x2e, r2	; 46
     64e:	6e b4       	in	r6, 0x2e	; 46
     650:	78 94       	sei
     652:	67 9c       	mul	r6, r7
     654:	f0 01       	movw	r30, r0
     656:	f3 95       	inc	r31
     658:	09 94       	ijmp
	...

00000680 <I_12__LD8_c0_c2>:
     680:	00 00       	nop
     682:	da 01       	movw	r26, r20
     684:	0c 91       	ld	r16, X
     686:	11 27       	eor	r17, r17
     688:	01 96       	adiw	r24, 0x01	; 1
     68a:	f8 94       	cli
     68c:	2e bc       	out	0x2e, r2	; 46
     68e:	6e b4       	in	r6, 0x2e	; 46
     690:	78 94       	sei
     692:	67 9c       	mul	r6, r7
     694:	f0 01       	movw	r30, r0
     696:	f3 95       	inc	r31
     698:	09 94       	ijmp
	...

000006c0 <I_13__LD8_c0_c3>:
     6c0:	00 00       	nop
     6c2:	db 01       	movw	r26, r22
     6c4:	0c 91       	ld	r16, X
     6c6:	11 27       	eor	r17, r17
     6c8:	01 96       	adiw	r24, 0x01	; 1
     6ca:	f8 94       	cli
     6cc:	2e bc       	out	0x2e, r2	; 46
     6ce:	6e b4       	in	r6, 0x2e	; 46
     6d0:	78 94       	sei
     6d2:	67 9c       	mul	r6, r7
     6d4:	f0 01       	movw	r30, r0
     6d6:	f3 95       	inc	r31
     6d8:	09 94       	ijmp
	...

00000700 <I_14__LD8_c1_c0>:
     700:	00 00       	nop
     702:	d8 01       	movw	r26, r16
     704:	2c 91       	ld	r18, X
     706:	33 27       	eor	r19, r19
     708:	01 96       	adiw	r24, 0x01	; 1
     70a:	f8 94       	cli
     70c:	2e bc       	out	0x2e, r2	; 46
     70e:	6e b4       	in	r6, 0x2e	; 46
     710:	78 94       	sei
     712:	67 9c       	mul	r6, r7
     714:	f0 01       	movw	r30, r0
     716:	f3 95       	inc	r31
     718:	09 94       	ijmp
	...

00000740 <I_15__LD8_c1_c1>:
     740:	00 00       	nop
     742:	d9 01       	movw	r26, r18
     744:	2c 91       	ld	r18, X
     746:	33 27       	eor	r19, r19
     748:	01 96       	adiw	r24, 0x01	; 1
     74a:	f8 94       	cli
     74c:	2e bc       	out	0x2e, r2	; 46
     74e:	6e b4       	in	r6, 0x2e	; 46
     750:	78 94       	sei
     752:	67 9c       	mul	r6, r7
     754:	f0 01       	movw	r30, r0
     756:	f3 95       	inc	r31
     758:	09 94       	ijmp
	...

00000780 <I_16__LD8_c1_c2>:
     780:	00 00       	nop
     782:	da 01       	movw	r26, r20
     784:	2c 91       	ld	r18, X
     786:	33 27       	eor	r19, r19
     788:	01 96       	adiw	r24, 0x01	; 1
     78a:	f8 94       	cli
     78c:	2e bc       	out	0x2e, r2	; 46
     78e:	6e b4       	in	r6, 0x2e	; 46
     790:	78 94       	sei
     792:	67 9c       	mul	r6, r7
     794:	f0 01       	movw	r30, r0
     796:	f3 95       	inc	r31
     798:	09 94       	ijmp
	...

000007c0 <I_17__LD8_c1_c3>:
     7c0:	00 00       	nop
     7c2:	db 01       	movw	r26, r22
     7c4:	2c 91       	ld	r18, X
     7c6:	33 27       	eor	r19, r19
     7c8:	01 96       	adiw	r24, 0x01	; 1
     7ca:	f8 94       	cli
     7cc:	2e bc       	out	0x2e, r2	; 46
     7ce:	6e b4       	in	r6, 0x2e	; 46
     7d0:	78 94       	sei
     7d2:	67 9c       	mul	r6, r7
     7d4:	f0 01       	movw	r30, r0
     7d6:	f3 95       	inc	r31
     7d8:	09 94       	ijmp
	...

00000800 <I_18__LD8_c2_c0>:
     800:	00 00       	nop
     802:	d8 01       	movw	r26, r16
     804:	4c 91       	ld	r20, X
     806:	55 27       	eor	r21, r21
     808:	01 96       	adiw	r24, 0x01	; 1
     80a:	f8 94       	cli
     80c:	2e bc       	out	0x2e, r2	; 46
     80e:	6e b4       	in	r6, 0x2e	; 46
     810:	78 94       	sei
     812:	67 9c       	mul	r6, r7
     814:	f0 01       	movw	r30, r0
     816:	f3 95       	inc	r31
     818:	09 94       	ijmp
	...

00000840 <I_19__LD8_c2_c1>:
     840:	00 00       	nop
     842:	d9 01       	movw	r26, r18
     844:	4c 91       	ld	r20, X
     846:	55 27       	eor	r21, r21
     848:	01 96       	adiw	r24, 0x01	; 1
     84a:	f8 94       	cli
     84c:	2e bc       	out	0x2e, r2	; 46
     84e:	6e b4       	in	r6, 0x2e	; 46
     850:	78 94       	sei
     852:	67 9c       	mul	r6, r7
     854:	f0 01       	movw	r30, r0
     856:	f3 95       	inc	r31
     858:	09 94       	ijmp
	...

00000880 <I_1A__LD8_c2_c2>:
     880:	00 00       	nop
     882:	da 01       	movw	r26, r20
     884:	4c 91       	ld	r20, X
     886:	55 27       	eor	r21, r21
     888:	01 96       	adiw	r24, 0x01	; 1
     88a:	f8 94       	cli
     88c:	2e bc       	out	0x2e, r2	; 46
     88e:	6e b4       	in	r6, 0x2e	; 46
     890:	78 94       	sei
     892:	67 9c       	mul	r6, r7
     894:	f0 01       	movw	r30, r0
     896:	f3 95       	inc	r31
     898:	09 94       	ijmp
	...

000008c0 <I_1B__LD8_c2_c3>:
     8c0:	00 00       	nop
     8c2:	db 01       	movw	r26, r22
     8c4:	4c 91       	ld	r20, X
     8c6:	55 27       	eor	r21, r21
     8c8:	01 96       	adiw	r24, 0x01	; 1
     8ca:	f8 94       	cli
     8cc:	2e bc       	out	0x2e, r2	; 46
     8ce:	6e b4       	in	r6, 0x2e	; 46
     8d0:	78 94       	sei
     8d2:	67 9c       	mul	r6, r7
     8d4:	f0 01       	movw	r30, r0
     8d6:	f3 95       	inc	r31
     8d8:	09 94       	ijmp
	...

00000900 <I_1C__LD8_c3_c0>:
     900:	00 00       	nop
     902:	d8 01       	movw	r26, r16
     904:	6c 91       	ld	r22, X
     906:	77 27       	eor	r23, r23
     908:	01 96       	adiw	r24, 0x01	; 1
     90a:	f8 94       	cli
     90c:	2e bc       	out	0x2e, r2	; 46
     90e:	6e b4       	in	r6, 0x2e	; 46
     910:	78 94       	sei
     912:	67 9c       	mul	r6, r7
     914:	f0 01       	movw	r30, r0
     916:	f3 95       	inc	r31
     918:	09 94       	ijmp
	...

00000940 <I_1D__LD8_c3_c1>:
     940:	00 00       	nop
     942:	d9 01       	movw	r26, r18
     944:	6c 91       	ld	r22, X
     946:	77 27       	eor	r23, r23
     948:	01 96       	adiw	r24, 0x01	; 1
     94a:	f8 94       	cli
     94c:	2e bc       	out	0x2e, r2	; 46
     94e:	6e b4       	in	r6, 0x2e	; 46
     950:	78 94       	sei
     952:	67 9c       	mul	r6, r7
     954:	f0 01       	movw	r30, r0
     956:	f3 95       	inc	r31
     958:	09 94       	ijmp
	...

00000980 <I_1E__LD8_c3_c2>:
     980:	00 00       	nop
     982:	da 01       	movw	r26, r20
     984:	6c 91       	ld	r22, X
     986:	77 27       	eor	r23, r23
     988:	01 96       	adiw	r24, 0x01	; 1
     98a:	f8 94       	cli
     98c:	2e bc       	out	0x2e, r2	; 46
     98e:	6e b4       	in	r6, 0x2e	; 46
     990:	78 94       	sei
     992:	67 9c       	mul	r6, r7
     994:	f0 01       	movw	r30, r0
     996:	f3 95       	inc	r31
     998:	09 94       	ijmp
	...

000009c0 <I_1F__LD8_c3_c3>:
     9c0:	00 00       	nop
     9c2:	db 01       	movw	r26, r22
     9c4:	6c 91       	ld	r22, X
     9c6:	77 27       	eor	r23, r23
     9c8:	01 96       	adiw	r24, 0x01	; 1
     9ca:	f8 94       	cli
     9cc:	2e bc       	out	0x2e, r2	; 46
     9ce:	6e b4       	in	r6, 0x2e	; 46
     9d0:	78 94       	sei
     9d2:	67 9c       	mul	r6, r7
     9d4:	f0 01       	movw	r30, r0
     9d6:	f3 95       	inc	r31
     9d8:	09 94       	ijmp
	...

00000a00 <I_20__ST8_c0_c0>:
     a00:	00 c0       	rjmp	.+0      	; 0xa02 <I_20__ST8_c0_c0+0x2>
     a02:	d8 01       	movw	r26, r16
     a04:	0c 93       	st	X, r16
     a06:	01 96       	adiw	r24, 0x01	; 1
     a08:	f8 94       	cli
     a0a:	2e bc       	out	0x2e, r2	; 46
     a0c:	6e b4       	in	r6, 0x2e	; 46
     a0e:	78 94       	sei
     a10:	67 9c       	mul	r6, r7
     a12:	f0 01       	movw	r30, r0
     a14:	f3 95       	inc	r31
     a16:	09 94       	ijmp
	...

00000a40 <I_21__ST8_c0_c1>:
     a40:	00 c0       	rjmp	.+0      	; 0xa42 <I_21__ST8_c0_c1+0x2>
     a42:	d8 01       	movw	r26, r16
     a44:	2c 93       	st	X, r18
     a46:	01 96       	adiw	r24, 0x01	; 1
     a48:	f8 94       	cli
     a4a:	2e bc       	out	0x2e, r2	; 46
     a4c:	6e b4       	in	r6, 0x2e	; 46
     a4e:	78 94       	sei
     a50:	67 9c       	mul	r6, r7
     a52:	f0 01       	movw	r30, r0
     a54:	f3 95       	inc	r31
     a56:	09 94       	ijmp
	...

00000a80 <I_22__ST8_c0_c2>:
     a80:	00 c0       	rjmp	.+0      	; 0xa82 <I_22__ST8_c0_c2+0x2>
     a82:	d8 01       	movw	r26, r16
     a84:	4c 93       	st	X, r20
     a86:	01 96       	adiw	r24, 0x01	; 1
     a88:	f8 94       	cli
     a8a:	2e bc       	out	0x2e, r2	; 46
     a8c:	6e b4       	in	r6, 0x2e	; 46
     a8e:	78 94       	sei
     a90:	67 9c       	mul	r6, r7
     a92:	f0 01       	movw	r30, r0
     a94:	f3 95       	inc	r31
     a96:	09 94       	ijmp
	...

00000ac0 <I_23__ST8_c0_c3>:
     ac0:	00 c0       	rjmp	.+0      	; 0xac2 <I_23__ST8_c0_c3+0x2>
     ac2:	d8 01       	movw	r26, r16
     ac4:	6c 93       	st	X, r22
     ac6:	01 96       	adiw	r24, 0x01	; 1
     ac8:	f8 94       	cli
     aca:	2e bc       	out	0x2e, r2	; 46
     acc:	6e b4       	in	r6, 0x2e	; 46
     ace:	78 94       	sei
     ad0:	67 9c       	mul	r6, r7
     ad2:	f0 01       	movw	r30, r0
     ad4:	f3 95       	inc	r31
     ad6:	09 94       	ijmp
	...

00000b00 <I_24__ST8_c1_c0>:
     b00:	00 c0       	rjmp	.+0      	; 0xb02 <I_24__ST8_c1_c0+0x2>
     b02:	d9 01       	movw	r26, r18
     b04:	0c 93       	st	X, r16
     b06:	01 96       	adiw	r24, 0x01	; 1
     b08:	f8 94       	cli
     b0a:	2e bc       	out	0x2e, r2	; 46
     b0c:	6e b4       	in	r6, 0x2e	; 46
     b0e:	78 94       	sei
     b10:	67 9c       	mul	r6, r7
     b12:	f0 01       	movw	r30, r0
     b14:	f3 95       	inc	r31
     b16:	09 94       	ijmp
	...

00000b40 <I_25__ST8_c1_c1>:
     b40:	00 c0       	rjmp	.+0      	; 0xb42 <I_25__ST8_c1_c1+0x2>
     b42:	d9 01       	movw	r26, r18
     b44:	2c 93       	st	X, r18
     b46:	01 96       	adiw	r24, 0x01	; 1
     b48:	f8 94       	cli
     b4a:	2e bc       	out	0x2e, r2	; 46
     b4c:	6e b4       	in	r6, 0x2e	; 46
     b4e:	78 94       	sei
     b50:	67 9c       	mul	r6, r7
     b52:	f0 01       	movw	r30, r0
     b54:	f3 95       	inc	r31
     b56:	09 94       	ijmp
	...

00000b80 <I_26__ST8_c1_c2>:
     b80:	00 c0       	rjmp	.+0      	; 0xb82 <I_26__ST8_c1_c2+0x2>
     b82:	d9 01       	movw	r26, r18
     b84:	4c 93       	st	X, r20
     b86:	01 96       	adiw	r24, 0x01	; 1
     b88:	f8 94       	cli
     b8a:	2e bc       	out	0x2e, r2	; 46
     b8c:	6e b4       	in	r6, 0x2e	; 46
     b8e:	78 94       	sei
     b90:	67 9c       	mul	r6, r7
     b92:	f0 01       	movw	r30, r0
     b94:	f3 95       	inc	r31
     b96:	09 94       	ijmp
	...

00000bc0 <I_27__ST8_c1_c3>:
     bc0:	00 c0       	rjmp	.+0      	; 0xbc2 <I_27__ST8_c1_c3+0x2>
     bc2:	d9 01       	movw	r26, r18
     bc4:	6c 93       	st	X, r22
     bc6:	01 96       	adiw	r24, 0x01	; 1
     bc8:	f8 94       	cli
     bca:	2e bc       	out	0x2e, r2	; 46
     bcc:	6e b4       	in	r6, 0x2e	; 46
     bce:	78 94       	sei
     bd0:	67 9c       	mul	r6, r7
     bd2:	f0 01       	movw	r30, r0
     bd4:	f3 95       	inc	r31
     bd6:	09 94       	ijmp
	...

00000c00 <I_28__ST8_c2_c0>:
     c00:	00 c0       	rjmp	.+0      	; 0xc02 <I_28__ST8_c2_c0+0x2>
     c02:	da 01       	movw	r26, r20
     c04:	0c 93       	st	X, r16
     c06:	01 96       	adiw	r24, 0x01	; 1
     c08:	f8 94       	cli
     c0a:	2e bc       	out	0x2e, r2	; 46
     c0c:	6e b4       	in	r6, 0x2e	; 46
     c0e:	78 94       	sei
     c10:	67 9c       	mul	r6, r7
     c12:	f0 01       	movw	r30, r0
     c14:	f3 95       	inc	r31
     c16:	09 94       	ijmp
	...

00000c40 <I_29__ST8_c2_c1>:
     c40:	00 c0       	rjmp	.+0      	; 0xc42 <I_29__ST8_c2_c1+0x2>
     c42:	da 01       	movw	r26, r20
     c44:	2c 93       	st	X, r18
     c46:	01 96       	adiw	r24, 0x01	; 1
     c48:	f8 94       	cli
     c4a:	2e bc       	out	0x2e, r2	; 46
     c4c:	6e b4       	in	r6, 0x2e	; 46
     c4e:	78 94       	sei
     c50:	67 9c       	mul	r6, r7
     c52:	f0 01       	movw	r30, r0
     c54:	f3 95       	inc	r31
     c56:	09 94       	ijmp
	...

00000c80 <I_2A__ST8_c2_c2>:
     c80:	00 c0       	rjmp	.+0      	; 0xc82 <I_2A__ST8_c2_c2+0x2>
     c82:	da 01       	movw	r26, r20
     c84:	4c 93       	st	X, r20
     c86:	01 96       	adiw	r24, 0x01	; 1
     c88:	f8 94       	cli
     c8a:	2e bc       	out	0x2e, r2	; 46
     c8c:	6e b4       	in	r6, 0x2e	; 46
     c8e:	78 94       	sei
     c90:	67 9c       	mul	r6, r7
     c92:	f0 01       	movw	r30, r0
     c94:	f3 95       	inc	r31
     c96:	09 94       	ijmp
	...

00000cc0 <I_2B__ST8_c2_c3>:
     cc0:	00 c0       	rjmp	.+0      	; 0xcc2 <I_2B__ST8_c2_c3+0x2>
     cc2:	da 01       	movw	r26, r20
     cc4:	6c 93       	st	X, r22
     cc6:	01 96       	adiw	r24, 0x01	; 1
     cc8:	f8 94       	cli
     cca:	2e bc       	out	0x2e, r2	; 46
     ccc:	6e b4       	in	r6, 0x2e	; 46
     cce:	78 94       	sei
     cd0:	67 9c       	mul	r6, r7
     cd2:	f0 01       	movw	r30, r0
     cd4:	f3 95       	inc	r31
     cd6:	09 94       	ijmp
	...

00000d00 <I_2C__ST8_c3_c0>:
     d00:	00 c0       	rjmp	.+0      	; 0xd02 <I_2C__ST8_c3_c0+0x2>
     d02:	db 01       	movw	r26, r22
     d04:	0c 93       	st	X, r16
     d06:	01 96       	adiw	r24, 0x01	; 1
     d08:	f8 94       	cli
     d0a:	2e bc       	out	0x2e, r2	; 46
     d0c:	6e b4       	in	r6, 0x2e	; 46
     d0e:	78 94       	sei
     d10:	67 9c       	mul	r6, r7
     d12:	f0 01       	movw	r30, r0
     d14:	f3 95       	inc	r31
     d16:	09 94       	ijmp
	...

00000d40 <I_2D__ST8_c3_c1>:
     d40:	00 c0       	rjmp	.+0      	; 0xd42 <I_2D__ST8_c3_c1+0x2>
     d42:	db 01       	movw	r26, r22
     d44:	2c 93       	st	X, r18
     d46:	01 96       	adiw	r24, 0x01	; 1
     d48:	f8 94       	cli
     d4a:	2e bc       	out	0x2e, r2	; 46
     d4c:	6e b4       	in	r6, 0x2e	; 46
     d4e:	78 94       	sei
     d50:	67 9c       	mul	r6, r7
     d52:	f0 01       	movw	r30, r0
     d54:	f3 95       	inc	r31
     d56:	09 94       	ijmp
	...

00000d80 <I_2E__ST8_c3_c2>:
     d80:	00 c0       	rjmp	.+0      	; 0xd82 <I_2E__ST8_c3_c2+0x2>
     d82:	db 01       	movw	r26, r22
     d84:	4c 93       	st	X, r20
     d86:	01 96       	adiw	r24, 0x01	; 1
     d88:	f8 94       	cli
     d8a:	2e bc       	out	0x2e, r2	; 46
     d8c:	6e b4       	in	r6, 0x2e	; 46
     d8e:	78 94       	sei
     d90:	67 9c       	mul	r6, r7
     d92:	f0 01       	movw	r30, r0
     d94:	f3 95       	inc	r31
     d96:	09 94       	ijmp
	...

00000dc0 <I_2F__ST8_c3_c3>:
     dc0:	00 c0       	rjmp	.+0      	; 0xdc2 <I_2F__ST8_c3_c3+0x2>
     dc2:	db 01       	movw	r26, r22
     dc4:	6c 93       	st	X, r22
     dc6:	01 96       	adiw	r24, 0x01	; 1
     dc8:	f8 94       	cli
     dca:	2e bc       	out	0x2e, r2	; 46
     dcc:	6e b4       	in	r6, 0x2e	; 46
     dce:	78 94       	sei
     dd0:	67 9c       	mul	r6, r7
     dd2:	f0 01       	movw	r30, r0
     dd4:	f3 95       	inc	r31
     dd6:	09 94       	ijmp
	...

00000e00 <I_30__LD16_c0_c0>:
     e00:	d8 01       	movw	r26, r16
     e02:	0d 91       	ld	r16, X+
     e04:	1c 91       	ld	r17, X
     e06:	01 96       	adiw	r24, 0x01	; 1
     e08:	f8 94       	cli
     e0a:	2e bc       	out	0x2e, r2	; 46
     e0c:	6e b4       	in	r6, 0x2e	; 46
     e0e:	78 94       	sei
     e10:	67 9c       	mul	r6, r7
     e12:	f0 01       	movw	r30, r0
     e14:	f3 95       	inc	r31
     e16:	09 94       	ijmp
	...

00000e40 <I_31__LD16_c0_c1>:
     e40:	d9 01       	movw	r26, r18
     e42:	0d 91       	ld	r16, X+
     e44:	1c 91       	ld	r17, X
     e46:	01 96       	adiw	r24, 0x01	; 1
     e48:	f8 94       	cli
     e4a:	2e bc       	out	0x2e, r2	; 46
     e4c:	6e b4       	in	r6, 0x2e	; 46
     e4e:	78 94       	sei
     e50:	67 9c       	mul	r6, r7
     e52:	f0 01       	movw	r30, r0
     e54:	f3 95       	inc	r31
     e56:	09 94       	ijmp
	...

00000e80 <I_32__LD16_c0_c2>:
     e80:	da 01       	movw	r26, r20
     e82:	0d 91       	ld	r16, X+
     e84:	1c 91       	ld	r17, X
     e86:	01 96       	adiw	r24, 0x01	; 1
     e88:	f8 94       	cli
     e8a:	2e bc       	out	0x2e, r2	; 46
     e8c:	6e b4       	in	r6, 0x2e	; 46
     e8e:	78 94       	sei
     e90:	67 9c       	mul	r6, r7
     e92:	f0 01       	movw	r30, r0
     e94:	f3 95       	inc	r31
     e96:	09 94       	ijmp
	...

00000ec0 <I_33__LD16_c0_c3>:
     ec0:	db 01       	movw	r26, r22
     ec2:	0d 91       	ld	r16, X+
     ec4:	1c 91       	ld	r17, X
     ec6:	01 96       	adiw	r24, 0x01	; 1
     ec8:	f8 94       	cli
     eca:	2e bc       	out	0x2e, r2	; 46
     ecc:	6e b4       	in	r6, 0x2e	; 46
     ece:	78 94       	sei
     ed0:	67 9c       	mul	r6, r7
     ed2:	f0 01       	movw	r30, r0
     ed4:	f3 95       	inc	r31
     ed6:	09 94       	ijmp
	...

00000f00 <I_34__LD16_c1_c0>:
     f00:	d8 01       	movw	r26, r16
     f02:	2d 91       	ld	r18, X+
     f04:	3c 91       	ld	r19, X
     f06:	01 96       	adiw	r24, 0x01	; 1
     f08:	f8 94       	cli
     f0a:	2e bc       	out	0x2e, r2	; 46
     f0c:	6e b4       	in	r6, 0x2e	; 46
     f0e:	78 94       	sei
     f10:	67 9c       	mul	r6, r7
     f12:	f0 01       	movw	r30, r0
     f14:	f3 95       	inc	r31
     f16:	09 94       	ijmp
	...

00000f40 <I_35__LD16_c1_c1>:
     f40:	d9 01       	movw	r26, r18
     f42:	2d 91       	ld	r18, X+
     f44:	3c 91       	ld	r19, X
     f46:	01 96       	adiw	r24, 0x01	; 1
     f48:	f8 94       	cli
     f4a:	2e bc       	out	0x2e, r2	; 46
     f4c:	6e b4       	in	r6, 0x2e	; 46
     f4e:	78 94       	sei
     f50:	67 9c       	mul	r6, r7
     f52:	f0 01       	movw	r30, r0
     f54:	f3 95       	inc	r31
     f56:	09 94       	ijmp
	...

00000f80 <I_36__LD16_c1_c2>:
     f80:	da 01       	movw	r26, r20
     f82:	2d 91       	ld	r18, X+
     f84:	3c 91       	ld	r19, X
     f86:	01 96       	adiw	r24, 0x01	; 1
     f88:	f8 94       	cli
     f8a:	2e bc       	out	0x2e, r2	; 46
     f8c:	6e b4       	in	r6, 0x2e	; 46
     f8e:	78 94       	sei
     f90:	67 9c       	mul	r6, r7
     f92:	f0 01       	movw	r30, r0
     f94:	f3 95       	inc	r31
     f96:	09 94       	ijmp
	...

00000fc0 <I_37__LD16_c1_c3>:
     fc0:	db 01       	movw	r26, r22
     fc2:	2d 91       	ld	r18, X+
     fc4:	3c 91       	ld	r19, X
     fc6:	01 96       	adiw	r24, 0x01	; 1
     fc8:	f8 94       	cli
     fca:	2e bc       	out	0x2e, r2	; 46
     fcc:	6e b4       	in	r6, 0x2e	; 46
     fce:	78 94       	sei
     fd0:	67 9c       	mul	r6, r7
     fd2:	f0 01       	movw	r30, r0
     fd4:	f3 95       	inc	r31
     fd6:	09 94       	ijmp
	...

00001000 <I_38__LD16_c2_c0>:
    1000:	d8 01       	movw	r26, r16
    1002:	4d 91       	ld	r20, X+
    1004:	5c 91       	ld	r21, X
    1006:	01 96       	adiw	r24, 0x01	; 1
    1008:	f8 94       	cli
    100a:	2e bc       	out	0x2e, r2	; 46
    100c:	6e b4       	in	r6, 0x2e	; 46
    100e:	78 94       	sei
    1010:	67 9c       	mul	r6, r7
    1012:	f0 01       	movw	r30, r0
    1014:	f3 95       	inc	r31
    1016:	09 94       	ijmp
	...

00001040 <I_39__LD16_c2_c1>:
    1040:	d9 01       	movw	r26, r18
    1042:	4d 91       	ld	r20, X+
    1044:	5c 91       	ld	r21, X
    1046:	01 96       	adiw	r24, 0x01	; 1
    1048:	f8 94       	cli
    104a:	2e bc       	out	0x2e, r2	; 46
    104c:	6e b4       	in	r6, 0x2e	; 46
    104e:	78 94       	sei
    1050:	67 9c       	mul	r6, r7
    1052:	f0 01       	movw	r30, r0
    1054:	f3 95       	inc	r31
    1056:	09 94       	ijmp
	...

00001080 <I_3A__LD16_c2_c2>:
    1080:	da 01       	movw	r26, r20
    1082:	4d 91       	ld	r20, X+
    1084:	5c 91       	ld	r21, X
    1086:	01 96       	adiw	r24, 0x01	; 1
    1088:	f8 94       	cli
    108a:	2e bc       	out	0x2e, r2	; 46
    108c:	6e b4       	in	r6, 0x2e	; 46
    108e:	78 94       	sei
    1090:	67 9c       	mul	r6, r7
    1092:	f0 01       	movw	r30, r0
    1094:	f3 95       	inc	r31
    1096:	09 94       	ijmp
	...

000010c0 <I_3B__LD16_c2_c3>:
    10c0:	db 01       	movw	r26, r22
    10c2:	4d 91       	ld	r20, X+
    10c4:	5c 91       	ld	r21, X
    10c6:	01 96       	adiw	r24, 0x01	; 1
    10c8:	f8 94       	cli
    10ca:	2e bc       	out	0x2e, r2	; 46
    10cc:	6e b4       	in	r6, 0x2e	; 46
    10ce:	78 94       	sei
    10d0:	67 9c       	mul	r6, r7
    10d2:	f0 01       	movw	r30, r0
    10d4:	f3 95       	inc	r31
    10d6:	09 94       	ijmp
	...

00001100 <I_3C__LD16_c3_c0>:
    1100:	d8 01       	movw	r26, r16
    1102:	6d 91       	ld	r22, X+
    1104:	7c 91       	ld	r23, X
    1106:	01 96       	adiw	r24, 0x01	; 1
    1108:	f8 94       	cli
    110a:	2e bc       	out	0x2e, r2	; 46
    110c:	6e b4       	in	r6, 0x2e	; 46
    110e:	78 94       	sei
    1110:	67 9c       	mul	r6, r7
    1112:	f0 01       	movw	r30, r0
    1114:	f3 95       	inc	r31
    1116:	09 94       	ijmp
	...

00001140 <I_3D__LD16_c3_c1>:
    1140:	d9 01       	movw	r26, r18
    1142:	6d 91       	ld	r22, X+
    1144:	7c 91       	ld	r23, X
    1146:	01 96       	adiw	r24, 0x01	; 1
    1148:	f8 94       	cli
    114a:	2e bc       	out	0x2e, r2	; 46
    114c:	6e b4       	in	r6, 0x2e	; 46
    114e:	78 94       	sei
    1150:	67 9c       	mul	r6, r7
    1152:	f0 01       	movw	r30, r0
    1154:	f3 95       	inc	r31
    1156:	09 94       	ijmp
	...

00001180 <I_3E__LD16_c3_c2>:
    1180:	da 01       	movw	r26, r20
    1182:	6d 91       	ld	r22, X+
    1184:	7c 91       	ld	r23, X
    1186:	01 96       	adiw	r24, 0x01	; 1
    1188:	f8 94       	cli
    118a:	2e bc       	out	0x2e, r2	; 46
    118c:	6e b4       	in	r6, 0x2e	; 46
    118e:	78 94       	sei
    1190:	67 9c       	mul	r6, r7
    1192:	f0 01       	movw	r30, r0
    1194:	f3 95       	inc	r31
    1196:	09 94       	ijmp
	...

000011c0 <I_3F__LD16_c3_c3>:
    11c0:	db 01       	movw	r26, r22
    11c2:	6d 91       	ld	r22, X+
    11c4:	7c 91       	ld	r23, X
    11c6:	01 96       	adiw	r24, 0x01	; 1
    11c8:	f8 94       	cli
    11ca:	2e bc       	out	0x2e, r2	; 46
    11cc:	6e b4       	in	r6, 0x2e	; 46
    11ce:	78 94       	sei
    11d0:	67 9c       	mul	r6, r7
    11d2:	f0 01       	movw	r30, r0
    11d4:	f3 95       	inc	r31
    11d6:	09 94       	ijmp
	...

00001200 <I_40__ST16_c0_c0>:
    1200:	d8 01       	movw	r26, r16
    1202:	0d 93       	st	X+, r16
    1204:	1c 93       	st	X, r17
    1206:	01 96       	adiw	r24, 0x01	; 1
    1208:	f8 94       	cli
    120a:	2e bc       	out	0x2e, r2	; 46
    120c:	6e b4       	in	r6, 0x2e	; 46
    120e:	78 94       	sei
    1210:	67 9c       	mul	r6, r7
    1212:	f0 01       	movw	r30, r0
    1214:	f3 95       	inc	r31
    1216:	09 94       	ijmp
	...

00001240 <I_41__ST16_c0_c1>:
    1240:	d8 01       	movw	r26, r16
    1242:	2d 93       	st	X+, r18
    1244:	3c 93       	st	X, r19
    1246:	01 96       	adiw	r24, 0x01	; 1
    1248:	f8 94       	cli
    124a:	2e bc       	out	0x2e, r2	; 46
    124c:	6e b4       	in	r6, 0x2e	; 46
    124e:	78 94       	sei
    1250:	67 9c       	mul	r6, r7
    1252:	f0 01       	movw	r30, r0
    1254:	f3 95       	inc	r31
    1256:	09 94       	ijmp
	...

00001280 <I_42__ST16_c0_c2>:
    1280:	d8 01       	movw	r26, r16
    1282:	4d 93       	st	X+, r20
    1284:	5c 93       	st	X, r21
    1286:	01 96       	adiw	r24, 0x01	; 1
    1288:	f8 94       	cli
    128a:	2e bc       	out	0x2e, r2	; 46
    128c:	6e b4       	in	r6, 0x2e	; 46
    128e:	78 94       	sei
    1290:	67 9c       	mul	r6, r7
    1292:	f0 01       	movw	r30, r0
    1294:	f3 95       	inc	r31
    1296:	09 94       	ijmp
	...

000012c0 <I_43__ST16_c0_c3>:
    12c0:	d8 01       	movw	r26, r16
    12c2:	6d 93       	st	X+, r22
    12c4:	7c 93       	st	X, r23
    12c6:	01 96       	adiw	r24, 0x01	; 1
    12c8:	f8 94       	cli
    12ca:	2e bc       	out	0x2e, r2	; 46
    12cc:	6e b4       	in	r6, 0x2e	; 46
    12ce:	78 94       	sei
    12d0:	67 9c       	mul	r6, r7
    12d2:	f0 01       	movw	r30, r0
    12d4:	f3 95       	inc	r31
    12d6:	09 94       	ijmp
	...

00001300 <I_44__ST16_c1_c0>:
    1300:	d9 01       	movw	r26, r18
    1302:	0d 93       	st	X+, r16
    1304:	1c 93       	st	X, r17
    1306:	01 96       	adiw	r24, 0x01	; 1
    1308:	f8 94       	cli
    130a:	2e bc       	out	0x2e, r2	; 46
    130c:	6e b4       	in	r6, 0x2e	; 46
    130e:	78 94       	sei
    1310:	67 9c       	mul	r6, r7
    1312:	f0 01       	movw	r30, r0
    1314:	f3 95       	inc	r31
    1316:	09 94       	ijmp
	...

00001340 <I_45__ST16_c1_c1>:
    1340:	d9 01       	movw	r26, r18
    1342:	2d 93       	st	X+, r18
    1344:	3c 93       	st	X, r19
    1346:	01 96       	adiw	r24, 0x01	; 1
    1348:	f8 94       	cli
    134a:	2e bc       	out	0x2e, r2	; 46
    134c:	6e b4       	in	r6, 0x2e	; 46
    134e:	78 94       	sei
    1350:	67 9c       	mul	r6, r7
    1352:	f0 01       	movw	r30, r0
    1354:	f3 95       	inc	r31
    1356:	09 94       	ijmp
	...

00001380 <I_46__ST16_c1_c2>:
    1380:	d9 01       	movw	r26, r18
    1382:	4d 93       	st	X+, r20
    1384:	5c 93       	st	X, r21
    1386:	01 96       	adiw	r24, 0x01	; 1
    1388:	f8 94       	cli
    138a:	2e bc       	out	0x2e, r2	; 46
    138c:	6e b4       	in	r6, 0x2e	; 46
    138e:	78 94       	sei
    1390:	67 9c       	mul	r6, r7
    1392:	f0 01       	movw	r30, r0
    1394:	f3 95       	inc	r31
    1396:	09 94       	ijmp
	...

000013c0 <I_47__ST16_c1_c3>:
    13c0:	d9 01       	movw	r26, r18
    13c2:	6d 93       	st	X+, r22
    13c4:	7c 93       	st	X, r23
    13c6:	01 96       	adiw	r24, 0x01	; 1
    13c8:	f8 94       	cli
    13ca:	2e bc       	out	0x2e, r2	; 46
    13cc:	6e b4       	in	r6, 0x2e	; 46
    13ce:	78 94       	sei
    13d0:	67 9c       	mul	r6, r7
    13d2:	f0 01       	movw	r30, r0
    13d4:	f3 95       	inc	r31
    13d6:	09 94       	ijmp
	...

00001400 <I_48__ST16_c2_c0>:
    1400:	da 01       	movw	r26, r20
    1402:	0d 93       	st	X+, r16
    1404:	1c 93       	st	X, r17
    1406:	01 96       	adiw	r24, 0x01	; 1
    1408:	f8 94       	cli
    140a:	2e bc       	out	0x2e, r2	; 46
    140c:	6e b4       	in	r6, 0x2e	; 46
    140e:	78 94       	sei
    1410:	67 9c       	mul	r6, r7
    1412:	f0 01       	movw	r30, r0
    1414:	f3 95       	inc	r31
    1416:	09 94       	ijmp
	...

00001440 <I_49__ST16_c2_c1>:
    1440:	da 01       	movw	r26, r20
    1442:	2d 93       	st	X+, r18
    1444:	3c 93       	st	X, r19
    1446:	01 96       	adiw	r24, 0x01	; 1
    1448:	f8 94       	cli
    144a:	2e bc       	out	0x2e, r2	; 46
    144c:	6e b4       	in	r6, 0x2e	; 46
    144e:	78 94       	sei
    1450:	67 9c       	mul	r6, r7
    1452:	f0 01       	movw	r30, r0
    1454:	f3 95       	inc	r31
    1456:	09 94       	ijmp
	...

00001480 <I_4A__ST16_c2_c2>:
    1480:	da 01       	movw	r26, r20
    1482:	4d 93       	st	X+, r20
    1484:	5c 93       	st	X, r21
    1486:	01 96       	adiw	r24, 0x01	; 1
    1488:	f8 94       	cli
    148a:	2e bc       	out	0x2e, r2	; 46
    148c:	6e b4       	in	r6, 0x2e	; 46
    148e:	78 94       	sei
    1490:	67 9c       	mul	r6, r7
    1492:	f0 01       	movw	r30, r0
    1494:	f3 95       	inc	r31
    1496:	09 94       	ijmp
	...

000014c0 <I_4B__ST16_c2_c3>:
    14c0:	da 01       	movw	r26, r20
    14c2:	6d 93       	st	X+, r22
    14c4:	7c 93       	st	X, r23
    14c6:	01 96       	adiw	r24, 0x01	; 1
    14c8:	f8 94       	cli
    14ca:	2e bc       	out	0x2e, r2	; 46
    14cc:	6e b4       	in	r6, 0x2e	; 46
    14ce:	78 94       	sei
    14d0:	67 9c       	mul	r6, r7
    14d2:	f0 01       	movw	r30, r0
    14d4:	f3 95       	inc	r31
    14d6:	09 94       	ijmp
	...

00001500 <I_4C__ST16_c3_c0>:
    1500:	db 01       	movw	r26, r22
    1502:	0d 93       	st	X+, r16
    1504:	1c 93       	st	X, r17
    1506:	01 96       	adiw	r24, 0x01	; 1
    1508:	f8 94       	cli
    150a:	2e bc       	out	0x2e, r2	; 46
    150c:	6e b4       	in	r6, 0x2e	; 46
    150e:	78 94       	sei
    1510:	67 9c       	mul	r6, r7
    1512:	f0 01       	movw	r30, r0
    1514:	f3 95       	inc	r31
    1516:	09 94       	ijmp
	...

00001540 <I_4D__ST16_c3_c1>:
    1540:	db 01       	movw	r26, r22
    1542:	2d 93       	st	X+, r18
    1544:	3c 93       	st	X, r19
    1546:	01 96       	adiw	r24, 0x01	; 1
    1548:	f8 94       	cli
    154a:	2e bc       	out	0x2e, r2	; 46
    154c:	6e b4       	in	r6, 0x2e	; 46
    154e:	78 94       	sei
    1550:	67 9c       	mul	r6, r7
    1552:	f0 01       	movw	r30, r0
    1554:	f3 95       	inc	r31
    1556:	09 94       	ijmp
	...

00001580 <I_4E__ST16_c3_c2>:
    1580:	db 01       	movw	r26, r22
    1582:	4d 93       	st	X+, r20
    1584:	5c 93       	st	X, r21
    1586:	01 96       	adiw	r24, 0x01	; 1
    1588:	f8 94       	cli
    158a:	2e bc       	out	0x2e, r2	; 46
    158c:	6e b4       	in	r6, 0x2e	; 46
    158e:	78 94       	sei
    1590:	67 9c       	mul	r6, r7
    1592:	f0 01       	movw	r30, r0
    1594:	f3 95       	inc	r31
    1596:	09 94       	ijmp
	...

000015c0 <I_4F__ST16_c3_c3>:
    15c0:	db 01       	movw	r26, r22
    15c2:	6d 93       	st	X+, r22
    15c4:	7c 93       	st	X, r23
    15c6:	01 96       	adiw	r24, 0x01	; 1
    15c8:	f8 94       	cli
    15ca:	2e bc       	out	0x2e, r2	; 46
    15cc:	6e b4       	in	r6, 0x2e	; 46
    15ce:	78 94       	sei
    15d0:	67 9c       	mul	r6, r7
    15d2:	f0 01       	movw	r30, r0
    15d4:	f3 95       	inc	r31
    15d6:	09 94       	ijmp
	...
    1600:	c8 95       	lpm
    1602:	01 e0       	ldi	r16, 0x01	; 1
    1604:	10 e0       	ldi	r17, 0x00	; 0
    1606:	01 96       	adiw	r24, 0x01	; 1
    1608:	f8 94       	cli
    160a:	2e bc       	out	0x2e, r2	; 46
    160c:	6e b4       	in	r6, 0x2e	; 46
    160e:	78 94       	sei
    1610:	67 9c       	mul	r6, r7
    1612:	f0 01       	movw	r30, r0
    1614:	f3 95       	inc	r31
    1616:	09 94       	ijmp
    1618:	d9 01       	movw	r26, r18
    161a:	0d 91       	ld	r16, X+
    161c:	11 27       	eor	r17, r17
    161e:	9d 01       	movw	r18, r26
    1620:	01 96       	adiw	r24, 0x01	; 1
    1622:	f8 94       	cli
    1624:	2e bc       	out	0x2e, r2	; 46
    1626:	6e b4       	in	r6, 0x2e	; 46
    1628:	78 94       	sei
    162a:	67 9c       	mul	r6, r7
    162c:	f0 01       	movw	r30, r0
    162e:	f3 95       	inc	r31
    1630:	09 94       	ijmp
    1632:	da 01       	movw	r26, r20
    1634:	0d 91       	ld	r16, X+
    1636:	11 27       	eor	r17, r17
    1638:	ad 01       	movw	r20, r26
    163a:	01 96       	adiw	r24, 0x01	; 1
    163c:	f8 94       	cli
    163e:	2e bc       	out	0x2e, r2	; 46
    1640:	6e b4       	in	r6, 0x2e	; 46
    1642:	78 94       	sei
    1644:	67 9c       	mul	r6, r7
    1646:	f0 01       	movw	r30, r0
    1648:	f3 95       	inc	r31
    164a:	09 94       	ijmp
    164c:	db 01       	movw	r26, r22
    164e:	0d 91       	ld	r16, X+
    1650:	11 27       	eor	r17, r17
    1652:	bd 01       	movw	r22, r26
    1654:	01 96       	adiw	r24, 0x01	; 1
    1656:	f8 94       	cli
    1658:	2e bc       	out	0x2e, r2	; 46
    165a:	6e b4       	in	r6, 0x2e	; 46
    165c:	78 94       	sei
    165e:	67 9c       	mul	r6, r7
    1660:	f0 01       	movw	r30, r0
    1662:	f3 95       	inc	r31
    1664:	09 94       	ijmp
    1666:	d8 01       	movw	r26, r16
    1668:	2d 91       	ld	r18, X+
    166a:	33 27       	eor	r19, r19
    166c:	8d 01       	movw	r16, r26
    166e:	01 96       	adiw	r24, 0x01	; 1
    1670:	f8 94       	cli
    1672:	2e bc       	out	0x2e, r2	; 46
    1674:	6e b4       	in	r6, 0x2e	; 46
    1676:	78 94       	sei
    1678:	67 9c       	mul	r6, r7
    167a:	f0 01       	movw	r30, r0
    167c:	f3 95       	inc	r31
    167e:	09 94       	ijmp
    1680:	c8 95       	lpm
    1682:	21 e0       	ldi	r18, 0x01	; 1
    1684:	30 e0       	ldi	r19, 0x00	; 0
    1686:	01 96       	adiw	r24, 0x01	; 1
    1688:	f8 94       	cli
    168a:	2e bc       	out	0x2e, r2	; 46
    168c:	6e b4       	in	r6, 0x2e	; 46
    168e:	78 94       	sei
    1690:	67 9c       	mul	r6, r7
    1692:	f0 01       	movw	r30, r0
    1694:	f3 95       	inc	r31
    1696:	09 94       	ijmp
    1698:	da 01       	movw	r26, r20
    169a:	2d 91       	ld	r18, X+
    169c:	33 27       	eor	r19, r19
    169e:	ad 01       	movw	r20, r26
    16a0:	01 96       	adiw	r24, 0x01	; 1
    16a2:	f8 94       	cli
    16a4:	2e bc       	out	0x2e, r2	; 46
    16a6:	6e b4       	in	r6, 0x2e	; 46
    16a8:	78 94       	sei
    16aa:	67 9c       	mul	r6, r7
    16ac:	f0 01       	movw	r30, r0
    16ae:	f3 95       	inc	r31
    16b0:	09 94       	ijmp
    16b2:	db 01       	movw	r26, r22
    16b4:	2d 91       	ld	r18, X+
    16b6:	33 27       	eor	r19, r19
    16b8:	bd 01       	movw	r22, r26
    16ba:	01 96       	adiw	r24, 0x01	; 1
    16bc:	f8 94       	cli
    16be:	2e bc       	out	0x2e, r2	; 46
    16c0:	6e b4       	in	r6, 0x2e	; 46
    16c2:	78 94       	sei
    16c4:	67 9c       	mul	r6, r7
    16c6:	f0 01       	movw	r30, r0
    16c8:	f3 95       	inc	r31
    16ca:	09 94       	ijmp
    16cc:	d8 01       	movw	r26, r16
    16ce:	4d 91       	ld	r20, X+
    16d0:	55 27       	eor	r21, r21
    16d2:	8d 01       	movw	r16, r26
    16d4:	01 96       	adiw	r24, 0x01	; 1
    16d6:	f8 94       	cli
    16d8:	2e bc       	out	0x2e, r2	; 46
    16da:	6e b4       	in	r6, 0x2e	; 46
    16dc:	78 94       	sei
    16de:	67 9c       	mul	r6, r7
    16e0:	f0 01       	movw	r30, r0
    16e2:	f3 95       	inc	r31
    16e4:	09 94       	ijmp
    16e6:	d9 01       	movw	r26, r18
    16e8:	4d 91       	ld	r20, X+
    16ea:	55 27       	eor	r21, r21
    16ec:	9d 01       	movw	r18, r26
    16ee:	01 96       	adiw	r24, 0x01	; 1
    16f0:	f8 94       	cli
    16f2:	2e bc       	out	0x2e, r2	; 46
    16f4:	6e b4       	in	r6, 0x2e	; 46
    16f6:	78 94       	sei
    16f8:	67 9c       	mul	r6, r7
    16fa:	f0 01       	movw	r30, r0
    16fc:	f3 95       	inc	r31
    16fe:	09 94       	ijmp
    1700:	c8 95       	lpm
    1702:	41 e0       	ldi	r20, 0x01	; 1
    1704:	50 e0       	ldi	r21, 0x00	; 0
    1706:	01 96       	adiw	r24, 0x01	; 1
    1708:	f8 94       	cli
    170a:	2e bc       	out	0x2e, r2	; 46
    170c:	6e b4       	in	r6, 0x2e	; 46
    170e:	78 94       	sei
    1710:	67 9c       	mul	r6, r7
    1712:	f0 01       	movw	r30, r0
    1714:	f3 95       	inc	r31
    1716:	09 94       	ijmp
    1718:	db 01       	movw	r26, r22
    171a:	4d 91       	ld	r20, X+
    171c:	55 27       	eor	r21, r21
    171e:	bd 01       	movw	r22, r26
    1720:	01 96       	adiw	r24, 0x01	; 1
    1722:	f8 94       	cli
    1724:	2e bc       	out	0x2e, r2	; 46
    1726:	6e b4       	in	r6, 0x2e	; 46
    1728:	78 94       	sei
    172a:	67 9c       	mul	r6, r7
    172c:	f0 01       	movw	r30, r0
    172e:	f3 95       	inc	r31
    1730:	09 94       	ijmp
    1732:	d8 01       	movw	r26, r16
    1734:	6d 91       	ld	r22, X+
    1736:	77 27       	eor	r23, r23
    1738:	8d 01       	movw	r16, r26
    173a:	01 96       	adiw	r24, 0x01	; 1
    173c:	f8 94       	cli
    173e:	2e bc       	out	0x2e, r2	; 46
    1740:	6e b4       	in	r6, 0x2e	; 46
    1742:	78 94       	sei
    1744:	67 9c       	mul	r6, r7
    1746:	f0 01       	movw	r30, r0
    1748:	f3 95       	inc	r31
    174a:	09 94       	ijmp
    174c:	d9 01       	movw	r26, r18
    174e:	6d 91       	ld	r22, X+
    1750:	77 27       	eor	r23, r23
    1752:	9d 01       	movw	r18, r26
    1754:	01 96       	adiw	r24, 0x01	; 1
    1756:	f8 94       	cli
    1758:	2e bc       	out	0x2e, r2	; 46
    175a:	6e b4       	in	r6, 0x2e	; 46
    175c:	78 94       	sei
    175e:	67 9c       	mul	r6, r7
    1760:	f0 01       	movw	r30, r0
    1762:	f3 95       	inc	r31
    1764:	09 94       	ijmp
    1766:	da 01       	movw	r26, r20
    1768:	6d 91       	ld	r22, X+
    176a:	77 27       	eor	r23, r23
    176c:	ad 01       	movw	r20, r26
    176e:	01 96       	adiw	r24, 0x01	; 1
    1770:	f8 94       	cli
    1772:	2e bc       	out	0x2e, r2	; 46
    1774:	6e b4       	in	r6, 0x2e	; 46
    1776:	78 94       	sei
    1778:	67 9c       	mul	r6, r7
    177a:	f0 01       	movw	r30, r0
    177c:	f3 95       	inc	r31
    177e:	09 94       	ijmp
    1780:	c8 95       	lpm
    1782:	61 e0       	ldi	r22, 0x01	; 1
    1784:	70 e0       	ldi	r23, 0x00	; 0
    1786:	01 96       	adiw	r24, 0x01	; 1
    1788:	f8 94       	cli
    178a:	2e bc       	out	0x2e, r2	; 46
    178c:	6e b4       	in	r6, 0x2e	; 46
    178e:	78 94       	sei
    1790:	67 9c       	mul	r6, r7
    1792:	f0 01       	movw	r30, r0
    1794:	f3 95       	inc	r31
    1796:	09 94       	ijmp

00001798 <I_60__ST8_POST_c0_c0>:
    1798:	00 00       	nop
    179a:	d8 01       	movw	r26, r16
    179c:	0d 93       	st	X+, r16
    179e:	8d 01       	movw	r16, r26
    17a0:	01 96       	adiw	r24, 0x01	; 1
    17a2:	f8 94       	cli
    17a4:	2e bc       	out	0x2e, r2	; 46
    17a6:	6e b4       	in	r6, 0x2e	; 46
    17a8:	78 94       	sei
    17aa:	67 9c       	mul	r6, r7
    17ac:	f0 01       	movw	r30, r0
    17ae:	f3 95       	inc	r31
    17b0:	09 94       	ijmp

000017b2 <I_61__ST8_POST_c0_c1>:
    17b2:	00 00       	nop
    17b4:	d8 01       	movw	r26, r16
    17b6:	2d 93       	st	X+, r18
    17b8:	8d 01       	movw	r16, r26
    17ba:	01 96       	adiw	r24, 0x01	; 1
    17bc:	f8 94       	cli
    17be:	2e bc       	out	0x2e, r2	; 46
    17c0:	6e b4       	in	r6, 0x2e	; 46
    17c2:	78 94       	sei
    17c4:	67 9c       	mul	r6, r7
    17c6:	f0 01       	movw	r30, r0
    17c8:	f3 95       	inc	r31
    17ca:	09 94       	ijmp

000017cc <I_62__ST8_POST_c0_c2>:
    17cc:	00 00       	nop
    17ce:	d8 01       	movw	r26, r16
    17d0:	4d 93       	st	X+, r20
    17d2:	8d 01       	movw	r16, r26
    17d4:	01 96       	adiw	r24, 0x01	; 1
    17d6:	f8 94       	cli
    17d8:	2e bc       	out	0x2e, r2	; 46
    17da:	6e b4       	in	r6, 0x2e	; 46
    17dc:	78 94       	sei
    17de:	67 9c       	mul	r6, r7
    17e0:	f0 01       	movw	r30, r0
    17e2:	f3 95       	inc	r31
    17e4:	09 94       	ijmp

000017e6 <I_63__ST8_POST_c0_c3>:
    17e6:	00 00       	nop
    17e8:	d8 01       	movw	r26, r16
    17ea:	6d 93       	st	X+, r22
    17ec:	8d 01       	movw	r16, r26
    17ee:	01 96       	adiw	r24, 0x01	; 1
    17f0:	f8 94       	cli
    17f2:	2e bc       	out	0x2e, r2	; 46
    17f4:	6e b4       	in	r6, 0x2e	; 46
    17f6:	78 94       	sei
    17f8:	67 9c       	mul	r6, r7
    17fa:	f0 01       	movw	r30, r0
    17fc:	f3 95       	inc	r31
    17fe:	09 94       	ijmp

00001800 <I_64__ST8_POST_c1_c0>:
    1800:	00 00       	nop
    1802:	d9 01       	movw	r26, r18
    1804:	0d 93       	st	X+, r16
    1806:	9d 01       	movw	r18, r26
    1808:	01 96       	adiw	r24, 0x01	; 1
    180a:	f8 94       	cli
    180c:	2e bc       	out	0x2e, r2	; 46
    180e:	6e b4       	in	r6, 0x2e	; 46
    1810:	78 94       	sei
    1812:	67 9c       	mul	r6, r7
    1814:	f0 01       	movw	r30, r0
    1816:	f3 95       	inc	r31
    1818:	09 94       	ijmp

0000181a <I_65__ST8_POST_c1_c1>:
    181a:	00 00       	nop
    181c:	d9 01       	movw	r26, r18
    181e:	2d 93       	st	X+, r18
    1820:	9d 01       	movw	r18, r26
    1822:	01 96       	adiw	r24, 0x01	; 1
    1824:	f8 94       	cli
    1826:	2e bc       	out	0x2e, r2	; 46
    1828:	6e b4       	in	r6, 0x2e	; 46
    182a:	78 94       	sei
    182c:	67 9c       	mul	r6, r7
    182e:	f0 01       	movw	r30, r0
    1830:	f3 95       	inc	r31
    1832:	09 94       	ijmp

00001834 <I_66__ST8_POST_c1_c2>:
    1834:	00 00       	nop
    1836:	d9 01       	movw	r26, r18
    1838:	4d 93       	st	X+, r20
    183a:	9d 01       	movw	r18, r26
    183c:	01 96       	adiw	r24, 0x01	; 1
    183e:	f8 94       	cli
    1840:	2e bc       	out	0x2e, r2	; 46
    1842:	6e b4       	in	r6, 0x2e	; 46
    1844:	78 94       	sei
    1846:	67 9c       	mul	r6, r7
    1848:	f0 01       	movw	r30, r0
    184a:	f3 95       	inc	r31
    184c:	09 94       	ijmp

0000184e <I_67__ST8_POST_c1_c3>:
    184e:	00 00       	nop
    1850:	d9 01       	movw	r26, r18
    1852:	6d 93       	st	X+, r22
    1854:	9d 01       	movw	r18, r26
    1856:	01 96       	adiw	r24, 0x01	; 1
    1858:	f8 94       	cli
    185a:	2e bc       	out	0x2e, r2	; 46
    185c:	6e b4       	in	r6, 0x2e	; 46
    185e:	78 94       	sei
    1860:	67 9c       	mul	r6, r7
    1862:	f0 01       	movw	r30, r0
    1864:	f3 95       	inc	r31
    1866:	09 94       	ijmp

00001868 <I_68__ST8_POST_c2_c0>:
    1868:	00 00       	nop
    186a:	da 01       	movw	r26, r20
    186c:	0d 93       	st	X+, r16
    186e:	ad 01       	movw	r20, r26
    1870:	01 96       	adiw	r24, 0x01	; 1
    1872:	f8 94       	cli
    1874:	2e bc       	out	0x2e, r2	; 46
    1876:	6e b4       	in	r6, 0x2e	; 46
    1878:	78 94       	sei
    187a:	67 9c       	mul	r6, r7
    187c:	f0 01       	movw	r30, r0
    187e:	f3 95       	inc	r31
    1880:	09 94       	ijmp

00001882 <I_69__ST8_POST_c2_c1>:
    1882:	00 00       	nop
    1884:	da 01       	movw	r26, r20
    1886:	2d 93       	st	X+, r18
    1888:	ad 01       	movw	r20, r26
    188a:	01 96       	adiw	r24, 0x01	; 1
    188c:	f8 94       	cli
    188e:	2e bc       	out	0x2e, r2	; 46
    1890:	6e b4       	in	r6, 0x2e	; 46
    1892:	78 94       	sei
    1894:	67 9c       	mul	r6, r7
    1896:	f0 01       	movw	r30, r0
    1898:	f3 95       	inc	r31
    189a:	09 94       	ijmp

0000189c <I_6A__ST8_POST_c2_c2>:
    189c:	00 00       	nop
    189e:	da 01       	movw	r26, r20
    18a0:	4d 93       	st	X+, r20
    18a2:	ad 01       	movw	r20, r26
    18a4:	01 96       	adiw	r24, 0x01	; 1
    18a6:	f8 94       	cli
    18a8:	2e bc       	out	0x2e, r2	; 46
    18aa:	6e b4       	in	r6, 0x2e	; 46
    18ac:	78 94       	sei
    18ae:	67 9c       	mul	r6, r7
    18b0:	f0 01       	movw	r30, r0
    18b2:	f3 95       	inc	r31
    18b4:	09 94       	ijmp

000018b6 <I_6B__ST8_POST_c2_c3>:
    18b6:	00 00       	nop
    18b8:	da 01       	movw	r26, r20
    18ba:	6d 93       	st	X+, r22
    18bc:	ad 01       	movw	r20, r26
    18be:	01 96       	adiw	r24, 0x01	; 1
    18c0:	f8 94       	cli
    18c2:	2e bc       	out	0x2e, r2	; 46
    18c4:	6e b4       	in	r6, 0x2e	; 46
    18c6:	78 94       	sei
    18c8:	67 9c       	mul	r6, r7
    18ca:	f0 01       	movw	r30, r0
    18cc:	f3 95       	inc	r31
    18ce:	09 94       	ijmp

000018d0 <I_6C__ST8_POST_c3_c0>:
    18d0:	00 00       	nop
    18d2:	db 01       	movw	r26, r22
    18d4:	0d 93       	st	X+, r16
    18d6:	bd 01       	movw	r22, r26
    18d8:	01 96       	adiw	r24, 0x01	; 1
    18da:	f8 94       	cli
    18dc:	2e bc       	out	0x2e, r2	; 46
    18de:	6e b4       	in	r6, 0x2e	; 46
    18e0:	78 94       	sei
    18e2:	67 9c       	mul	r6, r7
    18e4:	f0 01       	movw	r30, r0
    18e6:	f3 95       	inc	r31
    18e8:	09 94       	ijmp

000018ea <I_6D__ST8_POST_c3_c1>:
    18ea:	00 00       	nop
    18ec:	db 01       	movw	r26, r22
    18ee:	2d 93       	st	X+, r18
    18f0:	bd 01       	movw	r22, r26
    18f2:	01 96       	adiw	r24, 0x01	; 1
    18f4:	f8 94       	cli
    18f6:	2e bc       	out	0x2e, r2	; 46
    18f8:	6e b4       	in	r6, 0x2e	; 46
    18fa:	78 94       	sei
    18fc:	67 9c       	mul	r6, r7
    18fe:	f0 01       	movw	r30, r0
    1900:	f3 95       	inc	r31
    1902:	09 94       	ijmp

00001904 <I_6E__ST8_POST_c3_c2>:
    1904:	00 00       	nop
    1906:	db 01       	movw	r26, r22
    1908:	4d 93       	st	X+, r20
    190a:	bd 01       	movw	r22, r26
    190c:	01 96       	adiw	r24, 0x01	; 1
    190e:	f8 94       	cli
    1910:	2e bc       	out	0x2e, r2	; 46
    1912:	6e b4       	in	r6, 0x2e	; 46
    1914:	78 94       	sei
    1916:	67 9c       	mul	r6, r7
    1918:	f0 01       	movw	r30, r0
    191a:	f3 95       	inc	r31
    191c:	09 94       	ijmp

0000191e <I_6F__ST8_POST_c3_c3>:
    191e:	00 00       	nop
    1920:	db 01       	movw	r26, r22
    1922:	6d 93       	st	X+, r22
    1924:	bd 01       	movw	r22, r26
    1926:	01 96       	adiw	r24, 0x01	; 1
    1928:	f8 94       	cli
    192a:	2e bc       	out	0x2e, r2	; 46
    192c:	6e b4       	in	r6, 0x2e	; 46
    192e:	78 94       	sei
    1930:	67 9c       	mul	r6, r7
    1932:	f0 01       	movw	r30, r0
    1934:	f3 95       	inc	r31
    1936:	09 94       	ijmp

00001938 <I_70__PUSH16_r0>:
    1938:	00 00       	nop
    193a:	9a 92       	st	-Y, r9
    193c:	8a 92       	st	-Y, r8
    193e:	01 96       	adiw	r24, 0x01	; 1
    1940:	f8 94       	cli
    1942:	2e bc       	out	0x2e, r2	; 46
    1944:	6e b4       	in	r6, 0x2e	; 46
    1946:	78 94       	sei
    1948:	67 9c       	mul	r6, r7
    194a:	f0 01       	movw	r30, r0
    194c:	f3 95       	inc	r31
    194e:	09 94       	ijmp

00001950 <I_71__PUSH16_r1>:
    1950:	00 00       	nop
    1952:	ba 92       	st	-Y, r11
    1954:	aa 92       	st	-Y, r10
    1956:	01 96       	adiw	r24, 0x01	; 1
    1958:	f8 94       	cli
    195a:	2e bc       	out	0x2e, r2	; 46
    195c:	6e b4       	in	r6, 0x2e	; 46
    195e:	78 94       	sei
    1960:	67 9c       	mul	r6, r7
    1962:	f0 01       	movw	r30, r0
    1964:	f3 95       	inc	r31
    1966:	09 94       	ijmp

00001968 <I_72__PUSH16_r2>:
    1968:	00 00       	nop
    196a:	da 92       	st	-Y, r13
    196c:	ca 92       	st	-Y, r12
    196e:	01 96       	adiw	r24, 0x01	; 1
    1970:	f8 94       	cli
    1972:	2e bc       	out	0x2e, r2	; 46
    1974:	6e b4       	in	r6, 0x2e	; 46
    1976:	78 94       	sei
    1978:	67 9c       	mul	r6, r7
    197a:	f0 01       	movw	r30, r0
    197c:	f3 95       	inc	r31
    197e:	09 94       	ijmp

00001980 <I_73__PUSH16_r3>:
    1980:	00 00       	nop
    1982:	fa 92       	st	-Y, r15
    1984:	ea 92       	st	-Y, r14
    1986:	01 96       	adiw	r24, 0x01	; 1
    1988:	f8 94       	cli
    198a:	2e bc       	out	0x2e, r2	; 46
    198c:	6e b4       	in	r6, 0x2e	; 46
    198e:	78 94       	sei
    1990:	67 9c       	mul	r6, r7
    1992:	f0 01       	movw	r30, r0
    1994:	f3 95       	inc	r31
    1996:	09 94       	ijmp

00001998 <I_74__PUSH16_r4>:
    1998:	00 00       	nop
    199a:	1a 93       	st	-Y, r17
    199c:	0a 93       	st	-Y, r16
    199e:	01 96       	adiw	r24, 0x01	; 1
    19a0:	f8 94       	cli
    19a2:	2e bc       	out	0x2e, r2	; 46
    19a4:	6e b4       	in	r6, 0x2e	; 46
    19a6:	78 94       	sei
    19a8:	67 9c       	mul	r6, r7
    19aa:	f0 01       	movw	r30, r0
    19ac:	f3 95       	inc	r31
    19ae:	09 94       	ijmp

000019b0 <I_75__PUSH16_r5>:
    19b0:	00 00       	nop
    19b2:	3a 93       	st	-Y, r19
    19b4:	2a 93       	st	-Y, r18
    19b6:	01 96       	adiw	r24, 0x01	; 1
    19b8:	f8 94       	cli
    19ba:	2e bc       	out	0x2e, r2	; 46
    19bc:	6e b4       	in	r6, 0x2e	; 46
    19be:	78 94       	sei
    19c0:	67 9c       	mul	r6, r7
    19c2:	f0 01       	movw	r30, r0
    19c4:	f3 95       	inc	r31
    19c6:	09 94       	ijmp

000019c8 <I_76__PUSH16_r6>:
    19c8:	00 00       	nop
    19ca:	5a 93       	st	-Y, r21
    19cc:	4a 93       	st	-Y, r20
    19ce:	01 96       	adiw	r24, 0x01	; 1
    19d0:	f8 94       	cli
    19d2:	2e bc       	out	0x2e, r2	; 46
    19d4:	6e b4       	in	r6, 0x2e	; 46
    19d6:	78 94       	sei
    19d8:	67 9c       	mul	r6, r7
    19da:	f0 01       	movw	r30, r0
    19dc:	f3 95       	inc	r31
    19de:	09 94       	ijmp

000019e0 <I_77__PUSH16_r7>:
    19e0:	00 00       	nop
    19e2:	7a 93       	st	-Y, r23
    19e4:	6a 93       	st	-Y, r22
    19e6:	01 96       	adiw	r24, 0x01	; 1
    19e8:	f8 94       	cli
    19ea:	2e bc       	out	0x2e, r2	; 46
    19ec:	6e b4       	in	r6, 0x2e	; 46
    19ee:	78 94       	sei
    19f0:	67 9c       	mul	r6, r7
    19f2:	f0 01       	movw	r30, r0
    19f4:	f3 95       	inc	r31
    19f6:	09 94       	ijmp

000019f8 <I_78__POP16_r0>:
    19f8:	00 00       	nop
    19fa:	89 90       	ld	r8, Y+
    19fc:	99 90       	ld	r9, Y+
    19fe:	01 96       	adiw	r24, 0x01	; 1
    1a00:	f8 94       	cli
    1a02:	2e bc       	out	0x2e, r2	; 46
    1a04:	6e b4       	in	r6, 0x2e	; 46
    1a06:	78 94       	sei
    1a08:	67 9c       	mul	r6, r7
    1a0a:	f0 01       	movw	r30, r0
    1a0c:	f3 95       	inc	r31
    1a0e:	09 94       	ijmp

00001a10 <I_79__POP16_r1>:
    1a10:	00 00       	nop
    1a12:	a9 90       	ld	r10, Y+
    1a14:	b9 90       	ld	r11, Y+
    1a16:	01 96       	adiw	r24, 0x01	; 1
    1a18:	f8 94       	cli
    1a1a:	2e bc       	out	0x2e, r2	; 46
    1a1c:	6e b4       	in	r6, 0x2e	; 46
    1a1e:	78 94       	sei
    1a20:	67 9c       	mul	r6, r7
    1a22:	f0 01       	movw	r30, r0
    1a24:	f3 95       	inc	r31
    1a26:	09 94       	ijmp

00001a28 <I_7A__POP16_r2>:
    1a28:	00 00       	nop
    1a2a:	c9 90       	ld	r12, Y+
    1a2c:	d9 90       	ld	r13, Y+
    1a2e:	01 96       	adiw	r24, 0x01	; 1
    1a30:	f8 94       	cli
    1a32:	2e bc       	out	0x2e, r2	; 46
    1a34:	6e b4       	in	r6, 0x2e	; 46
    1a36:	78 94       	sei
    1a38:	67 9c       	mul	r6, r7
    1a3a:	f0 01       	movw	r30, r0
    1a3c:	f3 95       	inc	r31
    1a3e:	09 94       	ijmp

00001a40 <I_7B__POP16_r3>:
    1a40:	00 00       	nop
    1a42:	e9 90       	ld	r14, Y+
    1a44:	f9 90       	ld	r15, Y+
    1a46:	01 96       	adiw	r24, 0x01	; 1
    1a48:	f8 94       	cli
    1a4a:	2e bc       	out	0x2e, r2	; 46
    1a4c:	6e b4       	in	r6, 0x2e	; 46
    1a4e:	78 94       	sei
    1a50:	67 9c       	mul	r6, r7
    1a52:	f0 01       	movw	r30, r0
    1a54:	f3 95       	inc	r31
    1a56:	09 94       	ijmp

00001a58 <I_7C__POP16_r4>:
    1a58:	00 00       	nop
    1a5a:	09 91       	ld	r16, Y+
    1a5c:	19 91       	ld	r17, Y+
    1a5e:	01 96       	adiw	r24, 0x01	; 1
    1a60:	f8 94       	cli
    1a62:	2e bc       	out	0x2e, r2	; 46
    1a64:	6e b4       	in	r6, 0x2e	; 46
    1a66:	78 94       	sei
    1a68:	67 9c       	mul	r6, r7
    1a6a:	f0 01       	movw	r30, r0
    1a6c:	f3 95       	inc	r31
    1a6e:	09 94       	ijmp

00001a70 <I_7D__POP16_r5>:
    1a70:	00 00       	nop
    1a72:	29 91       	ld	r18, Y+
    1a74:	39 91       	ld	r19, Y+
    1a76:	01 96       	adiw	r24, 0x01	; 1
    1a78:	f8 94       	cli
    1a7a:	2e bc       	out	0x2e, r2	; 46
    1a7c:	6e b4       	in	r6, 0x2e	; 46
    1a7e:	78 94       	sei
    1a80:	67 9c       	mul	r6, r7
    1a82:	f0 01       	movw	r30, r0
    1a84:	f3 95       	inc	r31
    1a86:	09 94       	ijmp

00001a88 <I_7E__POP16_r6>:
    1a88:	00 00       	nop
    1a8a:	49 91       	ld	r20, Y+
    1a8c:	59 91       	ld	r21, Y+
    1a8e:	01 96       	adiw	r24, 0x01	; 1
    1a90:	f8 94       	cli
    1a92:	2e bc       	out	0x2e, r2	; 46
    1a94:	6e b4       	in	r6, 0x2e	; 46
    1a96:	78 94       	sei
    1a98:	67 9c       	mul	r6, r7
    1a9a:	f0 01       	movw	r30, r0
    1a9c:	f3 95       	inc	r31
    1a9e:	09 94       	ijmp

00001aa0 <I_7F__POP16_r7>:
    1aa0:	00 00       	nop
    1aa2:	69 91       	ld	r22, Y+
    1aa4:	79 91       	ld	r23, Y+
    1aa6:	01 96       	adiw	r24, 0x01	; 1
    1aa8:	f8 94       	cli
    1aaa:	2e bc       	out	0x2e, r2	; 46
    1aac:	6e b4       	in	r6, 0x2e	; 46
    1aae:	78 94       	sei
    1ab0:	67 9c       	mul	r6, r7
    1ab2:	f0 01       	movw	r30, r0
    1ab4:	f3 95       	inc	r31
    1ab6:	09 94       	ijmp

00001ab8 <I_80__ADD_c0_c0>:
    1ab8:	00 c0       	rjmp	.+0      	; 0x1aba <I_80__ADD_c0_c0+0x2>
    1aba:	00 0f       	add	r16, r16
    1abc:	11 1f       	adc	r17, r17
    1abe:	5f b6       	in	r5, 0x3f	; 63
    1ac0:	01 96       	adiw	r24, 0x01	; 1
    1ac2:	f8 94       	cli
    1ac4:	2e bc       	out	0x2e, r2	; 46
    1ac6:	6e b4       	in	r6, 0x2e	; 46
    1ac8:	78 94       	sei
    1aca:	67 9c       	mul	r6, r7
    1acc:	f0 01       	movw	r30, r0
    1ace:	f3 95       	inc	r31
    1ad0:	09 94       	ijmp

00001ad2 <I_81__ADD_c0_c1>:
    1ad2:	00 c0       	rjmp	.+0      	; 0x1ad4 <I_81__ADD_c0_c1+0x2>
    1ad4:	02 0f       	add	r16, r18
    1ad6:	13 1f       	adc	r17, r19
    1ad8:	5f b6       	in	r5, 0x3f	; 63
    1ada:	01 96       	adiw	r24, 0x01	; 1
    1adc:	f8 94       	cli
    1ade:	2e bc       	out	0x2e, r2	; 46
    1ae0:	6e b4       	in	r6, 0x2e	; 46
    1ae2:	78 94       	sei
    1ae4:	67 9c       	mul	r6, r7
    1ae6:	f0 01       	movw	r30, r0
    1ae8:	f3 95       	inc	r31
    1aea:	09 94       	ijmp

00001aec <I_82__ADD_c0_c2>:
    1aec:	00 c0       	rjmp	.+0      	; 0x1aee <I_82__ADD_c0_c2+0x2>
    1aee:	04 0f       	add	r16, r20
    1af0:	15 1f       	adc	r17, r21
    1af2:	5f b6       	in	r5, 0x3f	; 63
    1af4:	01 96       	adiw	r24, 0x01	; 1
    1af6:	f8 94       	cli
    1af8:	2e bc       	out	0x2e, r2	; 46
    1afa:	6e b4       	in	r6, 0x2e	; 46
    1afc:	78 94       	sei
    1afe:	67 9c       	mul	r6, r7
    1b00:	f0 01       	movw	r30, r0
    1b02:	f3 95       	inc	r31
    1b04:	09 94       	ijmp

00001b06 <I_83__ADD_c0_c3>:
    1b06:	00 c0       	rjmp	.+0      	; 0x1b08 <I_83__ADD_c0_c3+0x2>
    1b08:	06 0f       	add	r16, r22
    1b0a:	17 1f       	adc	r17, r23
    1b0c:	5f b6       	in	r5, 0x3f	; 63
    1b0e:	01 96       	adiw	r24, 0x01	; 1
    1b10:	f8 94       	cli
    1b12:	2e bc       	out	0x2e, r2	; 46
    1b14:	6e b4       	in	r6, 0x2e	; 46
    1b16:	78 94       	sei
    1b18:	67 9c       	mul	r6, r7
    1b1a:	f0 01       	movw	r30, r0
    1b1c:	f3 95       	inc	r31
    1b1e:	09 94       	ijmp

00001b20 <I_84__ADD_c1_c0>:
    1b20:	00 c0       	rjmp	.+0      	; 0x1b22 <I_84__ADD_c1_c0+0x2>
    1b22:	20 0f       	add	r18, r16
    1b24:	31 1f       	adc	r19, r17
    1b26:	5f b6       	in	r5, 0x3f	; 63
    1b28:	01 96       	adiw	r24, 0x01	; 1
    1b2a:	f8 94       	cli
    1b2c:	2e bc       	out	0x2e, r2	; 46
    1b2e:	6e b4       	in	r6, 0x2e	; 46
    1b30:	78 94       	sei
    1b32:	67 9c       	mul	r6, r7
    1b34:	f0 01       	movw	r30, r0
    1b36:	f3 95       	inc	r31
    1b38:	09 94       	ijmp

00001b3a <I_85__ADD_c1_c1>:
    1b3a:	00 c0       	rjmp	.+0      	; 0x1b3c <I_85__ADD_c1_c1+0x2>
    1b3c:	22 0f       	add	r18, r18
    1b3e:	33 1f       	adc	r19, r19
    1b40:	5f b6       	in	r5, 0x3f	; 63
    1b42:	01 96       	adiw	r24, 0x01	; 1
    1b44:	f8 94       	cli
    1b46:	2e bc       	out	0x2e, r2	; 46
    1b48:	6e b4       	in	r6, 0x2e	; 46
    1b4a:	78 94       	sei
    1b4c:	67 9c       	mul	r6, r7
    1b4e:	f0 01       	movw	r30, r0
    1b50:	f3 95       	inc	r31
    1b52:	09 94       	ijmp

00001b54 <I_86__ADD_c1_c2>:
    1b54:	00 c0       	rjmp	.+0      	; 0x1b56 <I_86__ADD_c1_c2+0x2>
    1b56:	24 0f       	add	r18, r20
    1b58:	35 1f       	adc	r19, r21
    1b5a:	5f b6       	in	r5, 0x3f	; 63
    1b5c:	01 96       	adiw	r24, 0x01	; 1
    1b5e:	f8 94       	cli
    1b60:	2e bc       	out	0x2e, r2	; 46
    1b62:	6e b4       	in	r6, 0x2e	; 46
    1b64:	78 94       	sei
    1b66:	67 9c       	mul	r6, r7
    1b68:	f0 01       	movw	r30, r0
    1b6a:	f3 95       	inc	r31
    1b6c:	09 94       	ijmp

00001b6e <I_87__ADD_c1_c3>:
    1b6e:	00 c0       	rjmp	.+0      	; 0x1b70 <I_87__ADD_c1_c3+0x2>
    1b70:	26 0f       	add	r18, r22
    1b72:	37 1f       	adc	r19, r23
    1b74:	5f b6       	in	r5, 0x3f	; 63
    1b76:	01 96       	adiw	r24, 0x01	; 1
    1b78:	f8 94       	cli
    1b7a:	2e bc       	out	0x2e, r2	; 46
    1b7c:	6e b4       	in	r6, 0x2e	; 46
    1b7e:	78 94       	sei
    1b80:	67 9c       	mul	r6, r7
    1b82:	f0 01       	movw	r30, r0
    1b84:	f3 95       	inc	r31
    1b86:	09 94       	ijmp

00001b88 <I_88__ADD_c2_c0>:
    1b88:	00 c0       	rjmp	.+0      	; 0x1b8a <I_88__ADD_c2_c0+0x2>
    1b8a:	40 0f       	add	r20, r16
    1b8c:	51 1f       	adc	r21, r17
    1b8e:	5f b6       	in	r5, 0x3f	; 63
    1b90:	01 96       	adiw	r24, 0x01	; 1
    1b92:	f8 94       	cli
    1b94:	2e bc       	out	0x2e, r2	; 46
    1b96:	6e b4       	in	r6, 0x2e	; 46
    1b98:	78 94       	sei
    1b9a:	67 9c       	mul	r6, r7
    1b9c:	f0 01       	movw	r30, r0
    1b9e:	f3 95       	inc	r31
    1ba0:	09 94       	ijmp

00001ba2 <I_89__ADD_c2_c1>:
    1ba2:	00 c0       	rjmp	.+0      	; 0x1ba4 <I_89__ADD_c2_c1+0x2>
    1ba4:	42 0f       	add	r20, r18
    1ba6:	53 1f       	adc	r21, r19
    1ba8:	5f b6       	in	r5, 0x3f	; 63
    1baa:	01 96       	adiw	r24, 0x01	; 1
    1bac:	f8 94       	cli
    1bae:	2e bc       	out	0x2e, r2	; 46
    1bb0:	6e b4       	in	r6, 0x2e	; 46
    1bb2:	78 94       	sei
    1bb4:	67 9c       	mul	r6, r7
    1bb6:	f0 01       	movw	r30, r0
    1bb8:	f3 95       	inc	r31
    1bba:	09 94       	ijmp

00001bbc <I_8A__ADD_c2_c2>:
    1bbc:	00 c0       	rjmp	.+0      	; 0x1bbe <I_8A__ADD_c2_c2+0x2>
    1bbe:	44 0f       	add	r20, r20
    1bc0:	55 1f       	adc	r21, r21
    1bc2:	5f b6       	in	r5, 0x3f	; 63
    1bc4:	01 96       	adiw	r24, 0x01	; 1
    1bc6:	f8 94       	cli
    1bc8:	2e bc       	out	0x2e, r2	; 46
    1bca:	6e b4       	in	r6, 0x2e	; 46
    1bcc:	78 94       	sei
    1bce:	67 9c       	mul	r6, r7
    1bd0:	f0 01       	movw	r30, r0
    1bd2:	f3 95       	inc	r31
    1bd4:	09 94       	ijmp

00001bd6 <I_8B__ADD_c2_c3>:
    1bd6:	00 c0       	rjmp	.+0      	; 0x1bd8 <I_8B__ADD_c2_c3+0x2>
    1bd8:	46 0f       	add	r20, r22
    1bda:	57 1f       	adc	r21, r23
    1bdc:	5f b6       	in	r5, 0x3f	; 63
    1bde:	01 96       	adiw	r24, 0x01	; 1
    1be0:	f8 94       	cli
    1be2:	2e bc       	out	0x2e, r2	; 46
    1be4:	6e b4       	in	r6, 0x2e	; 46
    1be6:	78 94       	sei
    1be8:	67 9c       	mul	r6, r7
    1bea:	f0 01       	movw	r30, r0
    1bec:	f3 95       	inc	r31
    1bee:	09 94       	ijmp

00001bf0 <I_8C__ADD_c3_c0>:
    1bf0:	00 c0       	rjmp	.+0      	; 0x1bf2 <I_8C__ADD_c3_c0+0x2>
    1bf2:	60 0f       	add	r22, r16
    1bf4:	71 1f       	adc	r23, r17
    1bf6:	5f b6       	in	r5, 0x3f	; 63
    1bf8:	01 96       	adiw	r24, 0x01	; 1
    1bfa:	f8 94       	cli
    1bfc:	2e bc       	out	0x2e, r2	; 46
    1bfe:	6e b4       	in	r6, 0x2e	; 46
    1c00:	78 94       	sei
    1c02:	67 9c       	mul	r6, r7
    1c04:	f0 01       	movw	r30, r0
    1c06:	f3 95       	inc	r31
    1c08:	09 94       	ijmp

00001c0a <I_8D__ADD_c3_c1>:
    1c0a:	00 c0       	rjmp	.+0      	; 0x1c0c <I_8D__ADD_c3_c1+0x2>
    1c0c:	62 0f       	add	r22, r18
    1c0e:	73 1f       	adc	r23, r19
    1c10:	5f b6       	in	r5, 0x3f	; 63
    1c12:	01 96       	adiw	r24, 0x01	; 1
    1c14:	f8 94       	cli
    1c16:	2e bc       	out	0x2e, r2	; 46
    1c18:	6e b4       	in	r6, 0x2e	; 46
    1c1a:	78 94       	sei
    1c1c:	67 9c       	mul	r6, r7
    1c1e:	f0 01       	movw	r30, r0
    1c20:	f3 95       	inc	r31
    1c22:	09 94       	ijmp

00001c24 <I_8E__ADD_c3_c2>:
    1c24:	00 c0       	rjmp	.+0      	; 0x1c26 <I_8E__ADD_c3_c2+0x2>
    1c26:	64 0f       	add	r22, r20
    1c28:	75 1f       	adc	r23, r21
    1c2a:	5f b6       	in	r5, 0x3f	; 63
    1c2c:	01 96       	adiw	r24, 0x01	; 1
    1c2e:	f8 94       	cli
    1c30:	2e bc       	out	0x2e, r2	; 46
    1c32:	6e b4       	in	r6, 0x2e	; 46
    1c34:	78 94       	sei
    1c36:	67 9c       	mul	r6, r7
    1c38:	f0 01       	movw	r30, r0
    1c3a:	f3 95       	inc	r31
    1c3c:	09 94       	ijmp

00001c3e <I_8F__ADD_c3_c3>:
    1c3e:	00 c0       	rjmp	.+0      	; 0x1c40 <I_8F__ADD_c3_c3+0x2>
    1c40:	66 0f       	add	r22, r22
    1c42:	77 1f       	adc	r23, r23
    1c44:	5f b6       	in	r5, 0x3f	; 63
    1c46:	01 96       	adiw	r24, 0x01	; 1
    1c48:	f8 94       	cli
    1c4a:	2e bc       	out	0x2e, r2	; 46
    1c4c:	6e b4       	in	r6, 0x2e	; 46
    1c4e:	78 94       	sei
    1c50:	67 9c       	mul	r6, r7
    1c52:	f0 01       	movw	r30, r0
    1c54:	f3 95       	inc	r31
    1c56:	09 94       	ijmp

00001c58 <I_90__SUB_c0_c0>:
    1c58:	00 c0       	rjmp	.+0      	; 0x1c5a <I_90__SUB_c0_c0+0x2>
    1c5a:	00 1b       	sub	r16, r16
    1c5c:	11 0b       	sbc	r17, r17
    1c5e:	5f b6       	in	r5, 0x3f	; 63
    1c60:	01 96       	adiw	r24, 0x01	; 1
    1c62:	f8 94       	cli
    1c64:	2e bc       	out	0x2e, r2	; 46
    1c66:	6e b4       	in	r6, 0x2e	; 46
    1c68:	78 94       	sei
    1c6a:	67 9c       	mul	r6, r7
    1c6c:	f0 01       	movw	r30, r0
    1c6e:	f3 95       	inc	r31
    1c70:	09 94       	ijmp

00001c72 <I_91__SUB_c0_c1>:
    1c72:	00 c0       	rjmp	.+0      	; 0x1c74 <I_91__SUB_c0_c1+0x2>
    1c74:	02 1b       	sub	r16, r18
    1c76:	13 0b       	sbc	r17, r19
    1c78:	5f b6       	in	r5, 0x3f	; 63
    1c7a:	01 96       	adiw	r24, 0x01	; 1
    1c7c:	f8 94       	cli
    1c7e:	2e bc       	out	0x2e, r2	; 46
    1c80:	6e b4       	in	r6, 0x2e	; 46
    1c82:	78 94       	sei
    1c84:	67 9c       	mul	r6, r7
    1c86:	f0 01       	movw	r30, r0
    1c88:	f3 95       	inc	r31
    1c8a:	09 94       	ijmp

00001c8c <I_92__SUB_c0_c2>:
    1c8c:	00 c0       	rjmp	.+0      	; 0x1c8e <I_92__SUB_c0_c2+0x2>
    1c8e:	04 1b       	sub	r16, r20
    1c90:	15 0b       	sbc	r17, r21
    1c92:	5f b6       	in	r5, 0x3f	; 63
    1c94:	01 96       	adiw	r24, 0x01	; 1
    1c96:	f8 94       	cli
    1c98:	2e bc       	out	0x2e, r2	; 46
    1c9a:	6e b4       	in	r6, 0x2e	; 46
    1c9c:	78 94       	sei
    1c9e:	67 9c       	mul	r6, r7
    1ca0:	f0 01       	movw	r30, r0
    1ca2:	f3 95       	inc	r31
    1ca4:	09 94       	ijmp

00001ca6 <I_93__SUB_c0_c3>:
    1ca6:	00 c0       	rjmp	.+0      	; 0x1ca8 <I_93__SUB_c0_c3+0x2>
    1ca8:	06 1b       	sub	r16, r22
    1caa:	17 0b       	sbc	r17, r23
    1cac:	5f b6       	in	r5, 0x3f	; 63
    1cae:	01 96       	adiw	r24, 0x01	; 1
    1cb0:	f8 94       	cli
    1cb2:	2e bc       	out	0x2e, r2	; 46
    1cb4:	6e b4       	in	r6, 0x2e	; 46
    1cb6:	78 94       	sei
    1cb8:	67 9c       	mul	r6, r7
    1cba:	f0 01       	movw	r30, r0
    1cbc:	f3 95       	inc	r31
    1cbe:	09 94       	ijmp

00001cc0 <I_94__SUB_c1_c0>:
    1cc0:	00 c0       	rjmp	.+0      	; 0x1cc2 <I_94__SUB_c1_c0+0x2>
    1cc2:	20 1b       	sub	r18, r16
    1cc4:	31 0b       	sbc	r19, r17
    1cc6:	5f b6       	in	r5, 0x3f	; 63
    1cc8:	01 96       	adiw	r24, 0x01	; 1
    1cca:	f8 94       	cli
    1ccc:	2e bc       	out	0x2e, r2	; 46
    1cce:	6e b4       	in	r6, 0x2e	; 46
    1cd0:	78 94       	sei
    1cd2:	67 9c       	mul	r6, r7
    1cd4:	f0 01       	movw	r30, r0
    1cd6:	f3 95       	inc	r31
    1cd8:	09 94       	ijmp

00001cda <I_95__SUB_c1_c1>:
    1cda:	00 c0       	rjmp	.+0      	; 0x1cdc <I_95__SUB_c1_c1+0x2>
    1cdc:	22 1b       	sub	r18, r18
    1cde:	33 0b       	sbc	r19, r19
    1ce0:	5f b6       	in	r5, 0x3f	; 63
    1ce2:	01 96       	adiw	r24, 0x01	; 1
    1ce4:	f8 94       	cli
    1ce6:	2e bc       	out	0x2e, r2	; 46
    1ce8:	6e b4       	in	r6, 0x2e	; 46
    1cea:	78 94       	sei
    1cec:	67 9c       	mul	r6, r7
    1cee:	f0 01       	movw	r30, r0
    1cf0:	f3 95       	inc	r31
    1cf2:	09 94       	ijmp

00001cf4 <I_96__SUB_c1_c2>:
    1cf4:	00 c0       	rjmp	.+0      	; 0x1cf6 <I_96__SUB_c1_c2+0x2>
    1cf6:	24 1b       	sub	r18, r20
    1cf8:	35 0b       	sbc	r19, r21
    1cfa:	5f b6       	in	r5, 0x3f	; 63
    1cfc:	01 96       	adiw	r24, 0x01	; 1
    1cfe:	f8 94       	cli
    1d00:	2e bc       	out	0x2e, r2	; 46
    1d02:	6e b4       	in	r6, 0x2e	; 46
    1d04:	78 94       	sei
    1d06:	67 9c       	mul	r6, r7
    1d08:	f0 01       	movw	r30, r0
    1d0a:	f3 95       	inc	r31
    1d0c:	09 94       	ijmp

00001d0e <I_97__SUB_c1_c3>:
    1d0e:	00 c0       	rjmp	.+0      	; 0x1d10 <I_97__SUB_c1_c3+0x2>
    1d10:	26 1b       	sub	r18, r22
    1d12:	37 0b       	sbc	r19, r23
    1d14:	5f b6       	in	r5, 0x3f	; 63
    1d16:	01 96       	adiw	r24, 0x01	; 1
    1d18:	f8 94       	cli
    1d1a:	2e bc       	out	0x2e, r2	; 46
    1d1c:	6e b4       	in	r6, 0x2e	; 46
    1d1e:	78 94       	sei
    1d20:	67 9c       	mul	r6, r7
    1d22:	f0 01       	movw	r30, r0
    1d24:	f3 95       	inc	r31
    1d26:	09 94       	ijmp

00001d28 <I_98__SUB_c2_c0>:
    1d28:	00 c0       	rjmp	.+0      	; 0x1d2a <I_98__SUB_c2_c0+0x2>
    1d2a:	40 1b       	sub	r20, r16
    1d2c:	51 0b       	sbc	r21, r17
    1d2e:	5f b6       	in	r5, 0x3f	; 63
    1d30:	01 96       	adiw	r24, 0x01	; 1
    1d32:	f8 94       	cli
    1d34:	2e bc       	out	0x2e, r2	; 46
    1d36:	6e b4       	in	r6, 0x2e	; 46
    1d38:	78 94       	sei
    1d3a:	67 9c       	mul	r6, r7
    1d3c:	f0 01       	movw	r30, r0
    1d3e:	f3 95       	inc	r31
    1d40:	09 94       	ijmp

00001d42 <I_99__SUB_c2_c1>:
    1d42:	00 c0       	rjmp	.+0      	; 0x1d44 <I_99__SUB_c2_c1+0x2>
    1d44:	42 1b       	sub	r20, r18
    1d46:	53 0b       	sbc	r21, r19
    1d48:	5f b6       	in	r5, 0x3f	; 63
    1d4a:	01 96       	adiw	r24, 0x01	; 1
    1d4c:	f8 94       	cli
    1d4e:	2e bc       	out	0x2e, r2	; 46
    1d50:	6e b4       	in	r6, 0x2e	; 46
    1d52:	78 94       	sei
    1d54:	67 9c       	mul	r6, r7
    1d56:	f0 01       	movw	r30, r0
    1d58:	f3 95       	inc	r31
    1d5a:	09 94       	ijmp

00001d5c <I_9A__SUB_c2_c2>:
    1d5c:	00 c0       	rjmp	.+0      	; 0x1d5e <I_9A__SUB_c2_c2+0x2>
    1d5e:	44 1b       	sub	r20, r20
    1d60:	55 0b       	sbc	r21, r21
    1d62:	5f b6       	in	r5, 0x3f	; 63
    1d64:	01 96       	adiw	r24, 0x01	; 1
    1d66:	f8 94       	cli
    1d68:	2e bc       	out	0x2e, r2	; 46
    1d6a:	6e b4       	in	r6, 0x2e	; 46
    1d6c:	78 94       	sei
    1d6e:	67 9c       	mul	r6, r7
    1d70:	f0 01       	movw	r30, r0
    1d72:	f3 95       	inc	r31
    1d74:	09 94       	ijmp

00001d76 <I_9B__SUB_c2_c3>:
    1d76:	00 c0       	rjmp	.+0      	; 0x1d78 <I_9B__SUB_c2_c3+0x2>
    1d78:	46 1b       	sub	r20, r22
    1d7a:	57 0b       	sbc	r21, r23
    1d7c:	5f b6       	in	r5, 0x3f	; 63
    1d7e:	01 96       	adiw	r24, 0x01	; 1
    1d80:	f8 94       	cli
    1d82:	2e bc       	out	0x2e, r2	; 46
    1d84:	6e b4       	in	r6, 0x2e	; 46
    1d86:	78 94       	sei
    1d88:	67 9c       	mul	r6, r7
    1d8a:	f0 01       	movw	r30, r0
    1d8c:	f3 95       	inc	r31
    1d8e:	09 94       	ijmp

00001d90 <I_9C__SUB_c3_c0>:
    1d90:	00 c0       	rjmp	.+0      	; 0x1d92 <I_9C__SUB_c3_c0+0x2>
    1d92:	60 1b       	sub	r22, r16
    1d94:	71 0b       	sbc	r23, r17
    1d96:	5f b6       	in	r5, 0x3f	; 63
    1d98:	01 96       	adiw	r24, 0x01	; 1
    1d9a:	f8 94       	cli
    1d9c:	2e bc       	out	0x2e, r2	; 46
    1d9e:	6e b4       	in	r6, 0x2e	; 46
    1da0:	78 94       	sei
    1da2:	67 9c       	mul	r6, r7
    1da4:	f0 01       	movw	r30, r0
    1da6:	f3 95       	inc	r31
    1da8:	09 94       	ijmp

00001daa <I_9D__SUB_c3_c1>:
    1daa:	00 c0       	rjmp	.+0      	; 0x1dac <I_9D__SUB_c3_c1+0x2>
    1dac:	62 1b       	sub	r22, r18
    1dae:	73 0b       	sbc	r23, r19
    1db0:	5f b6       	in	r5, 0x3f	; 63
    1db2:	01 96       	adiw	r24, 0x01	; 1
    1db4:	f8 94       	cli
    1db6:	2e bc       	out	0x2e, r2	; 46
    1db8:	6e b4       	in	r6, 0x2e	; 46
    1dba:	78 94       	sei
    1dbc:	67 9c       	mul	r6, r7
    1dbe:	f0 01       	movw	r30, r0
    1dc0:	f3 95       	inc	r31
    1dc2:	09 94       	ijmp

00001dc4 <I_9E__SUB_c3_c2>:
    1dc4:	00 c0       	rjmp	.+0      	; 0x1dc6 <I_9E__SUB_c3_c2+0x2>
    1dc6:	64 1b       	sub	r22, r20
    1dc8:	75 0b       	sbc	r23, r21
    1dca:	5f b6       	in	r5, 0x3f	; 63
    1dcc:	01 96       	adiw	r24, 0x01	; 1
    1dce:	f8 94       	cli
    1dd0:	2e bc       	out	0x2e, r2	; 46
    1dd2:	6e b4       	in	r6, 0x2e	; 46
    1dd4:	78 94       	sei
    1dd6:	67 9c       	mul	r6, r7
    1dd8:	f0 01       	movw	r30, r0
    1dda:	f3 95       	inc	r31
    1ddc:	09 94       	ijmp

00001dde <I_9F__SUB_c3_c3>:
    1dde:	00 c0       	rjmp	.+0      	; 0x1de0 <I_9F__SUB_c3_c3+0x2>
    1de0:	66 1b       	sub	r22, r22
    1de2:	77 0b       	sbc	r23, r23
    1de4:	5f b6       	in	r5, 0x3f	; 63
    1de6:	01 96       	adiw	r24, 0x01	; 1
    1de8:	f8 94       	cli
    1dea:	2e bc       	out	0x2e, r2	; 46
    1dec:	6e b4       	in	r6, 0x2e	; 46
    1dee:	78 94       	sei
    1df0:	67 9c       	mul	r6, r7
    1df2:	f0 01       	movw	r30, r0
    1df4:	f3 95       	inc	r31
    1df6:	09 94       	ijmp
