
C:/Users/Brown/Documents/GitHub/avm/interp/build/interp.elf:     file format elf32-avr

SYMBOL TABLE:
00000000 l    d  .text	00000000 .text
000000ea l       .text	00000000 reset_handler
000000ac l       .text	00000000 default_isr
000000ae l       .text	00000000 timer0_compa_isr
000000e2 l       .text	00000000 timer0_compa_isr_done
0000301c l       .text	00000000 startup_func
00000200 l       .text	00000000 primary_00
00000af8 l       .text	00000000 cluster_tail_17_delay_1
00000208 l       .text	00000000 primary_01
00000210 l       .text	00000000 primary_02
00000218 l       .text	00000000 primary_03
00000220 l       .text	00000000 primary_04
00000228 l       .text	00000000 primary_05
00000230 l       .text	00000000 primary_06
00000238 l       .text	00000000 primary_07
00000240 l       .text	00000000 primary_08
00000248 l       .text	00000000 primary_09
00000250 l       .text	00000000 primary_0A
00000258 l       .text	00000000 primary_0B
00000260 l       .text	00000000 primary_0C
00000268 l       .text	00000000 primary_0D
00000270 l       .text	00000000 primary_0E
00000278 l       .text	00000000 primary_0F
00000280 l       .text	00000000 primary_10
00000afa l       .text	00000000 cluster_tail_17
00000288 l       .text	00000000 primary_11
00000290 l       .text	00000000 primary_12
00000298 l       .text	00000000 primary_13
000002a0 l       .text	00000000 primary_14
000002a8 l       .text	00000000 primary_15
000002b0 l       .text	00000000 primary_16
000002b8 l       .text	00000000 primary_17
000002c0 l       .text	00000000 primary_18
000002c8 l       .text	00000000 primary_19
000002d0 l       .text	00000000 primary_1A
000002d8 l       .text	00000000 primary_1B
000002e0 l       .text	00000000 primary_1C
000002e8 l       .text	00000000 primary_1D
000002f0 l       .text	00000000 primary_1E
000002f8 l       .text	00000000 primary_1F
00000300 l       .text	00000000 primary_20
00000308 l       .text	00000000 primary_21
00000310 l       .text	00000000 primary_22
00000318 l       .text	00000000 primary_23
00000320 l       .text	00000000 primary_24
00000328 l       .text	00000000 primary_25
00000330 l       .text	00000000 primary_26
00000338 l       .text	00000000 primary_27
00000340 l       .text	00000000 primary_28
00000348 l       .text	00000000 primary_29
00000350 l       .text	00000000 primary_2A
00000358 l       .text	00000000 primary_2B
00000360 l       .text	00000000 primary_2C
00000368 l       .text	00000000 primary_2D
00000370 l       .text	00000000 primary_2E
00000378 l       .text	00000000 primary_2F
00000380 l       .text	00000000 primary_30
00000ae0 l       .text	00000000 flags_commit_18_delay_1
00000388 l       .text	00000000 primary_31
00000390 l       .text	00000000 primary_32
00000398 l       .text	00000000 primary_33
000003a0 l       .text	00000000 primary_34
000003a8 l       .text	00000000 primary_35
000003b0 l       .text	00000000 primary_36
000003b8 l       .text	00000000 primary_37
000003c0 l       .text	00000000 primary_38
000003c8 l       .text	00000000 primary_39
000003d0 l       .text	00000000 primary_3A
000003d8 l       .text	00000000 primary_3B
000003e0 l       .text	00000000 primary_3C
000003e8 l       .text	00000000 primary_3D
000003f0 l       .text	00000000 primary_3E
000003f8 l       .text	00000000 primary_3F
00000400 l       .text	00000000 primary_40
00000b14 l       .text	00000000 cluster_tail_18_delay_1
00000408 l       .text	00000000 primary_41
00000410 l       .text	00000000 primary_42
00000418 l       .text	00000000 primary_43
00000420 l       .text	00000000 primary_44
00000428 l       .text	00000000 primary_45
00000430 l       .text	00000000 primary_46
00000438 l       .text	00000000 primary_47
00000440 l       .text	00000000 primary_48
00000448 l       .text	00000000 primary_49
00000450 l       .text	00000000 primary_4A
00000458 l       .text	00000000 primary_4B
00000460 l       .text	00000000 primary_4C
00000468 l       .text	00000000 primary_4D
00000470 l       .text	00000000 primary_4E
00000478 l       .text	00000000 primary_4F
00000480 l       .text	00000000 primary_50
00000b12 l       .text	00000000 cluster_tail_18_delay_2
00000488 l       .text	00000000 primary_51
00000490 l       .text	00000000 primary_52
00000498 l       .text	00000000 primary_53
000004a0 l       .text	00000000 primary_54
000004a8 l       .text	00000000 primary_55
000004b0 l       .text	00000000 primary_56
000004b8 l       .text	00000000 primary_57
000004c0 l       .text	00000000 primary_58
000004c8 l       .text	00000000 primary_59
000004d0 l       .text	00000000 primary_5A
000004d8 l       .text	00000000 primary_5B
000004e0 l       .text	00000000 primary_5C
000004e8 l       .text	00000000 primary_5D
000004f0 l       .text	00000000 primary_5E
000004f8 l       .text	00000000 primary_5F
00000500 l       .text	00000000 primary_60
00000b16 l       .text	00000000 cluster_tail_18
00000508 l       .text	00000000 primary_61
00000510 l       .text	00000000 primary_62
00000518 l       .text	00000000 primary_63
00000520 l       .text	00000000 primary_64
00000528 l       .text	00000000 primary_65
00000530 l       .text	00000000 primary_66
00000538 l       .text	00000000 primary_67
00000540 l       .text	00000000 primary_68
00000548 l       .text	00000000 primary_69
00000550 l       .text	00000000 primary_6A
00000558 l       .text	00000000 primary_6B
00000560 l       .text	00000000 primary_6C
00000568 l       .text	00000000 primary_6D
00000570 l       .text	00000000 primary_6E
00000578 l       .text	00000000 primary_6F
00000580 l       .text	00000000 primary_70
00000588 l       .text	00000000 primary_71
00000590 l       .text	00000000 primary_72
00000598 l       .text	00000000 primary_73
000005a0 l       .text	00000000 primary_74
000005a8 l       .text	00000000 primary_75
000005b0 l       .text	00000000 primary_76
000005b8 l       .text	00000000 primary_77
000005c0 l       .text	00000000 primary_78
000005c8 l       .text	00000000 primary_79
000005d0 l       .text	00000000 primary_7A
000005d8 l       .text	00000000 primary_7B
000005e0 l       .text	00000000 primary_7C
000005e8 l       .text	00000000 primary_7D
000005f0 l       .text	00000000 primary_7E
000005f8 l       .text	00000000 primary_7F
00000600 l       .text	00000000 primary_80
00000608 l       .text	00000000 primary_81
00000610 l       .text	00000000 primary_82
00000618 l       .text	00000000 primary_83
00000620 l       .text	00000000 primary_84
00000628 l       .text	00000000 primary_85
00000630 l       .text	00000000 primary_86
00000638 l       .text	00000000 primary_87
00000640 l       .text	00000000 primary_88
00000648 l       .text	00000000 primary_89
00000650 l       .text	00000000 primary_8A
00000658 l       .text	00000000 primary_8B
00000660 l       .text	00000000 primary_8C
00000668 l       .text	00000000 primary_8D
00000670 l       .text	00000000 primary_8E
00000678 l       .text	00000000 primary_8F
00000680 l       .text	00000000 primary_90
00000688 l       .text	00000000 primary_91
00000690 l       .text	00000000 primary_92
00000698 l       .text	00000000 primary_93
000006a0 l       .text	00000000 primary_94
000006a8 l       .text	00000000 primary_95
000006b0 l       .text	00000000 primary_96
000006b8 l       .text	00000000 primary_97
000006c0 l       .text	00000000 primary_98
000006c8 l       .text	00000000 primary_99
000006d0 l       .text	00000000 primary_9A
000006d8 l       .text	00000000 primary_9B
000006e0 l       .text	00000000 primary_9C
000006e8 l       .text	00000000 primary_9D
000006f0 l       .text	00000000 primary_9E
000006f8 l       .text	00000000 primary_9F
00000700 l       .text	00000000 primary_A0
00000708 l       .text	00000000 primary_A1
00000710 l       .text	00000000 primary_A2
00000718 l       .text	00000000 primary_A3
00000720 l       .text	00000000 primary_A4
00000728 l       .text	00000000 primary_A5
00000730 l       .text	00000000 primary_A6
00000738 l       .text	00000000 primary_A7
00000740 l       .text	00000000 primary_A8
00000748 l       .text	00000000 primary_A9
00000750 l       .text	00000000 primary_AA
00000758 l       .text	00000000 primary_AB
00000760 l       .text	00000000 primary_AC
00000768 l       .text	00000000 primary_AD
00000770 l       .text	00000000 primary_AE
00000778 l       .text	00000000 primary_AF
00000780 l       .text	00000000 primary_B0_push16_r0
00000788 l       .text	00000000 primary_B1_push16_r1
00000790 l       .text	00000000 primary_B2_push16_r2
00000798 l       .text	00000000 primary_B3_push16_r3
000007a0 l       .text	00000000 primary_B4_push16_r4
000007a8 l       .text	00000000 primary_B5_push16_r5
000007b0 l       .text	00000000 primary_B6_push16_r6
000007b8 l       .text	00000000 primary_B7_push16_r7
000007c0 l       .text	00000000 primary_B8_pop16_r0
000007c8 l       .text	00000000 primary_B9_pop16_r1
000007d0 l       .text	00000000 primary_BA_pop16_r2
000007d8 l       .text	00000000 primary_BB_pop16_r3
000007e0 l       .text	00000000 primary_BC_pop16_r4
000007e8 l       .text	00000000 primary_BD_pop16_r5
000007f0 l       .text	00000000 primary_BE_pop16_r6
000007f8 l       .text	00000000 primary_BF_pop16_r7
00000800 l       .text	00000000 primary_C0_ldi8_c0
00000b6a l       .text	00000000 ldi8_c0_apply
00000b28 l       .text	00000000 fetch_imm8_then_ijmp
00000808 l       .text	00000000 primary_C1_ldi8_c1
00000b70 l       .text	00000000 ldi8_c1_apply
00000810 l       .text	00000000 primary_C2_ldi8_c2
00000b76 l       .text	00000000 ldi8_c2_apply
00000818 l       .text	00000000 primary_C3_ldi8_c3
00000b7c l       .text	00000000 ldi8_c3_apply
00000820 l       .text	00000000 primary_C4_ldi16_c0
00000b82 l       .text	00000000 ldi16_c0_apply
00000b46 l       .text	00000000 fetch_imm16_then_ijmp
00000828 l       .text	00000000 primary_C5_ldi16_c1
00000b88 l       .text	00000000 ldi16_c1_apply
00000830 l       .text	00000000 primary_C6_ldi16_c2
00000b8e l       .text	00000000 ldi16_c2_apply
00000838 l       .text	00000000 primary_C7_ldi16_c3
00000b94 l       .text	00000000 ldi16_c3_apply
00000840 l       .text	00000000 primary_C8_addi_s8_c0
00000b9a l       .text	00000000 addi_s8_c0_apply
00000b34 l       .text	00000000 fetch_simm8_then_ijmp
00000848 l       .text	00000000 primary_C9_addi_s8_c1
00000ba0 l       .text	00000000 addi_s8_c1_apply
00000850 l       .text	00000000 primary_CA_addi_s8_c2
00000ba6 l       .text	00000000 addi_s8_c2_apply
00000858 l       .text	00000000 primary_CB_addi_s8_c3
00000bac l       .text	00000000 addi_s8_c3_apply
00000860 l       .text	00000000 primary_CC_cmpi_s8_c0
00000bb2 l       .text	00000000 cmpi_s8_c0_apply
00000868 l       .text	00000000 primary_CD_cmpi_s8_c1
00000bba l       .text	00000000 cmpi_s8_c1_apply
00000870 l       .text	00000000 primary_CE_cmpi_s8_c2
00000bc2 l       .text	00000000 cmpi_s8_c2_apply
00000878 l       .text	00000000 primary_CF_cmpi_s8_c3
00000bca l       .text	00000000 cmpi_s8_c3_apply
00000880 l       .text	00000000 primary_D0_breq8_rel8
00000bd2 l       .text	00000000 breq8_rel8_decode_func
00000888 l       .text	00000000 primary_D1_brne8_rel8
00000be2 l       .text	00000000 brne8_rel8_decode_func
00000890 l       .text	00000000 primary_D2_brult8_rel8
00000bf2 l       .text	00000000 brult8_rel8_decode_func
00000898 l       .text	00000000 primary_D3_brslt8_rel8
00000c02 l       .text	00000000 brslt8_rel8_decode_func
000008a0 l       .text	00000000 primary_D4_jmp8_rel8
00000c80 l       .text	00000000 jmp8_rel8_func
000008a8 l       .text	00000000 primary_D5_call8_rel8
00000c98 l       .text	00000000 call8_rel8_func
000008b0 l       .text	00000000 primary_D6_adjsp
00000cb6 l       .text	00000000 adjsp_simm8_func
000008b8 l       .text	00000000 primary_D7_sys
00000d38 l       .text	00000000 sys_decode_func
000008c0 l       .text	00000000 primary_D7_sys_end
000008c0 l       .text	00000000 primary_D8_bruge8_rel8
00000c12 l       .text	00000000 bruge8_rel8_decode_func
000008c8 l       .text	00000000 primary_D9_brsge8_rel8
00000c22 l       .text	00000000 brsge8_rel8_decode_func
000008d0 l       .text	00000000 primary_DA_breq16_rel16
00000c4e l       .text	00000000 branch_rel16_decode_func
000008d8 l       .text	00000000 primary_DB_brne16_rel16
000008e0 l       .text	00000000 primary_DC_brult16_rel16
000008e8 l       .text	00000000 primary_DD_bruge16_rel16
000008f0 l       .text	00000000 primary_DE_brslt16_rel16
000008f8 l       .text	00000000 primary_DF_brsge16_rel16
00000900 l       .text	00000000 primary_E0_jmp16
00000cd0 l       .text	00000000 jmp_call_rel16_func
00000908 l       .text	00000000 primary_E1_call16
00000910 l       .text	00000000 primary_E2_jmpf
00000d04 l       .text	00000000 jmp_call_far_func
00000918 l       .text	00000000 primary_E3_callf
00000920 l       .text	00000000 primary_E4_jmpp_q0
00000f78 l       .text	00000000 jmpp_seek_and_dispatch_func
00000928 l       .text	00000000 primary_E5_jmpp_q1
00000930 l       .text	00000000 primary_E6_jmpp_q2
00000938 l       .text	00000000 primary_E7_jmpp_q3
00000940 l       .text	00000000 primary_E8_callp_q0
00000f7a l       .text	00000000 push_pc_seek_and_dispatch_func
00000948 l       .text	00000000 primary_E9_callp_q1
00000950 l       .text	00000000 primary_EA_callp_q2
00000958 l       .text	00000000 primary_EB_callp_q3
00000960 l       .text	00000000 primary_EC_reserved
00000fd4 l       .text	00000000 invalid_primary_instruction_func
00000968 l       .text	00000000 primary_ED_reserved
00000970 l       .text	00000000 primary_EE_reserved
00000978 l       .text	00000000 primary_EF_ret
00000f88 l       .text	00000000 seek_and_dispatch_func
00000980 l       .text	00000000 primary_F0_cold_veneer_page
0000114e l       .text	00000000 f0_veneer_table
00000a92 l       .text	00000000 secondary_width_1_stub
00000988 l       .text	00000000 primary_F1_dense_2word_page
0000122a l       .text	00000000 f1_table
00000a76 l       .text	00000000 bounded_width_2_decode
00000990 l       .text	00000000 primary_F2_dense_3word_page_a
0000146a l       .text	00000000 f2_table
00000a96 l       .text	00000000 secondary_width_3_stub
00000998 l       .text	00000000 primary_F3_dense_3word_page_b
000016aa l       .text	00000000 f3_table
000009a0 l       .text	00000000 primary_F4_dense_3word_page_c
000019e0 l       .text	00000000 f4_table
000009a8 l       .text	00000000 primary_F5_dense_4word_page_a
00001e30 l       .text	00000000 f5_table
00000a9a l       .text	00000000 secondary_width_4_stub
000009b0 l       .text	00000000 primary_F6_dense_4word_page_b
00002130 l       .text	00000000 f6_table
000009b8 l       .text	00000000 primary_F7_dense_5word_page_a
000023b0 l       .text	00000000 f7_table
00000a9e l       .text	00000000 secondary_width_5_stub
000009c0 l       .text	00000000 primary_F8_simple_condition_page
0000297e l       .text	00000000 f8_table
000009c8 l       .text	00000000 primary_F9_runtime_bitwise_page
00000a00 l       .text	00000000 f9_bitop_entry
000009d0 l       .text	00000000 primary_FA_shift_page
00002b78 l       .text	00000000 fa_forward_table
00000a4e l       .text	00000000 fa_shift_decode
000009d8 l       .text	00000000 primary_FB_cmov_eq_ne_page
00002d60 l       .text	00000000 cmov_table
00000aba l       .text	00000000 cmov_gate
000009e0 l       .text	00000000 primary_FC_cmov_ult_uge_page
000009e8 l       .text	00000000 primary_FD_cmov_slt_sge_page
000009f0 l       .text	00000000 primary_FE_mul16_page
00002e60 l       .text	00000000 fe_forward_table
000009f8 l       .text	00000000 primary_FF_reserved
00000a00 l       .text	00000000 primary_table_end
00000ffc l       .text	00000000 cluster_a_tail_18
00000fd6 l       .text	00000000 invalid_secondary_instruction_func
00000a4e l       .text	00000000 f9_bitop_end
00000a4e l       .text	00000000 fa_shift_decode_start
00000a76 l       .text	00000000 fa_shift_decode_end
00000a76 l       .text	00000000 bounded_width_2_decode_start
00000ab8 l       .text	00000000 invalid_secondary
00000a92 l       .text	00000000 bounded_width_2_decode_end
00000a92 l       .text	00000000 bounded_page_decoder_start
00000aa2 l       .text	00000000 bounded_page_decode
00000a96 l       .text	00000000 secondary_width_1_stub_end
00000a9a l       .text	00000000 secondary_width_3_stub_end
00000a9e l       .text	00000000 secondary_width_4_stub_end
00000aa2 l       .text	00000000 secondary_width_5_stub_end
00000ab0 l       .text	00000000 bounded_page_valid
00000aba l       .text	00000000 bounded_page_decoder_end
00000ade l       .text	00000000 cmov_invalid
00000adc l       .text	00000000 cmov_no_move
00000fda l       .text	00000000 cluster_a_tail
00000ae0 l       .text	00000000 cmov_gate_end
00000ae2 l       .text	00000000 flags_commit_18
00000af6 l       .text	00000000 cmpi_s8_flags_commit_17
00000b10 l       .text	00000000 cluster_tail_18_delay_3
00000fc8 l       .text	00000000 interp_delay_12
00000b62 l       .text	00000000 immediate_result_tail_reverse_delay_6
00000b64 l       .text	00000000 immediate_result_tail_reverse_delay_4
00000b66 l       .text	00000000 immediate_result_tail_reverse_delay_3
00000c32 l       .text	00000000 branch_rel8_not_taken_func
00000c3a l       .text	00000000 branch_rel8_taken_func
00000c78 l       .text	00000000 branch_rel16_taken_func
00000c68 l       .text	00000000 branch_rel16_not_taken_func
00000cf0 l       .text	00000000 rel16_read_high
00000c80 l       .text	00000000 branch_rel16_block_end
00000d00 l       .text	00000000 jmp_rel16_wait
00000d34 l       .text	00000000 jmp_far_wait
00000d20 l       .text	00000000 far_launch_high
00000fc4 l       .text	00000000 interp_delay_14
00000fd0 l       .text	00000000 interp_delay_7
00000d4a l       .text	00000000 sys_dispatch_table
00000d44 l       .text	00000000 sys_dispatch_func
00000f4a l       .text	00000000 sys_debug_putc_func
00000f50 l       .text	00000000 sys_debug_break_func
00000f54 l       .text	00000000 sys_millis_func
00000f62 l       .text	00000000 sys_millis32_func
00000fd8 l       .text	00000000 invalid_syscall_func
00000f4a l       .text	00000000 sys_dispatch_table_end
00000fcc l       .text	00000000 interp_delay_10
00000fbe l       .text	00000000 interp_delay_17
00000fc0 l       .text	00000000 interp_delay_16
00000fc2 l       .text	00000000 interp_delay_15
00000fc6 l       .text	00000000 interp_delay_13
00000fca l       .text	00000000 interp_delay_11
00000fce l       .text	00000000 interp_delay_9
00000fd2 l       .text	00000000 unimplemented_instruction_func
00000fdc l       .text	00000000 cluster_a_tail_17_delay_2
00000fe0 l       .text	00000000 cluster_a_tail_17
00000fde l       .text	00000000 cluster_a_start
00000fde l       .text	00000000 cluster_a_tail_17_delay_1
00000ff6 l       .text	00000000 cluster_a_tail_18_delay_2
00000ff8 l       .text	00000000 flags_commit_a_18_delay_1
00000ffa l       .text	00000000 cluster_a_tail_18_delay_1
0000100e l       .text	00000000 cluster_a_end
0000100e l       .text	00000000 f0_fetch_u8_start
0000100e l       .text	00000000 f0_fetch_spec
0000100e l       .text	00000000 f0_fetch_s8
0000100e l       .text	00000000 f0_fetch_u8
0000101a l       .text	00000000 f0_fetch_u8_end
0000101a l       .text	00000000 f0_fetch_stack_u8_decode_r_to_xz_start
0000101a l       .text	00000000 f0_fetch_stack_u8_decode_r_to_xz
00001036 l       .text	00000000 f0_fetch_stack_u8_decode_r_to_xz_end
00001036 l       .text	00000000 f0_fetch_u16_start
00001036 l       .text	00000000 f0_fetch_addr16
00001036 l       .text	00000000 f0_fetch_imm16
00001036 l       .text	00000000 f0_fetch_u16
00001054 l       .text	00000000 f0_fetch_u16_end
00001054 l       .text	00000000 f0_ldi8_r0_body
0000105c l       .text	00000000 f0_ldi8_r1_body
00001064 l       .text	00000000 f0_ldi8_r2_body
0000106c l       .text	00000000 f0_ldi8_r3_body
00001074 l       .text	00000000 f0_ldi16_r0_body
0000107c l       .text	00000000 f0_ldi16_r1_body
00001084 l       .text	00000000 f0_ldi16_r2_body
0000108c l       .text	00000000 f0_ldi16_r3_body
00001094 l       .text	00000000 f0_addi_s8_r0_body
000010a2 l       .text	00000000 f0_addi_s8_r1_body
000010b0 l       .text	00000000 f0_addi_s8_r2_body
000010be l       .text	00000000 f0_addi_s8_r3_body
000010cc l       .text	00000000 f0_cmpi_s8_r0_body
000010dc l       .text	00000000 f0_cmpi_s8_r1_body
000010ec l       .text	00000000 f0_cmpi_s8_r2_body
000010fc l       .text	00000000 f0_cmpi_s8_r3_body
0000110c l       .text	00000000 f0_leasp_r_body
00001114 l       .text	00000000 f0_ldsp8u_r_body
0000111e l       .text	00000000 f0_ldsp8s_r_body
0000112c l       .text	00000000 f0_stsp8_r_body
00001134 l       .text	00000000 f0_ldsp16_r_body
00001140 l       .text	00000000 f0_stsp16_r_body
0000114c l       .text	00000000 secondary_tables_before_cluster_b
0000114c l       .text	00000000 secondary_unimplemented_a_func
0000122a l       .text	00000000 f0_veneer_table_end
0000146a l       .text	00000000 f1_table_end
000016aa l       .text	00000000 f2_table_end
000019aa l       .text	00000000 f3_table_end
000019aa l       .text	00000000 cluster_b_start
000019aa l       .text	00000000 cluster_b_tail_17_delay_1
000019ac l       .text	00000000 cluster_b_tail_17
000019c2 l       .text	00000000 flags_commit_b_18_delay_2
000019c4 l       .text	00000000 cluster_b_tail_18_delay_2
000019ca l       .text	00000000 cluster_b_tail_18
000019c6 l       .text	00000000 flags_commit_b_18_delay_1
000019c8 l       .text	00000000 cluster_b_tail_18_delay_1
000019ca l       .text	00000000 cluster_b_tail
000019dc l       .text	00000000 cluster_b_end
000019dc l       .text	00000000 secondary_tables_before_cluster_c
000019dc l       .text	00000000 secondary_unimplemented_b_func
000019de l       .text	00000000 secondary_invalid_b_func
00001e30 l       .text	00000000 f4_table_end
00002130 l       .text	00000000 f5_table_end
000023b0 l       .text	00000000 f6_table_end
0000296c l       .text	00000000 cluster_c_tail_18
00002950 l       .text	00000000 f7_table_end
00002950 l       .text	00000000 cluster_c_start
00002950 l       .text	00000000 cluster_c_tail_17_delay_1
00002952 l       .text	00000000 cluster_c_tail_17
00002968 l       .text	00000000 cluster_c_tail_18_delay_2
0000296a l       .text	00000000 cluster_c_tail_18_delay_1
0000296c l       .text	00000000 cluster_c_tail
0000296c l       .text	00000000 cmov_tail
0000297e l       .text	00000000 cluster_c_end
0000297e l       .text	00000000 secondary_tables_after_cluster_c
00002b5e l       .text	00000000 f8_table_end
00002b5e l       .text	00000000 fa_immediate_jump_table
00002c38 l       .text	00000000 fa_shl_c0
00002c50 l       .text	00000000 fa_shl_c1
00002c68 l       .text	00000000 fa_shl_c2
00002c80 l       .text	00000000 fa_shl_c3
00002c98 l       .text	00000000 fa_lsr_c0
00002cb0 l       .text	00000000 fa_lsr_c1
00002cc8 l       .text	00000000 fa_lsr_c2
00002ce0 l       .text	00000000 fa_lsr_c3
00002cf8 l       .text	00000000 fa_asr_c0
00002d12 l       .text	00000000 fa_asr_c1
00002d2c l       .text	00000000 fa_asr_c2
00002d46 l       .text	00000000 fa_asr_c3
00002b76 l       .text	00000000 fa_immediate_invalid
00002b78 l       .text	00000000 fa_immediate_jump_table_end
00002c38 l       .text	00000000 fa_forward_table_end
00002d60 l       .text	00000000 fa_shift_bodies_end
00002e60 l       .text	00000000 cmov_table_end
00002f60 l       .text	00000000 fe_mul16_r0
00002f70 l       .text	00000000 fe_mul16_r1
00002f80 l       .text	00000000 fe_mul16_r2
00002f90 l       .text	00000000 fe_mul16_r3
00002fa0 l       .text	00000000 fe_mul16_r4
00002fb0 l       .text	00000000 fe_mul16_r5
00002fc0 l       .text	00000000 fe_mul16_r6
00002fd0 l       .text	00000000 fe_mul16_r7
00002f60 l       .text	00000000 fe_forward_table_end
00002fe0 l       .text	00000000 fe_mul16_bodies_end
00002fe0 l       .text	00000000 fx_seek_to_pc
00003016 l       .text	00000000 fx_seek_delay_10
0000300a l       .text	00000000 fx_seek_delay_17
0000300c l       .text	00000000 fx_seek_delay_16
0000300e l       .text	00000000 fx_seek_delay_14
00003010 l       .text	00000000 fx_seek_delay_13
00003012 l       .text	00000000 fx_seek_delay_12
00003014 l       .text	00000000 fx_seek_delay_11
00003018 l       .text	00000000 fx_seek_delay_9
0000301a l       .text	00000000 fx_seek_delay_7
0000321e l       .text	00000000 hardware_init_pins_func
0000328c l       .text	00000000 oled_startup_init_func
0000320a l       .text	00000000 fx_spi_transfer_blocking
00003216 l       .text	00000000 fx_startup_wake_delay
0000309c l       .text	00000000 startup_find_development_image
000030cc l       .text	00000000 startup_read_header
000031ac l       .text	00000000 startup_try_tail
00003186 l       .text	00000000 startup_invalid_image
000031f0 l       .text	00000000 fx_startup_begin_read
00003206 l       .text	00000000 fx_startup_read_byte
0000314a l       .text	00000000 startup_copy_data
00003172 l       .text	00000000 startup_enter_image
00003166 l       .text	00000000 startup_copy_data_loop
0000318c l       .text	00000000 timer0_init_func
0000318a l       .text	00000000 startup_invalid_image_loop
000031ea l       .text	00000000 startup_try_tail_fail
000031ec l       .text	00000000 startup_try_tail_fail_disabled
00003272 l       .text	00000000 oled_reset_delay_5ms_func
00003280 l       .text	00000000 oled_spi_transfer_blocking_func
000032ac l       .text	00000000 oled_boot_program
000032b9 l       .text	00000000 oled_boot_program_end
00000a44 l       .text	00000000 .Lf9_high_operation
00000a38 l       .text	00000000 .Lf9_and
00000a3c l       .text	00000000 .Lf9_store
00000a4c l       .text	00000000 .Lf9_invalid
00000a6e l       .text	00000000 .Lfa_register_count
00002c44 l       .text	00000000 .Lfa_shl_no8_1562
00002c4e l       .text	00000000 .Lfa_shl_done_1562
00002c46 l       .text	00000000 .Lfa_shl_loop_1562
00002c5c l       .text	00000000 .Lfa_shl_no8_1563
00002c66 l       .text	00000000 .Lfa_shl_done_1563
00002c5e l       .text	00000000 .Lfa_shl_loop_1563
00002c74 l       .text	00000000 .Lfa_shl_no8_1564
00002c7e l       .text	00000000 .Lfa_shl_done_1564
00002c76 l       .text	00000000 .Lfa_shl_loop_1564
00002c8c l       .text	00000000 .Lfa_shl_no8_1565
00002c96 l       .text	00000000 .Lfa_shl_done_1565
00002c8e l       .text	00000000 .Lfa_shl_loop_1565
00002ca4 l       .text	00000000 .Lfa_lsr_no8_1566
00002cae l       .text	00000000 .Lfa_lsr_done_1566
00002ca6 l       .text	00000000 .Lfa_lsr_loop_1566
00002cbc l       .text	00000000 .Lfa_lsr_no8_1567
00002cc6 l       .text	00000000 .Lfa_lsr_done_1567
00002cbe l       .text	00000000 .Lfa_lsr_loop_1567
00002cd4 l       .text	00000000 .Lfa_lsr_no8_1568
00002cde l       .text	00000000 .Lfa_lsr_done_1568
00002cd6 l       .text	00000000 .Lfa_lsr_loop_1568
00002cec l       .text	00000000 .Lfa_lsr_no8_1569
00002cf6 l       .text	00000000 .Lfa_lsr_done_1569
00002cee l       .text	00000000 .Lfa_lsr_loop_1569
00002d06 l       .text	00000000 .Lfa_asr_no8_1570
00002d10 l       .text	00000000 .Lfa_asr_done_1570
00002d08 l       .text	00000000 .Lfa_asr_loop_1570
00002d20 l       .text	00000000 .Lfa_asr_no8_1571
00002d2a l       .text	00000000 .Lfa_asr_done_1571
00002d22 l       .text	00000000 .Lfa_asr_loop_1571
00002d3a l       .text	00000000 .Lfa_asr_no8_1572
00002d44 l       .text	00000000 .Lfa_asr_done_1572
00002d3c l       .text	00000000 .Lfa_asr_loop_1572
00002d54 l       .text	00000000 .Lfa_asr_no8_1573
00002d5e l       .text	00000000 .Lfa_asr_done_1573
00002d56 l       .text	00000000 .Lfa_asr_loop_1573
000030ba l       .text	00000000 .L11
000030e0 l       .text	00000000 .L12
000030e8 l       .text	00000000 .L13
000030f0 l       .text	00000000 .L14
000030f8 l       .text	00000000 .L15
00003100 l       .text	00000000 .L16
0000312e l       .text	00000000 .L17
0000313c l       .text	00000000 .L18
00003136 l       .text	00000000 .L21
0000314a l       .text	00000000 .L31
0000315e l       .text	00000000 .L41
0000320c l       .text	00000000 .L19
00003218 l       .text	00000000 .L110
00003276 l       .text	00000000 .L22
00003274 l       .text	00000000 .L111
00003282 l       .text	00000000 .L112
0000329c l       .text	00000000 .L113
00000200 g       .text	00000000 primary_table
00000000 g       .text	00000000 __trampolines_start
000032ba g       .text	00000000 _etext
00000000 g       .text	00000000 __trampolines_end
00000000 g       .text	00000000 __dtors_end
00810000 g       .text	00000000 __eeprom_end
00000000 g       .text	000000ac __vectors
00000000 g       .text	00000000 __ctors_start
00000000 g       .text	00000000 __dtors_start
00000000 g       .text	00000000 __ctors_end
00800100 g       .text	00000000 _end
00000200 g       .text	00000000 abvm_interp



Disassembly of section .text:

00000000 <__vectors>:
       0:	0c 94 75 00 	jmp	0xea	; 0xea <reset_handler>
       4:	0c 94 56 00 	jmp	0xac	; 0xac <default_isr>
       8:	0c 94 56 00 	jmp	0xac	; 0xac <default_isr>
       c:	0c 94 56 00 	jmp	0xac	; 0xac <default_isr>
      10:	0c 94 56 00 	jmp	0xac	; 0xac <default_isr>
      14:	0c 94 56 00 	jmp	0xac	; 0xac <default_isr>
      18:	0c 94 56 00 	jmp	0xac	; 0xac <default_isr>
      1c:	0c 94 56 00 	jmp	0xac	; 0xac <default_isr>
      20:	0c 94 56 00 	jmp	0xac	; 0xac <default_isr>
      24:	0c 94 56 00 	jmp	0xac	; 0xac <default_isr>
      28:	0c 94 56 00 	jmp	0xac	; 0xac <default_isr>
      2c:	0c 94 56 00 	jmp	0xac	; 0xac <default_isr>
      30:	0c 94 56 00 	jmp	0xac	; 0xac <default_isr>
      34:	0c 94 56 00 	jmp	0xac	; 0xac <default_isr>
      38:	0c 94 56 00 	jmp	0xac	; 0xac <default_isr>
      3c:	0c 94 56 00 	jmp	0xac	; 0xac <default_isr>
      40:	0c 94 56 00 	jmp	0xac	; 0xac <default_isr>
      44:	0c 94 56 00 	jmp	0xac	; 0xac <default_isr>
      48:	0c 94 56 00 	jmp	0xac	; 0xac <default_isr>
      4c:	0c 94 56 00 	jmp	0xac	; 0xac <default_isr>
      50:	0c 94 56 00 	jmp	0xac	; 0xac <default_isr>
      54:	0c 94 57 00 	jmp	0xae	; 0xae <timer0_compa_isr>
      58:	0c 94 56 00 	jmp	0xac	; 0xac <default_isr>
      5c:	0c 94 56 00 	jmp	0xac	; 0xac <default_isr>
      60:	0c 94 56 00 	jmp	0xac	; 0xac <default_isr>
      64:	0c 94 56 00 	jmp	0xac	; 0xac <default_isr>
      68:	0c 94 56 00 	jmp	0xac	; 0xac <default_isr>
      6c:	0c 94 56 00 	jmp	0xac	; 0xac <default_isr>
      70:	0c 94 56 00 	jmp	0xac	; 0xac <default_isr>
      74:	0c 94 56 00 	jmp	0xac	; 0xac <default_isr>
      78:	0c 94 56 00 	jmp	0xac	; 0xac <default_isr>
      7c:	0c 94 56 00 	jmp	0xac	; 0xac <default_isr>
      80:	0c 94 56 00 	jmp	0xac	; 0xac <default_isr>
      84:	0c 94 56 00 	jmp	0xac	; 0xac <default_isr>
      88:	0c 94 56 00 	jmp	0xac	; 0xac <default_isr>
      8c:	0c 94 56 00 	jmp	0xac	; 0xac <default_isr>
      90:	0c 94 56 00 	jmp	0xac	; 0xac <default_isr>
      94:	0c 94 56 00 	jmp	0xac	; 0xac <default_isr>
      98:	0c 94 56 00 	jmp	0xac	; 0xac <default_isr>
      9c:	0c 94 56 00 	jmp	0xac	; 0xac <default_isr>
      a0:	0c 94 56 00 	jmp	0xac	; 0xac <default_isr>
      a4:	0c 94 56 00 	jmp	0xac	; 0xac <default_isr>
      a8:	0c 94 56 00 	jmp	0xac	; 0xac <default_isr>

000000ac <default_isr>:
      ac:	ff cf       	rjmp	.-2      	; 0xac <default_isr>

000000ae <timer0_compa_isr>:
      ae:	0f 92       	push	r0
      b0:	0f b6       	in	r0, 0x3f	; 63
      b2:	0f 92       	push	r0
      b4:	00 90 07 0a 	lds	r0, 0x0A07	; 0x800a07 <_end+0x907>
      b8:	03 94       	inc	r0
      ba:	00 92 07 0a 	sts	0x0A07, r0	; 0x800a07 <_end+0x907>
      be:	89 f4       	brne	.+34     	; 0xe2 <timer0_compa_isr_done>
      c0:	00 90 08 0a 	lds	r0, 0x0A08	; 0x800a08 <_end+0x908>
      c4:	03 94       	inc	r0
      c6:	00 92 08 0a 	sts	0x0A08, r0	; 0x800a08 <_end+0x908>
      ca:	59 f4       	brne	.+22     	; 0xe2 <timer0_compa_isr_done>
      cc:	00 90 09 0a 	lds	r0, 0x0A09	; 0x800a09 <_end+0x909>
      d0:	03 94       	inc	r0
      d2:	00 92 09 0a 	sts	0x0A09, r0	; 0x800a09 <_end+0x909>
      d6:	29 f4       	brne	.+10     	; 0xe2 <timer0_compa_isr_done>
      d8:	00 90 0a 0a 	lds	r0, 0x0A0A	; 0x800a0a <_end+0x90a>
      dc:	03 94       	inc	r0
      de:	00 92 0a 0a 	sts	0x0A0A, r0	; 0x800a0a <_end+0x90a>

000000e2 <timer0_compa_isr_done>:
      e2:	0f 90       	pop	r0
      e4:	0f be       	out	0x3f, r0	; 63
      e6:	0f 90       	pop	r0
      e8:	18 95       	reti

000000ea <reset_handler>:
      ea:	0c 94 0e 18 	jmp	0x301c	; 0x301c <startup_func>
      ee:	00 00       	nop
      f0:	00 00       	nop
      f2:	00 00       	nop
      f4:	00 00       	nop
      f6:	00 00       	nop
      f8:	00 00       	nop
      fa:	00 00       	nop
      fc:	00 00       	nop
      fe:	00 00       	nop
     100:	00 00       	nop
     102:	00 00       	nop
     104:	00 00       	nop
     106:	00 00       	nop
     108:	00 00       	nop
     10a:	00 00       	nop
     10c:	00 00       	nop
     10e:	00 00       	nop
     110:	00 00       	nop
     112:	00 00       	nop
     114:	00 00       	nop
     116:	00 00       	nop
     118:	00 00       	nop
     11a:	00 00       	nop
     11c:	00 00       	nop
     11e:	00 00       	nop
     120:	00 00       	nop
     122:	00 00       	nop
     124:	00 00       	nop
     126:	00 00       	nop
     128:	00 00       	nop
     12a:	00 00       	nop
     12c:	00 00       	nop
     12e:	00 00       	nop
     130:	00 00       	nop
     132:	00 00       	nop
     134:	00 00       	nop
     136:	00 00       	nop
     138:	00 00       	nop
     13a:	00 00       	nop
     13c:	00 00       	nop
     13e:	00 00       	nop
     140:	00 00       	nop
     142:	00 00       	nop
     144:	00 00       	nop
     146:	00 00       	nop
     148:	00 00       	nop
     14a:	00 00       	nop
     14c:	00 00       	nop
     14e:	00 00       	nop
     150:	00 00       	nop
     152:	00 00       	nop
     154:	00 00       	nop
     156:	00 00       	nop
     158:	00 00       	nop
     15a:	00 00       	nop
     15c:	00 00       	nop
     15e:	00 00       	nop
     160:	00 00       	nop
     162:	00 00       	nop
     164:	00 00       	nop
     166:	00 00       	nop
     168:	00 00       	nop
     16a:	00 00       	nop
     16c:	00 00       	nop
     16e:	00 00       	nop
     170:	00 00       	nop
     172:	00 00       	nop
     174:	00 00       	nop
     176:	00 00       	nop
     178:	00 00       	nop
     17a:	00 00       	nop
     17c:	00 00       	nop
     17e:	00 00       	nop
     180:	00 00       	nop
     182:	00 00       	nop
     184:	00 00       	nop
     186:	00 00       	nop
     188:	00 00       	nop
     18a:	00 00       	nop
     18c:	00 00       	nop
     18e:	00 00       	nop
     190:	00 00       	nop
     192:	00 00       	nop
     194:	00 00       	nop
     196:	00 00       	nop
     198:	00 00       	nop
     19a:	00 00       	nop
     19c:	00 00       	nop
     19e:	00 00       	nop
     1a0:	00 00       	nop
     1a2:	00 00       	nop
     1a4:	00 00       	nop
     1a6:	00 00       	nop
     1a8:	00 00       	nop
     1aa:	00 00       	nop
     1ac:	00 00       	nop
     1ae:	00 00       	nop
     1b0:	00 00       	nop
     1b2:	00 00       	nop
     1b4:	00 00       	nop
     1b6:	00 00       	nop
     1b8:	00 00       	nop
     1ba:	00 00       	nop
     1bc:	00 00       	nop
     1be:	00 00       	nop
     1c0:	00 00       	nop
     1c2:	00 00       	nop
     1c4:	00 00       	nop
     1c6:	00 00       	nop
     1c8:	00 00       	nop
     1ca:	00 00       	nop
     1cc:	00 00       	nop
     1ce:	00 00       	nop
     1d0:	00 00       	nop
     1d2:	00 00       	nop
     1d4:	00 00       	nop
     1d6:	00 00       	nop
     1d8:	00 00       	nop
     1da:	00 00       	nop
     1dc:	00 00       	nop
     1de:	00 00       	nop
     1e0:	00 00       	nop
     1e2:	00 00       	nop
     1e4:	00 00       	nop
     1e6:	00 00       	nop
     1e8:	00 00       	nop
     1ea:	00 00       	nop
     1ec:	00 00       	nop
     1ee:	00 00       	nop
     1f0:	00 00       	nop
     1f2:	00 00       	nop
     1f4:	00 00       	nop
     1f6:	00 00       	nop
     1f8:	00 00       	nop
     1fa:	00 00       	nop
     1fc:	00 00       	nop
     1fe:	00 00       	nop

00000200 <abvm_interp>:
     200:	88 01       	movw	r16, r16
     202:	7a c4       	rjmp	.+2292   	; 0xaf8 <cluster_tail_17_delay_1>
     204:	00 00       	nop
     206:	00 00       	nop

00000208 <primary_01>:
     208:	89 01       	movw	r16, r18
     20a:	76 c4       	rjmp	.+2284   	; 0xaf8 <cluster_tail_17_delay_1>
     20c:	00 00       	nop
     20e:	00 00       	nop

00000210 <primary_02>:
     210:	8a 01       	movw	r16, r20
     212:	72 c4       	rjmp	.+2276   	; 0xaf8 <cluster_tail_17_delay_1>
     214:	00 00       	nop
     216:	00 00       	nop

00000218 <primary_03>:
     218:	8b 01       	movw	r16, r22
     21a:	6e c4       	rjmp	.+2268   	; 0xaf8 <cluster_tail_17_delay_1>
     21c:	00 00       	nop
     21e:	00 00       	nop

00000220 <primary_04>:
     220:	98 01       	movw	r18, r16
     222:	6a c4       	rjmp	.+2260   	; 0xaf8 <cluster_tail_17_delay_1>
     224:	00 00       	nop
     226:	00 00       	nop

00000228 <primary_05>:
     228:	99 01       	movw	r18, r18
     22a:	66 c4       	rjmp	.+2252   	; 0xaf8 <cluster_tail_17_delay_1>
     22c:	00 00       	nop
     22e:	00 00       	nop

00000230 <primary_06>:
     230:	9a 01       	movw	r18, r20
     232:	62 c4       	rjmp	.+2244   	; 0xaf8 <cluster_tail_17_delay_1>
     234:	00 00       	nop
     236:	00 00       	nop

00000238 <primary_07>:
     238:	9b 01       	movw	r18, r22
     23a:	5e c4       	rjmp	.+2236   	; 0xaf8 <cluster_tail_17_delay_1>
     23c:	00 00       	nop
     23e:	00 00       	nop

00000240 <primary_08>:
     240:	a8 01       	movw	r20, r16
     242:	5a c4       	rjmp	.+2228   	; 0xaf8 <cluster_tail_17_delay_1>
     244:	00 00       	nop
     246:	00 00       	nop

00000248 <primary_09>:
     248:	a9 01       	movw	r20, r18
     24a:	56 c4       	rjmp	.+2220   	; 0xaf8 <cluster_tail_17_delay_1>
     24c:	00 00       	nop
     24e:	00 00       	nop

00000250 <primary_0A>:
     250:	aa 01       	movw	r20, r20
     252:	52 c4       	rjmp	.+2212   	; 0xaf8 <cluster_tail_17_delay_1>
     254:	00 00       	nop
     256:	00 00       	nop

00000258 <primary_0B>:
     258:	ab 01       	movw	r20, r22
     25a:	4e c4       	rjmp	.+2204   	; 0xaf8 <cluster_tail_17_delay_1>
     25c:	00 00       	nop
     25e:	00 00       	nop

00000260 <primary_0C>:
     260:	b8 01       	movw	r22, r16
     262:	4a c4       	rjmp	.+2196   	; 0xaf8 <cluster_tail_17_delay_1>
     264:	00 00       	nop
     266:	00 00       	nop

00000268 <primary_0D>:
     268:	b9 01       	movw	r22, r18
     26a:	46 c4       	rjmp	.+2188   	; 0xaf8 <cluster_tail_17_delay_1>
     26c:	00 00       	nop
     26e:	00 00       	nop

00000270 <primary_0E>:
     270:	ba 01       	movw	r22, r20
     272:	42 c4       	rjmp	.+2180   	; 0xaf8 <cluster_tail_17_delay_1>
     274:	00 00       	nop
     276:	00 00       	nop

00000278 <primary_0F>:
     278:	bb 01       	movw	r22, r22
     27a:	3e c4       	rjmp	.+2172   	; 0xaf8 <cluster_tail_17_delay_1>
     27c:	00 00       	nop
     27e:	00 00       	nop

00000280 <primary_10>:
     280:	00 0f       	add	r16, r16
     282:	11 1f       	adc	r17, r17
     284:	3a c4       	rjmp	.+2164   	; 0xafa <cluster_tail_17>
     286:	00 00       	nop

00000288 <primary_11>:
     288:	02 0f       	add	r16, r18
     28a:	13 1f       	adc	r17, r19
     28c:	36 c4       	rjmp	.+2156   	; 0xafa <cluster_tail_17>
     28e:	00 00       	nop

00000290 <primary_12>:
     290:	04 0f       	add	r16, r20
     292:	15 1f       	adc	r17, r21
     294:	32 c4       	rjmp	.+2148   	; 0xafa <cluster_tail_17>
     296:	00 00       	nop

00000298 <primary_13>:
     298:	06 0f       	add	r16, r22
     29a:	17 1f       	adc	r17, r23
     29c:	2e c4       	rjmp	.+2140   	; 0xafa <cluster_tail_17>
     29e:	00 00       	nop

000002a0 <primary_14>:
     2a0:	20 0f       	add	r18, r16
     2a2:	31 1f       	adc	r19, r17
     2a4:	2a c4       	rjmp	.+2132   	; 0xafa <cluster_tail_17>
     2a6:	00 00       	nop

000002a8 <primary_15>:
     2a8:	22 0f       	add	r18, r18
     2aa:	33 1f       	adc	r19, r19
     2ac:	26 c4       	rjmp	.+2124   	; 0xafa <cluster_tail_17>
     2ae:	00 00       	nop

000002b0 <primary_16>:
     2b0:	24 0f       	add	r18, r20
     2b2:	35 1f       	adc	r19, r21
     2b4:	22 c4       	rjmp	.+2116   	; 0xafa <cluster_tail_17>
     2b6:	00 00       	nop

000002b8 <primary_17>:
     2b8:	26 0f       	add	r18, r22
     2ba:	37 1f       	adc	r19, r23
     2bc:	1e c4       	rjmp	.+2108   	; 0xafa <cluster_tail_17>
     2be:	00 00       	nop

000002c0 <primary_18>:
     2c0:	40 0f       	add	r20, r16
     2c2:	51 1f       	adc	r21, r17
     2c4:	1a c4       	rjmp	.+2100   	; 0xafa <cluster_tail_17>
     2c6:	00 00       	nop

000002c8 <primary_19>:
     2c8:	42 0f       	add	r20, r18
     2ca:	53 1f       	adc	r21, r19
     2cc:	16 c4       	rjmp	.+2092   	; 0xafa <cluster_tail_17>
     2ce:	00 00       	nop

000002d0 <primary_1A>:
     2d0:	44 0f       	add	r20, r20
     2d2:	55 1f       	adc	r21, r21
     2d4:	12 c4       	rjmp	.+2084   	; 0xafa <cluster_tail_17>
     2d6:	00 00       	nop

000002d8 <primary_1B>:
     2d8:	46 0f       	add	r20, r22
     2da:	57 1f       	adc	r21, r23
     2dc:	0e c4       	rjmp	.+2076   	; 0xafa <cluster_tail_17>
     2de:	00 00       	nop

000002e0 <primary_1C>:
     2e0:	60 0f       	add	r22, r16
     2e2:	71 1f       	adc	r23, r17
     2e4:	0a c4       	rjmp	.+2068   	; 0xafa <cluster_tail_17>
     2e6:	00 00       	nop

000002e8 <primary_1D>:
     2e8:	62 0f       	add	r22, r18
     2ea:	73 1f       	adc	r23, r19
     2ec:	06 c4       	rjmp	.+2060   	; 0xafa <cluster_tail_17>
     2ee:	00 00       	nop

000002f0 <primary_1E>:
     2f0:	64 0f       	add	r22, r20
     2f2:	75 1f       	adc	r23, r21
     2f4:	02 c4       	rjmp	.+2052   	; 0xafa <cluster_tail_17>
     2f6:	00 00       	nop

000002f8 <primary_1F>:
     2f8:	66 0f       	add	r22, r22
     2fa:	77 1f       	adc	r23, r23
     2fc:	fe c3       	rjmp	.+2044   	; 0xafa <cluster_tail_17>
     2fe:	00 00       	nop

00000300 <primary_20>:
     300:	00 1b       	sub	r16, r16
     302:	11 0b       	sbc	r17, r17
     304:	fa c3       	rjmp	.+2036   	; 0xafa <cluster_tail_17>
     306:	00 00       	nop

00000308 <primary_21>:
     308:	02 1b       	sub	r16, r18
     30a:	13 0b       	sbc	r17, r19
     30c:	f6 c3       	rjmp	.+2028   	; 0xafa <cluster_tail_17>
     30e:	00 00       	nop

00000310 <primary_22>:
     310:	04 1b       	sub	r16, r20
     312:	15 0b       	sbc	r17, r21
     314:	f2 c3       	rjmp	.+2020   	; 0xafa <cluster_tail_17>
     316:	00 00       	nop

00000318 <primary_23>:
     318:	06 1b       	sub	r16, r22
     31a:	17 0b       	sbc	r17, r23
     31c:	ee c3       	rjmp	.+2012   	; 0xafa <cluster_tail_17>
     31e:	00 00       	nop

00000320 <primary_24>:
     320:	20 1b       	sub	r18, r16
     322:	31 0b       	sbc	r19, r17
     324:	ea c3       	rjmp	.+2004   	; 0xafa <cluster_tail_17>
     326:	00 00       	nop

00000328 <primary_25>:
     328:	22 1b       	sub	r18, r18
     32a:	33 0b       	sbc	r19, r19
     32c:	e6 c3       	rjmp	.+1996   	; 0xafa <cluster_tail_17>
     32e:	00 00       	nop

00000330 <primary_26>:
     330:	24 1b       	sub	r18, r20
     332:	35 0b       	sbc	r19, r21
     334:	e2 c3       	rjmp	.+1988   	; 0xafa <cluster_tail_17>
     336:	00 00       	nop

00000338 <primary_27>:
     338:	26 1b       	sub	r18, r22
     33a:	37 0b       	sbc	r19, r23
     33c:	de c3       	rjmp	.+1980   	; 0xafa <cluster_tail_17>
     33e:	00 00       	nop

00000340 <primary_28>:
     340:	40 1b       	sub	r20, r16
     342:	51 0b       	sbc	r21, r17
     344:	da c3       	rjmp	.+1972   	; 0xafa <cluster_tail_17>
     346:	00 00       	nop

00000348 <primary_29>:
     348:	42 1b       	sub	r20, r18
     34a:	53 0b       	sbc	r21, r19
     34c:	d6 c3       	rjmp	.+1964   	; 0xafa <cluster_tail_17>
     34e:	00 00       	nop

00000350 <primary_2A>:
     350:	44 1b       	sub	r20, r20
     352:	55 0b       	sbc	r21, r21
     354:	d2 c3       	rjmp	.+1956   	; 0xafa <cluster_tail_17>
     356:	00 00       	nop

00000358 <primary_2B>:
     358:	46 1b       	sub	r20, r22
     35a:	57 0b       	sbc	r21, r23
     35c:	ce c3       	rjmp	.+1948   	; 0xafa <cluster_tail_17>
     35e:	00 00       	nop

00000360 <primary_2C>:
     360:	60 1b       	sub	r22, r16
     362:	71 0b       	sbc	r23, r17
     364:	ca c3       	rjmp	.+1940   	; 0xafa <cluster_tail_17>
     366:	00 00       	nop

00000368 <primary_2D>:
     368:	62 1b       	sub	r22, r18
     36a:	73 0b       	sbc	r23, r19
     36c:	c6 c3       	rjmp	.+1932   	; 0xafa <cluster_tail_17>
     36e:	00 00       	nop

00000370 <primary_2E>:
     370:	64 1b       	sub	r22, r20
     372:	75 0b       	sbc	r23, r21
     374:	c2 c3       	rjmp	.+1924   	; 0xafa <cluster_tail_17>
     376:	00 00       	nop

00000378 <primary_2F>:
     378:	66 1b       	sub	r22, r22
     37a:	77 0b       	sbc	r23, r23
     37c:	be c3       	rjmp	.+1916   	; 0xafa <cluster_tail_17>
     37e:	00 00       	nop

00000380 <primary_30>:
     380:	00 17       	cp	r16, r16
     382:	11 07       	cpc	r17, r17
     384:	8f b7       	in	r24, 0x3f	; 63
     386:	ac c3       	rjmp	.+1880   	; 0xae0 <cmov_gate_end>

00000388 <primary_31>:
     388:	02 17       	cp	r16, r18
     38a:	13 07       	cpc	r17, r19
     38c:	8f b7       	in	r24, 0x3f	; 63
     38e:	a8 c3       	rjmp	.+1872   	; 0xae0 <cmov_gate_end>

00000390 <primary_32>:
     390:	04 17       	cp	r16, r20
     392:	15 07       	cpc	r17, r21
     394:	8f b7       	in	r24, 0x3f	; 63
     396:	a4 c3       	rjmp	.+1864   	; 0xae0 <cmov_gate_end>

00000398 <primary_33>:
     398:	06 17       	cp	r16, r22
     39a:	17 07       	cpc	r17, r23
     39c:	8f b7       	in	r24, 0x3f	; 63
     39e:	a0 c3       	rjmp	.+1856   	; 0xae0 <cmov_gate_end>

000003a0 <primary_34>:
     3a0:	20 17       	cp	r18, r16
     3a2:	31 07       	cpc	r19, r17
     3a4:	8f b7       	in	r24, 0x3f	; 63
     3a6:	9c c3       	rjmp	.+1848   	; 0xae0 <cmov_gate_end>

000003a8 <primary_35>:
     3a8:	22 17       	cp	r18, r18
     3aa:	33 07       	cpc	r19, r19
     3ac:	8f b7       	in	r24, 0x3f	; 63
     3ae:	98 c3       	rjmp	.+1840   	; 0xae0 <cmov_gate_end>

000003b0 <primary_36>:
     3b0:	24 17       	cp	r18, r20
     3b2:	35 07       	cpc	r19, r21
     3b4:	8f b7       	in	r24, 0x3f	; 63
     3b6:	94 c3       	rjmp	.+1832   	; 0xae0 <cmov_gate_end>

000003b8 <primary_37>:
     3b8:	26 17       	cp	r18, r22
     3ba:	37 07       	cpc	r19, r23
     3bc:	8f b7       	in	r24, 0x3f	; 63
     3be:	90 c3       	rjmp	.+1824   	; 0xae0 <cmov_gate_end>

000003c0 <primary_38>:
     3c0:	40 17       	cp	r20, r16
     3c2:	51 07       	cpc	r21, r17
     3c4:	8f b7       	in	r24, 0x3f	; 63
     3c6:	8c c3       	rjmp	.+1816   	; 0xae0 <cmov_gate_end>

000003c8 <primary_39>:
     3c8:	42 17       	cp	r20, r18
     3ca:	53 07       	cpc	r21, r19
     3cc:	8f b7       	in	r24, 0x3f	; 63
     3ce:	88 c3       	rjmp	.+1808   	; 0xae0 <cmov_gate_end>

000003d0 <primary_3A>:
     3d0:	44 17       	cp	r20, r20
     3d2:	55 07       	cpc	r21, r21
     3d4:	8f b7       	in	r24, 0x3f	; 63
     3d6:	84 c3       	rjmp	.+1800   	; 0xae0 <cmov_gate_end>

000003d8 <primary_3B>:
     3d8:	46 17       	cp	r20, r22
     3da:	57 07       	cpc	r21, r23
     3dc:	8f b7       	in	r24, 0x3f	; 63
     3de:	80 c3       	rjmp	.+1792   	; 0xae0 <cmov_gate_end>

000003e0 <primary_3C>:
     3e0:	60 17       	cp	r22, r16
     3e2:	71 07       	cpc	r23, r17
     3e4:	8f b7       	in	r24, 0x3f	; 63
     3e6:	7c c3       	rjmp	.+1784   	; 0xae0 <cmov_gate_end>

000003e8 <primary_3D>:
     3e8:	62 17       	cp	r22, r18
     3ea:	73 07       	cpc	r23, r19
     3ec:	8f b7       	in	r24, 0x3f	; 63
     3ee:	78 c3       	rjmp	.+1776   	; 0xae0 <cmov_gate_end>

000003f0 <primary_3E>:
     3f0:	64 17       	cp	r22, r20
     3f2:	75 07       	cpc	r23, r21
     3f4:	8f b7       	in	r24, 0x3f	; 63
     3f6:	74 c3       	rjmp	.+1768   	; 0xae0 <cmov_gate_end>

000003f8 <primary_3F>:
     3f8:	66 17       	cp	r22, r22
     3fa:	77 07       	cpc	r23, r23
     3fc:	8f b7       	in	r24, 0x3f	; 63
     3fe:	70 c3       	rjmp	.+1760   	; 0xae0 <cmov_gate_end>

00000400 <primary_40>:
     400:	d8 01       	movw	r26, r16
     402:	0c 91       	ld	r16, X
     404:	11 27       	eor	r17, r17
     406:	86 c3       	rjmp	.+1804   	; 0xb14 <cluster_tail_18_delay_1>

00000408 <primary_41>:
     408:	d9 01       	movw	r26, r18
     40a:	0c 91       	ld	r16, X
     40c:	11 27       	eor	r17, r17
     40e:	82 c3       	rjmp	.+1796   	; 0xb14 <cluster_tail_18_delay_1>

00000410 <primary_42>:
     410:	da 01       	movw	r26, r20
     412:	0c 91       	ld	r16, X
     414:	11 27       	eor	r17, r17
     416:	7e c3       	rjmp	.+1788   	; 0xb14 <cluster_tail_18_delay_1>

00000418 <primary_43>:
     418:	db 01       	movw	r26, r22
     41a:	0c 91       	ld	r16, X
     41c:	11 27       	eor	r17, r17
     41e:	7a c3       	rjmp	.+1780   	; 0xb14 <cluster_tail_18_delay_1>

00000420 <primary_44>:
     420:	d8 01       	movw	r26, r16
     422:	2c 91       	ld	r18, X
     424:	33 27       	eor	r19, r19
     426:	76 c3       	rjmp	.+1772   	; 0xb14 <cluster_tail_18_delay_1>

00000428 <primary_45>:
     428:	d9 01       	movw	r26, r18
     42a:	2c 91       	ld	r18, X
     42c:	33 27       	eor	r19, r19
     42e:	72 c3       	rjmp	.+1764   	; 0xb14 <cluster_tail_18_delay_1>

00000430 <primary_46>:
     430:	da 01       	movw	r26, r20
     432:	2c 91       	ld	r18, X
     434:	33 27       	eor	r19, r19
     436:	6e c3       	rjmp	.+1756   	; 0xb14 <cluster_tail_18_delay_1>

00000438 <primary_47>:
     438:	db 01       	movw	r26, r22
     43a:	2c 91       	ld	r18, X
     43c:	33 27       	eor	r19, r19
     43e:	6a c3       	rjmp	.+1748   	; 0xb14 <cluster_tail_18_delay_1>

00000440 <primary_48>:
     440:	d8 01       	movw	r26, r16
     442:	4c 91       	ld	r20, X
     444:	55 27       	eor	r21, r21
     446:	66 c3       	rjmp	.+1740   	; 0xb14 <cluster_tail_18_delay_1>

00000448 <primary_49>:
     448:	d9 01       	movw	r26, r18
     44a:	4c 91       	ld	r20, X
     44c:	55 27       	eor	r21, r21
     44e:	62 c3       	rjmp	.+1732   	; 0xb14 <cluster_tail_18_delay_1>

00000450 <primary_4A>:
     450:	da 01       	movw	r26, r20
     452:	4c 91       	ld	r20, X
     454:	55 27       	eor	r21, r21
     456:	5e c3       	rjmp	.+1724   	; 0xb14 <cluster_tail_18_delay_1>

00000458 <primary_4B>:
     458:	db 01       	movw	r26, r22
     45a:	4c 91       	ld	r20, X
     45c:	55 27       	eor	r21, r21
     45e:	5a c3       	rjmp	.+1716   	; 0xb14 <cluster_tail_18_delay_1>

00000460 <primary_4C>:
     460:	d8 01       	movw	r26, r16
     462:	6c 91       	ld	r22, X
     464:	77 27       	eor	r23, r23
     466:	56 c3       	rjmp	.+1708   	; 0xb14 <cluster_tail_18_delay_1>

00000468 <primary_4D>:
     468:	d9 01       	movw	r26, r18
     46a:	6c 91       	ld	r22, X
     46c:	77 27       	eor	r23, r23
     46e:	52 c3       	rjmp	.+1700   	; 0xb14 <cluster_tail_18_delay_1>

00000470 <primary_4E>:
     470:	da 01       	movw	r26, r20
     472:	6c 91       	ld	r22, X
     474:	77 27       	eor	r23, r23
     476:	4e c3       	rjmp	.+1692   	; 0xb14 <cluster_tail_18_delay_1>

00000478 <primary_4F>:
     478:	db 01       	movw	r26, r22
     47a:	6c 91       	ld	r22, X
     47c:	77 27       	eor	r23, r23
     47e:	4a c3       	rjmp	.+1684   	; 0xb14 <cluster_tail_18_delay_1>

00000480 <primary_50>:
     480:	d8 01       	movw	r26, r16
     482:	0c 93       	st	X, r16
     484:	46 c3       	rjmp	.+1676   	; 0xb12 <cluster_tail_18_delay_2>
     486:	00 00       	nop

00000488 <primary_51>:
     488:	d8 01       	movw	r26, r16
     48a:	2c 93       	st	X, r18
     48c:	42 c3       	rjmp	.+1668   	; 0xb12 <cluster_tail_18_delay_2>
     48e:	00 00       	nop

00000490 <primary_52>:
     490:	d8 01       	movw	r26, r16
     492:	4c 93       	st	X, r20
     494:	3e c3       	rjmp	.+1660   	; 0xb12 <cluster_tail_18_delay_2>
     496:	00 00       	nop

00000498 <primary_53>:
     498:	d8 01       	movw	r26, r16
     49a:	6c 93       	st	X, r22
     49c:	3a c3       	rjmp	.+1652   	; 0xb12 <cluster_tail_18_delay_2>
     49e:	00 00       	nop

000004a0 <primary_54>:
     4a0:	d9 01       	movw	r26, r18
     4a2:	0c 93       	st	X, r16
     4a4:	36 c3       	rjmp	.+1644   	; 0xb12 <cluster_tail_18_delay_2>
     4a6:	00 00       	nop

000004a8 <primary_55>:
     4a8:	d9 01       	movw	r26, r18
     4aa:	2c 93       	st	X, r18
     4ac:	32 c3       	rjmp	.+1636   	; 0xb12 <cluster_tail_18_delay_2>
     4ae:	00 00       	nop

000004b0 <primary_56>:
     4b0:	d9 01       	movw	r26, r18
     4b2:	4c 93       	st	X, r20
     4b4:	2e c3       	rjmp	.+1628   	; 0xb12 <cluster_tail_18_delay_2>
     4b6:	00 00       	nop

000004b8 <primary_57>:
     4b8:	d9 01       	movw	r26, r18
     4ba:	6c 93       	st	X, r22
     4bc:	2a c3       	rjmp	.+1620   	; 0xb12 <cluster_tail_18_delay_2>
     4be:	00 00       	nop

000004c0 <primary_58>:
     4c0:	da 01       	movw	r26, r20
     4c2:	0c 93       	st	X, r16
     4c4:	26 c3       	rjmp	.+1612   	; 0xb12 <cluster_tail_18_delay_2>
     4c6:	00 00       	nop

000004c8 <primary_59>:
     4c8:	da 01       	movw	r26, r20
     4ca:	2c 93       	st	X, r18
     4cc:	22 c3       	rjmp	.+1604   	; 0xb12 <cluster_tail_18_delay_2>
     4ce:	00 00       	nop

000004d0 <primary_5A>:
     4d0:	da 01       	movw	r26, r20
     4d2:	4c 93       	st	X, r20
     4d4:	1e c3       	rjmp	.+1596   	; 0xb12 <cluster_tail_18_delay_2>
     4d6:	00 00       	nop

000004d8 <primary_5B>:
     4d8:	da 01       	movw	r26, r20
     4da:	6c 93       	st	X, r22
     4dc:	1a c3       	rjmp	.+1588   	; 0xb12 <cluster_tail_18_delay_2>
     4de:	00 00       	nop

000004e0 <primary_5C>:
     4e0:	db 01       	movw	r26, r22
     4e2:	0c 93       	st	X, r16
     4e4:	16 c3       	rjmp	.+1580   	; 0xb12 <cluster_tail_18_delay_2>
     4e6:	00 00       	nop

000004e8 <primary_5D>:
     4e8:	db 01       	movw	r26, r22
     4ea:	2c 93       	st	X, r18
     4ec:	12 c3       	rjmp	.+1572   	; 0xb12 <cluster_tail_18_delay_2>
     4ee:	00 00       	nop

000004f0 <primary_5E>:
     4f0:	db 01       	movw	r26, r22
     4f2:	4c 93       	st	X, r20
     4f4:	0e c3       	rjmp	.+1564   	; 0xb12 <cluster_tail_18_delay_2>
     4f6:	00 00       	nop

000004f8 <primary_5F>:
     4f8:	db 01       	movw	r26, r22
     4fa:	6c 93       	st	X, r22
     4fc:	0a c3       	rjmp	.+1556   	; 0xb12 <cluster_tail_18_delay_2>
     4fe:	00 00       	nop

00000500 <primary_60>:
     500:	d8 01       	movw	r26, r16
     502:	0d 91       	ld	r16, X+
     504:	1c 91       	ld	r17, X
     506:	07 c3       	rjmp	.+1550   	; 0xb16 <cluster_tail_18>

00000508 <primary_61>:
     508:	d9 01       	movw	r26, r18
     50a:	0d 91       	ld	r16, X+
     50c:	1c 91       	ld	r17, X
     50e:	03 c3       	rjmp	.+1542   	; 0xb16 <cluster_tail_18>

00000510 <primary_62>:
     510:	da 01       	movw	r26, r20
     512:	0d 91       	ld	r16, X+
     514:	1c 91       	ld	r17, X
     516:	ff c2       	rjmp	.+1534   	; 0xb16 <cluster_tail_18>

00000518 <primary_63>:
     518:	db 01       	movw	r26, r22
     51a:	0d 91       	ld	r16, X+
     51c:	1c 91       	ld	r17, X
     51e:	fb c2       	rjmp	.+1526   	; 0xb16 <cluster_tail_18>

00000520 <primary_64>:
     520:	d8 01       	movw	r26, r16
     522:	2d 91       	ld	r18, X+
     524:	3c 91       	ld	r19, X
     526:	f7 c2       	rjmp	.+1518   	; 0xb16 <cluster_tail_18>

00000528 <primary_65>:
     528:	d9 01       	movw	r26, r18
     52a:	2d 91       	ld	r18, X+
     52c:	3c 91       	ld	r19, X
     52e:	f3 c2       	rjmp	.+1510   	; 0xb16 <cluster_tail_18>

00000530 <primary_66>:
     530:	da 01       	movw	r26, r20
     532:	2d 91       	ld	r18, X+
     534:	3c 91       	ld	r19, X
     536:	ef c2       	rjmp	.+1502   	; 0xb16 <cluster_tail_18>

00000538 <primary_67>:
     538:	db 01       	movw	r26, r22
     53a:	2d 91       	ld	r18, X+
     53c:	3c 91       	ld	r19, X
     53e:	eb c2       	rjmp	.+1494   	; 0xb16 <cluster_tail_18>

00000540 <primary_68>:
     540:	d8 01       	movw	r26, r16
     542:	4d 91       	ld	r20, X+
     544:	5c 91       	ld	r21, X
     546:	e7 c2       	rjmp	.+1486   	; 0xb16 <cluster_tail_18>

00000548 <primary_69>:
     548:	d9 01       	movw	r26, r18
     54a:	4d 91       	ld	r20, X+
     54c:	5c 91       	ld	r21, X
     54e:	e3 c2       	rjmp	.+1478   	; 0xb16 <cluster_tail_18>

00000550 <primary_6A>:
     550:	da 01       	movw	r26, r20
     552:	4d 91       	ld	r20, X+
     554:	5c 91       	ld	r21, X
     556:	df c2       	rjmp	.+1470   	; 0xb16 <cluster_tail_18>

00000558 <primary_6B>:
     558:	db 01       	movw	r26, r22
     55a:	4d 91       	ld	r20, X+
     55c:	5c 91       	ld	r21, X
     55e:	db c2       	rjmp	.+1462   	; 0xb16 <cluster_tail_18>

00000560 <primary_6C>:
     560:	d8 01       	movw	r26, r16
     562:	6d 91       	ld	r22, X+
     564:	7c 91       	ld	r23, X
     566:	d7 c2       	rjmp	.+1454   	; 0xb16 <cluster_tail_18>

00000568 <primary_6D>:
     568:	d9 01       	movw	r26, r18
     56a:	6d 91       	ld	r22, X+
     56c:	7c 91       	ld	r23, X
     56e:	d3 c2       	rjmp	.+1446   	; 0xb16 <cluster_tail_18>

00000570 <primary_6E>:
     570:	da 01       	movw	r26, r20
     572:	6d 91       	ld	r22, X+
     574:	7c 91       	ld	r23, X
     576:	cf c2       	rjmp	.+1438   	; 0xb16 <cluster_tail_18>

00000578 <primary_6F>:
     578:	db 01       	movw	r26, r22
     57a:	6d 91       	ld	r22, X+
     57c:	7c 91       	ld	r23, X
     57e:	cb c2       	rjmp	.+1430   	; 0xb16 <cluster_tail_18>

00000580 <primary_70>:
     580:	d8 01       	movw	r26, r16
     582:	0d 93       	st	X+, r16
     584:	1c 93       	st	X, r17
     586:	c7 c2       	rjmp	.+1422   	; 0xb16 <cluster_tail_18>

00000588 <primary_71>:
     588:	d8 01       	movw	r26, r16
     58a:	2d 93       	st	X+, r18
     58c:	3c 93       	st	X, r19
     58e:	c3 c2       	rjmp	.+1414   	; 0xb16 <cluster_tail_18>

00000590 <primary_72>:
     590:	d8 01       	movw	r26, r16
     592:	4d 93       	st	X+, r20
     594:	5c 93       	st	X, r21
     596:	bf c2       	rjmp	.+1406   	; 0xb16 <cluster_tail_18>

00000598 <primary_73>:
     598:	d8 01       	movw	r26, r16
     59a:	6d 93       	st	X+, r22
     59c:	7c 93       	st	X, r23
     59e:	bb c2       	rjmp	.+1398   	; 0xb16 <cluster_tail_18>

000005a0 <primary_74>:
     5a0:	d9 01       	movw	r26, r18
     5a2:	0d 93       	st	X+, r16
     5a4:	1c 93       	st	X, r17
     5a6:	b7 c2       	rjmp	.+1390   	; 0xb16 <cluster_tail_18>

000005a8 <primary_75>:
     5a8:	d9 01       	movw	r26, r18
     5aa:	2d 93       	st	X+, r18
     5ac:	3c 93       	st	X, r19
     5ae:	b3 c2       	rjmp	.+1382   	; 0xb16 <cluster_tail_18>

000005b0 <primary_76>:
     5b0:	d9 01       	movw	r26, r18
     5b2:	4d 93       	st	X+, r20
     5b4:	5c 93       	st	X, r21
     5b6:	af c2       	rjmp	.+1374   	; 0xb16 <cluster_tail_18>

000005b8 <primary_77>:
     5b8:	d9 01       	movw	r26, r18
     5ba:	6d 93       	st	X+, r22
     5bc:	7c 93       	st	X, r23
     5be:	ab c2       	rjmp	.+1366   	; 0xb16 <cluster_tail_18>

000005c0 <primary_78>:
     5c0:	da 01       	movw	r26, r20
     5c2:	0d 93       	st	X+, r16
     5c4:	1c 93       	st	X, r17
     5c6:	a7 c2       	rjmp	.+1358   	; 0xb16 <cluster_tail_18>

000005c8 <primary_79>:
     5c8:	da 01       	movw	r26, r20
     5ca:	2d 93       	st	X+, r18
     5cc:	3c 93       	st	X, r19
     5ce:	a3 c2       	rjmp	.+1350   	; 0xb16 <cluster_tail_18>

000005d0 <primary_7A>:
     5d0:	da 01       	movw	r26, r20
     5d2:	4d 93       	st	X+, r20
     5d4:	5c 93       	st	X, r21
     5d6:	9f c2       	rjmp	.+1342   	; 0xb16 <cluster_tail_18>

000005d8 <primary_7B>:
     5d8:	da 01       	movw	r26, r20
     5da:	6d 93       	st	X+, r22
     5dc:	7c 93       	st	X, r23
     5de:	9b c2       	rjmp	.+1334   	; 0xb16 <cluster_tail_18>

000005e0 <primary_7C>:
     5e0:	db 01       	movw	r26, r22
     5e2:	0d 93       	st	X+, r16
     5e4:	1c 93       	st	X, r17
     5e6:	97 c2       	rjmp	.+1326   	; 0xb16 <cluster_tail_18>

000005e8 <primary_7D>:
     5e8:	db 01       	movw	r26, r22
     5ea:	2d 93       	st	X+, r18
     5ec:	3c 93       	st	X, r19
     5ee:	93 c2       	rjmp	.+1318   	; 0xb16 <cluster_tail_18>

000005f0 <primary_7E>:
     5f0:	db 01       	movw	r26, r22
     5f2:	4d 93       	st	X+, r20
     5f4:	5c 93       	st	X, r21
     5f6:	8f c2       	rjmp	.+1310   	; 0xb16 <cluster_tail_18>

000005f8 <primary_7F>:
     5f8:	db 01       	movw	r26, r22
     5fa:	6d 93       	st	X+, r22
     5fc:	7c 93       	st	X, r23
     5fe:	8b c2       	rjmp	.+1302   	; 0xb16 <cluster_tail_18>

00000600 <primary_80>:
     600:	00 23       	and	r16, r16
     602:	11 23       	and	r17, r17
     604:	7a c2       	rjmp	.+1268   	; 0xafa <cluster_tail_17>
     606:	00 00       	nop

00000608 <primary_81>:
     608:	02 23       	and	r16, r18
     60a:	13 23       	and	r17, r19
     60c:	76 c2       	rjmp	.+1260   	; 0xafa <cluster_tail_17>
     60e:	00 00       	nop

00000610 <primary_82>:
     610:	04 23       	and	r16, r20
     612:	15 23       	and	r17, r21
     614:	72 c2       	rjmp	.+1252   	; 0xafa <cluster_tail_17>
     616:	00 00       	nop

00000618 <primary_83>:
     618:	06 23       	and	r16, r22
     61a:	17 23       	and	r17, r23
     61c:	6e c2       	rjmp	.+1244   	; 0xafa <cluster_tail_17>
     61e:	00 00       	nop

00000620 <primary_84>:
     620:	20 23       	and	r18, r16
     622:	31 23       	and	r19, r17
     624:	6a c2       	rjmp	.+1236   	; 0xafa <cluster_tail_17>
     626:	00 00       	nop

00000628 <primary_85>:
     628:	22 23       	and	r18, r18
     62a:	33 23       	and	r19, r19
     62c:	66 c2       	rjmp	.+1228   	; 0xafa <cluster_tail_17>
     62e:	00 00       	nop

00000630 <primary_86>:
     630:	24 23       	and	r18, r20
     632:	35 23       	and	r19, r21
     634:	62 c2       	rjmp	.+1220   	; 0xafa <cluster_tail_17>
     636:	00 00       	nop

00000638 <primary_87>:
     638:	26 23       	and	r18, r22
     63a:	37 23       	and	r19, r23
     63c:	5e c2       	rjmp	.+1212   	; 0xafa <cluster_tail_17>
     63e:	00 00       	nop

00000640 <primary_88>:
     640:	40 23       	and	r20, r16
     642:	51 23       	and	r21, r17
     644:	5a c2       	rjmp	.+1204   	; 0xafa <cluster_tail_17>
     646:	00 00       	nop

00000648 <primary_89>:
     648:	42 23       	and	r20, r18
     64a:	53 23       	and	r21, r19
     64c:	56 c2       	rjmp	.+1196   	; 0xafa <cluster_tail_17>
     64e:	00 00       	nop

00000650 <primary_8A>:
     650:	44 23       	and	r20, r20
     652:	55 23       	and	r21, r21
     654:	52 c2       	rjmp	.+1188   	; 0xafa <cluster_tail_17>
     656:	00 00       	nop

00000658 <primary_8B>:
     658:	46 23       	and	r20, r22
     65a:	57 23       	and	r21, r23
     65c:	4e c2       	rjmp	.+1180   	; 0xafa <cluster_tail_17>
     65e:	00 00       	nop

00000660 <primary_8C>:
     660:	60 23       	and	r22, r16
     662:	71 23       	and	r23, r17
     664:	4a c2       	rjmp	.+1172   	; 0xafa <cluster_tail_17>
     666:	00 00       	nop

00000668 <primary_8D>:
     668:	62 23       	and	r22, r18
     66a:	73 23       	and	r23, r19
     66c:	46 c2       	rjmp	.+1164   	; 0xafa <cluster_tail_17>
     66e:	00 00       	nop

00000670 <primary_8E>:
     670:	64 23       	and	r22, r20
     672:	75 23       	and	r23, r21
     674:	42 c2       	rjmp	.+1156   	; 0xafa <cluster_tail_17>
     676:	00 00       	nop

00000678 <primary_8F>:
     678:	66 23       	and	r22, r22
     67a:	77 23       	and	r23, r23
     67c:	3e c2       	rjmp	.+1148   	; 0xafa <cluster_tail_17>
     67e:	00 00       	nop

00000680 <primary_90>:
     680:	00 2b       	or	r16, r16
     682:	11 2b       	or	r17, r17
     684:	3a c2       	rjmp	.+1140   	; 0xafa <cluster_tail_17>
     686:	00 00       	nop

00000688 <primary_91>:
     688:	02 2b       	or	r16, r18
     68a:	13 2b       	or	r17, r19
     68c:	36 c2       	rjmp	.+1132   	; 0xafa <cluster_tail_17>
     68e:	00 00       	nop

00000690 <primary_92>:
     690:	04 2b       	or	r16, r20
     692:	15 2b       	or	r17, r21
     694:	32 c2       	rjmp	.+1124   	; 0xafa <cluster_tail_17>
     696:	00 00       	nop

00000698 <primary_93>:
     698:	06 2b       	or	r16, r22
     69a:	17 2b       	or	r17, r23
     69c:	2e c2       	rjmp	.+1116   	; 0xafa <cluster_tail_17>
     69e:	00 00       	nop

000006a0 <primary_94>:
     6a0:	20 2b       	or	r18, r16
     6a2:	31 2b       	or	r19, r17
     6a4:	2a c2       	rjmp	.+1108   	; 0xafa <cluster_tail_17>
     6a6:	00 00       	nop

000006a8 <primary_95>:
     6a8:	22 2b       	or	r18, r18
     6aa:	33 2b       	or	r19, r19
     6ac:	26 c2       	rjmp	.+1100   	; 0xafa <cluster_tail_17>
     6ae:	00 00       	nop

000006b0 <primary_96>:
     6b0:	24 2b       	or	r18, r20
     6b2:	35 2b       	or	r19, r21
     6b4:	22 c2       	rjmp	.+1092   	; 0xafa <cluster_tail_17>
     6b6:	00 00       	nop

000006b8 <primary_97>:
     6b8:	26 2b       	or	r18, r22
     6ba:	37 2b       	or	r19, r23
     6bc:	1e c2       	rjmp	.+1084   	; 0xafa <cluster_tail_17>
     6be:	00 00       	nop

000006c0 <primary_98>:
     6c0:	40 2b       	or	r20, r16
     6c2:	51 2b       	or	r21, r17
     6c4:	1a c2       	rjmp	.+1076   	; 0xafa <cluster_tail_17>
     6c6:	00 00       	nop

000006c8 <primary_99>:
     6c8:	42 2b       	or	r20, r18
     6ca:	53 2b       	or	r21, r19
     6cc:	16 c2       	rjmp	.+1068   	; 0xafa <cluster_tail_17>
     6ce:	00 00       	nop

000006d0 <primary_9A>:
     6d0:	44 2b       	or	r20, r20
     6d2:	55 2b       	or	r21, r21
     6d4:	12 c2       	rjmp	.+1060   	; 0xafa <cluster_tail_17>
     6d6:	00 00       	nop

000006d8 <primary_9B>:
     6d8:	46 2b       	or	r20, r22
     6da:	57 2b       	or	r21, r23
     6dc:	0e c2       	rjmp	.+1052   	; 0xafa <cluster_tail_17>
     6de:	00 00       	nop

000006e0 <primary_9C>:
     6e0:	60 2b       	or	r22, r16
     6e2:	71 2b       	or	r23, r17
     6e4:	0a c2       	rjmp	.+1044   	; 0xafa <cluster_tail_17>
     6e6:	00 00       	nop

000006e8 <primary_9D>:
     6e8:	62 2b       	or	r22, r18
     6ea:	73 2b       	or	r23, r19
     6ec:	06 c2       	rjmp	.+1036   	; 0xafa <cluster_tail_17>
     6ee:	00 00       	nop

000006f0 <primary_9E>:
     6f0:	64 2b       	or	r22, r20
     6f2:	75 2b       	or	r23, r21
     6f4:	02 c2       	rjmp	.+1028   	; 0xafa <cluster_tail_17>
     6f6:	00 00       	nop

000006f8 <primary_9F>:
     6f8:	66 2b       	or	r22, r22
     6fa:	77 2b       	or	r23, r23
     6fc:	fe c1       	rjmp	.+1020   	; 0xafa <cluster_tail_17>
     6fe:	00 00       	nop

00000700 <primary_A0>:
     700:	00 27       	eor	r16, r16
     702:	11 27       	eor	r17, r17
     704:	fa c1       	rjmp	.+1012   	; 0xafa <cluster_tail_17>
     706:	00 00       	nop

00000708 <primary_A1>:
     708:	02 27       	eor	r16, r18
     70a:	13 27       	eor	r17, r19
     70c:	f6 c1       	rjmp	.+1004   	; 0xafa <cluster_tail_17>
     70e:	00 00       	nop

00000710 <primary_A2>:
     710:	04 27       	eor	r16, r20
     712:	15 27       	eor	r17, r21
     714:	f2 c1       	rjmp	.+996    	; 0xafa <cluster_tail_17>
     716:	00 00       	nop

00000718 <primary_A3>:
     718:	06 27       	eor	r16, r22
     71a:	17 27       	eor	r17, r23
     71c:	ee c1       	rjmp	.+988    	; 0xafa <cluster_tail_17>
     71e:	00 00       	nop

00000720 <primary_A4>:
     720:	20 27       	eor	r18, r16
     722:	31 27       	eor	r19, r17
     724:	ea c1       	rjmp	.+980    	; 0xafa <cluster_tail_17>
     726:	00 00       	nop

00000728 <primary_A5>:
     728:	22 27       	eor	r18, r18
     72a:	33 27       	eor	r19, r19
     72c:	e6 c1       	rjmp	.+972    	; 0xafa <cluster_tail_17>
     72e:	00 00       	nop

00000730 <primary_A6>:
     730:	24 27       	eor	r18, r20
     732:	35 27       	eor	r19, r21
     734:	e2 c1       	rjmp	.+964    	; 0xafa <cluster_tail_17>
     736:	00 00       	nop

00000738 <primary_A7>:
     738:	26 27       	eor	r18, r22
     73a:	37 27       	eor	r19, r23
     73c:	de c1       	rjmp	.+956    	; 0xafa <cluster_tail_17>
     73e:	00 00       	nop

00000740 <primary_A8>:
     740:	40 27       	eor	r20, r16
     742:	51 27       	eor	r21, r17
     744:	da c1       	rjmp	.+948    	; 0xafa <cluster_tail_17>
     746:	00 00       	nop

00000748 <primary_A9>:
     748:	42 27       	eor	r20, r18
     74a:	53 27       	eor	r21, r19
     74c:	d6 c1       	rjmp	.+940    	; 0xafa <cluster_tail_17>
     74e:	00 00       	nop

00000750 <primary_AA>:
     750:	44 27       	eor	r20, r20
     752:	55 27       	eor	r21, r21
     754:	d2 c1       	rjmp	.+932    	; 0xafa <cluster_tail_17>
     756:	00 00       	nop

00000758 <primary_AB>:
     758:	46 27       	eor	r20, r22
     75a:	57 27       	eor	r21, r23
     75c:	ce c1       	rjmp	.+924    	; 0xafa <cluster_tail_17>
     75e:	00 00       	nop

00000760 <primary_AC>:
     760:	60 27       	eor	r22, r16
     762:	71 27       	eor	r23, r17
     764:	ca c1       	rjmp	.+916    	; 0xafa <cluster_tail_17>
     766:	00 00       	nop

00000768 <primary_AD>:
     768:	62 27       	eor	r22, r18
     76a:	73 27       	eor	r23, r19
     76c:	c6 c1       	rjmp	.+908    	; 0xafa <cluster_tail_17>
     76e:	00 00       	nop

00000770 <primary_AE>:
     770:	64 27       	eor	r22, r20
     772:	75 27       	eor	r23, r21
     774:	c2 c1       	rjmp	.+900    	; 0xafa <cluster_tail_17>
     776:	00 00       	nop

00000778 <primary_AF>:
     778:	66 27       	eor	r22, r22
     77a:	77 27       	eor	r23, r23
     77c:	be c1       	rjmp	.+892    	; 0xafa <cluster_tail_17>
     77e:	00 00       	nop

00000780 <primary_B0_push16_r0>:
     780:	9a 92       	st	-Y, r9
     782:	8a 92       	st	-Y, r8
     784:	c7 c1       	rjmp	.+910    	; 0xb14 <cluster_tail_18_delay_1>
     786:	00 00       	nop

00000788 <primary_B1_push16_r1>:
     788:	ba 92       	st	-Y, r11
     78a:	aa 92       	st	-Y, r10
     78c:	c3 c1       	rjmp	.+902    	; 0xb14 <cluster_tail_18_delay_1>
     78e:	00 00       	nop

00000790 <primary_B2_push16_r2>:
     790:	da 92       	st	-Y, r13
     792:	ca 92       	st	-Y, r12
     794:	bf c1       	rjmp	.+894    	; 0xb14 <cluster_tail_18_delay_1>
     796:	00 00       	nop

00000798 <primary_B3_push16_r3>:
     798:	fa 92       	st	-Y, r15
     79a:	ea 92       	st	-Y, r14
     79c:	bb c1       	rjmp	.+886    	; 0xb14 <cluster_tail_18_delay_1>
     79e:	00 00       	nop

000007a0 <primary_B4_push16_r4>:
     7a0:	1a 93       	st	-Y, r17
     7a2:	0a 93       	st	-Y, r16
     7a4:	b7 c1       	rjmp	.+878    	; 0xb14 <cluster_tail_18_delay_1>
     7a6:	00 00       	nop

000007a8 <primary_B5_push16_r5>:
     7a8:	3a 93       	st	-Y, r19
     7aa:	2a 93       	st	-Y, r18
     7ac:	b3 c1       	rjmp	.+870    	; 0xb14 <cluster_tail_18_delay_1>
     7ae:	00 00       	nop

000007b0 <primary_B6_push16_r6>:
     7b0:	5a 93       	st	-Y, r21
     7b2:	4a 93       	st	-Y, r20
     7b4:	af c1       	rjmp	.+862    	; 0xb14 <cluster_tail_18_delay_1>
     7b6:	00 00       	nop

000007b8 <primary_B7_push16_r7>:
     7b8:	7a 93       	st	-Y, r23
     7ba:	6a 93       	st	-Y, r22
     7bc:	ab c1       	rjmp	.+854    	; 0xb14 <cluster_tail_18_delay_1>
     7be:	00 00       	nop

000007c0 <primary_B8_pop16_r0>:
     7c0:	89 90       	ld	r8, Y+
     7c2:	99 90       	ld	r9, Y+
     7c4:	a7 c1       	rjmp	.+846    	; 0xb14 <cluster_tail_18_delay_1>
     7c6:	00 00       	nop

000007c8 <primary_B9_pop16_r1>:
     7c8:	a9 90       	ld	r10, Y+
     7ca:	b9 90       	ld	r11, Y+
     7cc:	a3 c1       	rjmp	.+838    	; 0xb14 <cluster_tail_18_delay_1>
     7ce:	00 00       	nop

000007d0 <primary_BA_pop16_r2>:
     7d0:	c9 90       	ld	r12, Y+
     7d2:	d9 90       	ld	r13, Y+
     7d4:	9f c1       	rjmp	.+830    	; 0xb14 <cluster_tail_18_delay_1>
     7d6:	00 00       	nop

000007d8 <primary_BB_pop16_r3>:
     7d8:	e9 90       	ld	r14, Y+
     7da:	f9 90       	ld	r15, Y+
     7dc:	9b c1       	rjmp	.+822    	; 0xb14 <cluster_tail_18_delay_1>
     7de:	00 00       	nop

000007e0 <primary_BC_pop16_r4>:
     7e0:	09 91       	ld	r16, Y+
     7e2:	19 91       	ld	r17, Y+
     7e4:	97 c1       	rjmp	.+814    	; 0xb14 <cluster_tail_18_delay_1>
     7e6:	00 00       	nop

000007e8 <primary_BD_pop16_r5>:
     7e8:	29 91       	ld	r18, Y+
     7ea:	39 91       	ld	r19, Y+
     7ec:	93 c1       	rjmp	.+806    	; 0xb14 <cluster_tail_18_delay_1>
     7ee:	00 00       	nop

000007f0 <primary_BE_pop16_r6>:
     7f0:	49 91       	ld	r20, Y+
     7f2:	59 91       	ld	r21, Y+
     7f4:	8f c1       	rjmp	.+798    	; 0xb14 <cluster_tail_18_delay_1>
     7f6:	00 00       	nop

000007f8 <primary_BF_pop16_r7>:
     7f8:	69 91       	ld	r22, Y+
     7fa:	79 91       	ld	r23, Y+
     7fc:	8b c1       	rjmp	.+790    	; 0xb14 <cluster_tail_18_delay_1>
     7fe:	00 00       	nop

00000800 <primary_C0_ldi8_c0>:
     800:	e5 eb       	ldi	r30, 0xB5	; 181
     802:	f5 e0       	ldi	r31, 0x05	; 5
     804:	00 00       	nop
     806:	90 c1       	rjmp	.+800    	; 0xb28 <fetch_imm8_then_ijmp>

00000808 <primary_C1_ldi8_c1>:
     808:	e8 eb       	ldi	r30, 0xB8	; 184
     80a:	f5 e0       	ldi	r31, 0x05	; 5
     80c:	00 00       	nop
     80e:	8c c1       	rjmp	.+792    	; 0xb28 <fetch_imm8_then_ijmp>

00000810 <primary_C2_ldi8_c2>:
     810:	eb eb       	ldi	r30, 0xBB	; 187
     812:	f5 e0       	ldi	r31, 0x05	; 5
     814:	00 00       	nop
     816:	88 c1       	rjmp	.+784    	; 0xb28 <fetch_imm8_then_ijmp>

00000818 <primary_C3_ldi8_c3>:
     818:	ee eb       	ldi	r30, 0xBE	; 190
     81a:	f5 e0       	ldi	r31, 0x05	; 5
     81c:	00 00       	nop
     81e:	84 c1       	rjmp	.+776    	; 0xb28 <fetch_imm8_then_ijmp>

00000820 <primary_C4_ldi16_c0>:
     820:	e1 ec       	ldi	r30, 0xC1	; 193
     822:	f5 e0       	ldi	r31, 0x05	; 5
     824:	00 00       	nop
     826:	8f c1       	rjmp	.+798    	; 0xb46 <fetch_imm16_then_ijmp>

00000828 <primary_C5_ldi16_c1>:
     828:	e4 ec       	ldi	r30, 0xC4	; 196
     82a:	f5 e0       	ldi	r31, 0x05	; 5
     82c:	00 00       	nop
     82e:	8b c1       	rjmp	.+790    	; 0xb46 <fetch_imm16_then_ijmp>

00000830 <primary_C6_ldi16_c2>:
     830:	e7 ec       	ldi	r30, 0xC7	; 199
     832:	f5 e0       	ldi	r31, 0x05	; 5
     834:	00 00       	nop
     836:	87 c1       	rjmp	.+782    	; 0xb46 <fetch_imm16_then_ijmp>

00000838 <primary_C7_ldi16_c3>:
     838:	ea ec       	ldi	r30, 0xCA	; 202
     83a:	f5 e0       	ldi	r31, 0x05	; 5
     83c:	00 00       	nop
     83e:	83 c1       	rjmp	.+774    	; 0xb46 <fetch_imm16_then_ijmp>

00000840 <primary_C8_addi_s8_c0>:
     840:	ed ec       	ldi	r30, 0xCD	; 205
     842:	f5 e0       	ldi	r31, 0x05	; 5
     844:	00 00       	nop
     846:	76 c1       	rjmp	.+748    	; 0xb34 <fetch_simm8_then_ijmp>

00000848 <primary_C9_addi_s8_c1>:
     848:	e0 ed       	ldi	r30, 0xD0	; 208
     84a:	f5 e0       	ldi	r31, 0x05	; 5
     84c:	00 00       	nop
     84e:	72 c1       	rjmp	.+740    	; 0xb34 <fetch_simm8_then_ijmp>

00000850 <primary_CA_addi_s8_c2>:
     850:	e3 ed       	ldi	r30, 0xD3	; 211
     852:	f5 e0       	ldi	r31, 0x05	; 5
     854:	00 00       	nop
     856:	6e c1       	rjmp	.+732    	; 0xb34 <fetch_simm8_then_ijmp>

00000858 <primary_CB_addi_s8_c3>:
     858:	e6 ed       	ldi	r30, 0xD6	; 214
     85a:	f5 e0       	ldi	r31, 0x05	; 5
     85c:	00 00       	nop
     85e:	6a c1       	rjmp	.+724    	; 0xb34 <fetch_simm8_then_ijmp>

00000860 <primary_CC_cmpi_s8_c0>:
     860:	e9 ed       	ldi	r30, 0xD9	; 217
     862:	f5 e0       	ldi	r31, 0x05	; 5
     864:	00 00       	nop
     866:	66 c1       	rjmp	.+716    	; 0xb34 <fetch_simm8_then_ijmp>

00000868 <primary_CD_cmpi_s8_c1>:
     868:	ed ed       	ldi	r30, 0xDD	; 221
     86a:	f5 e0       	ldi	r31, 0x05	; 5
     86c:	00 00       	nop
     86e:	62 c1       	rjmp	.+708    	; 0xb34 <fetch_simm8_then_ijmp>

00000870 <primary_CE_cmpi_s8_c2>:
     870:	e1 ee       	ldi	r30, 0xE1	; 225
     872:	f5 e0       	ldi	r31, 0x05	; 5
     874:	00 00       	nop
     876:	5e c1       	rjmp	.+700    	; 0xb34 <fetch_simm8_then_ijmp>

00000878 <primary_CF_cmpi_s8_c3>:
     878:	e5 ee       	ldi	r30, 0xE5	; 229
     87a:	f5 e0       	ldi	r31, 0x05	; 5
     87c:	00 00       	nop
     87e:	5a c1       	rjmp	.+692    	; 0xb34 <fetch_simm8_then_ijmp>

00000880 <primary_D0_breq8_rel8>:
     880:	43 0c       	add	r4, r3
     882:	52 1c       	adc	r5, r2
     884:	62 1c       	adc	r6, r2
     886:	a5 c1       	rjmp	.+842    	; 0xbd2 <breq8_rel8_decode_func>

00000888 <primary_D1_brne8_rel8>:
     888:	43 0c       	add	r4, r3
     88a:	52 1c       	adc	r5, r2
     88c:	62 1c       	adc	r6, r2
     88e:	a9 c1       	rjmp	.+850    	; 0xbe2 <brne8_rel8_decode_func>

00000890 <primary_D2_brult8_rel8>:
     890:	43 0c       	add	r4, r3
     892:	52 1c       	adc	r5, r2
     894:	62 1c       	adc	r6, r2
     896:	ad c1       	rjmp	.+858    	; 0xbf2 <brult8_rel8_decode_func>

00000898 <primary_D3_brslt8_rel8>:
     898:	43 0c       	add	r4, r3
     89a:	52 1c       	adc	r5, r2
     89c:	62 1c       	adc	r6, r2
     89e:	b1 c1       	rjmp	.+866    	; 0xc02 <brslt8_rel8_decode_func>

000008a0 <primary_D4_jmp8_rel8>:
     8a0:	43 0c       	add	r4, r3
     8a2:	52 1c       	adc	r5, r2
     8a4:	62 1c       	adc	r6, r2
     8a6:	ec c1       	rjmp	.+984    	; 0xc80 <branch_rel16_block_end>

000008a8 <primary_D5_call8_rel8>:
     8a8:	43 0c       	add	r4, r3
     8aa:	52 1c       	adc	r5, r2
     8ac:	62 1c       	adc	r6, r2
     8ae:	f4 c1       	rjmp	.+1000   	; 0xc98 <call8_rel8_func>

000008b0 <primary_D6_adjsp>:
     8b0:	43 0c       	add	r4, r3
     8b2:	52 1c       	adc	r5, r2
     8b4:	62 1c       	adc	r6, r2
     8b6:	ff c1       	rjmp	.+1022   	; 0xcb6 <adjsp_simm8_func>

000008b8 <primary_D7_sys>:
     8b8:	43 0c       	add	r4, r3
     8ba:	52 1c       	adc	r5, r2
     8bc:	62 1c       	adc	r6, r2
     8be:	3c c2       	rjmp	.+1144   	; 0xd38 <sys_decode_func>

000008c0 <primary_D7_sys_end>:
     8c0:	43 0c       	add	r4, r3
     8c2:	52 1c       	adc	r5, r2
     8c4:	62 1c       	adc	r6, r2
     8c6:	a5 c1       	rjmp	.+842    	; 0xc12 <bruge8_rel8_decode_func>

000008c8 <primary_D9_brsge8_rel8>:
     8c8:	43 0c       	add	r4, r3
     8ca:	52 1c       	adc	r5, r2
     8cc:	62 1c       	adc	r6, r2
     8ce:	a9 c1       	rjmp	.+850    	; 0xc22 <brsge8_rel8_decode_func>

000008d0 <primary_DA_breq16_rel16>:
     8d0:	92 e0       	ldi	r25, 0x02	; 2
     8d2:	43 0c       	add	r4, r3
     8d4:	52 1c       	adc	r5, r2
     8d6:	bb c1       	rjmp	.+886    	; 0xc4e <branch_rel16_decode_func>

000008d8 <primary_DB_brne16_rel16>:
     8d8:	92 e0       	ldi	r25, 0x02	; 2
     8da:	43 0c       	add	r4, r3
     8dc:	52 1c       	adc	r5, r2
     8de:	b7 c1       	rjmp	.+878    	; 0xc4e <branch_rel16_decode_func>

000008e0 <primary_DC_brult16_rel16>:
     8e0:	91 e0       	ldi	r25, 0x01	; 1
     8e2:	43 0c       	add	r4, r3
     8e4:	52 1c       	adc	r5, r2
     8e6:	b3 c1       	rjmp	.+870    	; 0xc4e <branch_rel16_decode_func>

000008e8 <primary_DD_bruge16_rel16>:
     8e8:	91 e0       	ldi	r25, 0x01	; 1
     8ea:	43 0c       	add	r4, r3
     8ec:	52 1c       	adc	r5, r2
     8ee:	af c1       	rjmp	.+862    	; 0xc4e <branch_rel16_decode_func>

000008f0 <primary_DE_brslt16_rel16>:
     8f0:	90 e1       	ldi	r25, 0x10	; 16
     8f2:	43 0c       	add	r4, r3
     8f4:	52 1c       	adc	r5, r2
     8f6:	ab c1       	rjmp	.+854    	; 0xc4e <branch_rel16_decode_func>

000008f8 <primary_DF_brsge16_rel16>:
     8f8:	90 e1       	ldi	r25, 0x10	; 16
     8fa:	43 0c       	add	r4, r3
     8fc:	52 1c       	adc	r5, r2
     8fe:	a7 c1       	rjmp	.+846    	; 0xc4e <branch_rel16_decode_func>

00000900 <primary_E0_jmp16>:
     900:	43 0c       	add	r4, r3
     902:	52 1c       	adc	r5, r2
     904:	62 1c       	adc	r6, r2
     906:	e4 c1       	rjmp	.+968    	; 0xcd0 <jmp_call_rel16_func>

00000908 <primary_E1_call16>:
     908:	43 0c       	add	r4, r3
     90a:	52 1c       	adc	r5, r2
     90c:	62 1c       	adc	r6, r2
     90e:	e0 c1       	rjmp	.+960    	; 0xcd0 <jmp_call_rel16_func>

00000910 <primary_E2_jmpf>:
     910:	00 00       	nop
     912:	00 00       	nop
     914:	00 00       	nop
     916:	f6 c1       	rjmp	.+1004   	; 0xd04 <jmp_call_far_func>

00000918 <primary_E3_callf>:
     918:	47 0c       	add	r4, r7
     91a:	52 1c       	adc	r5, r2
     91c:	62 1c       	adc	r6, r2
     91e:	f2 c1       	rjmp	.+996    	; 0xd04 <jmp_call_far_func>

00000920 <primary_E4_jmpp_q0>:
     920:	24 01       	movw	r4, r8
     922:	6a 2c       	mov	r6, r10
     924:	00 c0       	rjmp	.+0      	; 0x926 <primary_E4_jmpp_q0+0x6>
     926:	28 c3       	rjmp	.+1616   	; 0xf78 <jmpp_seek_and_dispatch_func>

00000928 <primary_E5_jmpp_q1>:
     928:	26 01       	movw	r4, r12
     92a:	6e 2c       	mov	r6, r14
     92c:	00 c0       	rjmp	.+0      	; 0x92e <primary_E5_jmpp_q1+0x6>
     92e:	24 c3       	rjmp	.+1608   	; 0xf78 <jmpp_seek_and_dispatch_func>

00000930 <primary_E6_jmpp_q2>:
     930:	28 01       	movw	r4, r16
     932:	62 2e       	mov	r6, r18
     934:	00 c0       	rjmp	.+0      	; 0x936 <primary_E6_jmpp_q2+0x6>
     936:	20 c3       	rjmp	.+1600   	; 0xf78 <jmpp_seek_and_dispatch_func>

00000938 <primary_E7_jmpp_q3>:
     938:	2a 01       	movw	r4, r20
     93a:	66 2e       	mov	r6, r22
     93c:	00 c0       	rjmp	.+0      	; 0x93e <primary_E7_jmpp_q3+0x6>
     93e:	1c c3       	rjmp	.+1592   	; 0xf78 <jmpp_seek_and_dispatch_func>

00000940 <primary_E8_callp_q0>:
     940:	c4 01       	movw	r24, r8
     942:	aa 2d       	mov	r26, r10
     944:	43 0c       	add	r4, r3
     946:	19 c3       	rjmp	.+1586   	; 0xf7a <push_pc_seek_and_dispatch_func>

00000948 <primary_E9_callp_q1>:
     948:	c6 01       	movw	r24, r12
     94a:	ae 2d       	mov	r26, r14
     94c:	43 0c       	add	r4, r3
     94e:	15 c3       	rjmp	.+1578   	; 0xf7a <push_pc_seek_and_dispatch_func>

00000950 <primary_EA_callp_q2>:
     950:	c8 01       	movw	r24, r16
     952:	a2 2f       	mov	r26, r18
     954:	43 0c       	add	r4, r3
     956:	11 c3       	rjmp	.+1570   	; 0xf7a <push_pc_seek_and_dispatch_func>

00000958 <primary_EB_callp_q3>:
     958:	ca 01       	movw	r24, r20
     95a:	a6 2f       	mov	r26, r22
     95c:	43 0c       	add	r4, r3
     95e:	0d c3       	rjmp	.+1562   	; 0xf7a <push_pc_seek_and_dispatch_func>

00000960 <primary_EC_reserved>:
     960:	39 c3       	rjmp	.+1650   	; 0xfd4 <invalid_primary_instruction_func>
     962:	00 00       	nop
     964:	00 00       	nop
     966:	00 00       	nop

00000968 <primary_ED_reserved>:
     968:	35 c3       	rjmp	.+1642   	; 0xfd4 <invalid_primary_instruction_func>
     96a:	00 00       	nop
     96c:	00 00       	nop
     96e:	00 00       	nop

00000970 <primary_EE_reserved>:
     970:	31 c3       	rjmp	.+1634   	; 0xfd4 <invalid_primary_instruction_func>
     972:	00 00       	nop
     974:	00 00       	nop
     976:	00 00       	nop

00000978 <primary_EF_ret>:
     978:	49 90       	ld	r4, Y+
     97a:	59 90       	ld	r5, Y+
     97c:	69 90       	ld	r6, Y+
     97e:	04 c3       	rjmp	.+1544   	; 0xf88 <seek_and_dispatch_func>

00000980 <primary_F0_cold_veneer_page>:
     980:	9e e6       	ldi	r25, 0x6E	; 110
     982:	e7 ea       	ldi	r30, 0xA7	; 167
     984:	f8 e0       	ldi	r31, 0x08	; 8
     986:	85 c0       	rjmp	.+266    	; 0xa92 <bounded_page_decoder_start>

00000988 <primary_F1_dense_2word_page>:
     988:	90 e9       	ldi	r25, 0x90	; 144
     98a:	e5 e1       	ldi	r30, 0x15	; 21
     98c:	f9 e0       	ldi	r31, 0x09	; 9
     98e:	73 c0       	rjmp	.+230    	; 0xa76 <bounded_width_2_decode>

00000990 <primary_F2_dense_3word_page_a>:
     990:	90 e6       	ldi	r25, 0x60	; 96
     992:	e5 e3       	ldi	r30, 0x35	; 53
     994:	fa e0       	ldi	r31, 0x0A	; 10
     996:	7f c0       	rjmp	.+254    	; 0xa96 <secondary_width_1_stub_end>

00000998 <primary_F3_dense_3word_page_b>:
     998:	90 e8       	ldi	r25, 0x80	; 128
     99a:	e5 e5       	ldi	r30, 0x55	; 85
     99c:	fb e0       	ldi	r31, 0x0B	; 11
     99e:	7b c0       	rjmp	.+246    	; 0xa96 <secondary_width_1_stub_end>

000009a0 <primary_F4_dense_3word_page_c>:
     9a0:	98 eb       	ldi	r25, 0xB8	; 184
     9a2:	e0 ef       	ldi	r30, 0xF0	; 240
     9a4:	fc e0       	ldi	r31, 0x0C	; 12
     9a6:	77 c0       	rjmp	.+238    	; 0xa96 <secondary_width_1_stub_end>

000009a8 <primary_F5_dense_4word_page_a>:
     9a8:	90 e6       	ldi	r25, 0x60	; 96
     9aa:	e8 e1       	ldi	r30, 0x18	; 24
     9ac:	ff e0       	ldi	r31, 0x0F	; 15
     9ae:	75 c0       	rjmp	.+234    	; 0xa9a <secondary_width_3_stub_end>

000009b0 <primary_F6_dense_4word_page_b>:
     9b0:	90 e5       	ldi	r25, 0x50	; 80
     9b2:	e8 e9       	ldi	r30, 0x98	; 152
     9b4:	f0 e1       	ldi	r31, 0x10	; 16
     9b6:	71 c0       	rjmp	.+226    	; 0xa9a <secondary_width_3_stub_end>

000009b8 <primary_F7_dense_5word_page_a>:
     9b8:	90 e9       	ldi	r25, 0x90	; 144
     9ba:	e8 ed       	ldi	r30, 0xD8	; 216
     9bc:	f1 e1       	ldi	r31, 0x11	; 17
     9be:	6f c0       	rjmp	.+222    	; 0xa9e <secondary_width_4_stub_end>

000009c0 <primary_F8_simple_condition_page>:
     9c0:	90 e3       	ldi	r25, 0x30	; 48
     9c2:	ef eb       	ldi	r30, 0xBF	; 191
     9c4:	f4 e1       	ldi	r31, 0x14	; 20
     9c6:	6b c0       	rjmp	.+214    	; 0xa9e <secondary_width_4_stub_end>

000009c8 <primary_F9_runtime_bitwise_page>:
     9c8:	1b c0       	rjmp	.+54     	; 0xa00 <f9_bitop_entry>
     9ca:	00 00       	nop
     9cc:	00 00       	nop
     9ce:	00 00       	nop

000009d0 <primary_FA_shift_page>:
     9d0:	00 00       	nop
     9d2:	ec eb       	ldi	r30, 0xBC	; 188
     9d4:	f5 e1       	ldi	r31, 0x15	; 21
     9d6:	3b c0       	rjmp	.+118    	; 0xa4e <f9_bitop_end>

000009d8 <primary_FB_cmov_eq_ne_page>:
     9d8:	b2 e0       	ldi	r27, 0x02	; 2
     9da:	e0 eb       	ldi	r30, 0xB0	; 176
     9dc:	f6 e1       	ldi	r31, 0x16	; 22
     9de:	6d c0       	rjmp	.+218    	; 0xaba <bounded_page_decoder_end>

000009e0 <primary_FC_cmov_ult_uge_page>:
     9e0:	b1 e0       	ldi	r27, 0x01	; 1
     9e2:	e0 eb       	ldi	r30, 0xB0	; 176
     9e4:	f6 e1       	ldi	r31, 0x16	; 22
     9e6:	69 c0       	rjmp	.+210    	; 0xaba <bounded_page_decoder_end>

000009e8 <primary_FD_cmov_slt_sge_page>:
     9e8:	b0 e1       	ldi	r27, 0x10	; 16
     9ea:	e0 eb       	ldi	r30, 0xB0	; 176
     9ec:	f6 e1       	ldi	r31, 0x16	; 22
     9ee:	65 c0       	rjmp	.+202    	; 0xaba <bounded_page_decoder_end>

000009f0 <primary_FE_mul16_page>:
     9f0:	90 e4       	ldi	r25, 0x40	; 64
     9f2:	e0 e3       	ldi	r30, 0x30	; 48
     9f4:	f7 e1       	ldi	r31, 0x17	; 23
     9f6:	3f c0       	rjmp	.+126    	; 0xa76 <bounded_width_2_decode>

000009f8 <primary_FF_reserved>:
     9f8:	ed c2       	rjmp	.+1498   	; 0xfd4 <invalid_primary_instruction_func>
     9fa:	00 00       	nop
     9fc:	00 00       	nop
     9fe:	00 00       	nop

00000a00 <f9_bitop_entry>:
     a00:	43 0c       	add	r4, r3
     a02:	52 1c       	adc	r5, r2
     a04:	62 1c       	adc	r6, r2
     a06:	b2 2d       	mov	r27, r2
     a08:	f2 2d       	mov	r31, r2
     a0a:	f8 94       	cli
     a0c:	2e bc       	out	0x2e, r2	; 46
     a0e:	8e b5       	in	r24, 0x2e	; 46
     a10:	78 94       	sei
     a12:	a8 2f       	mov	r26, r24
     a14:	a2 95       	swap	r26
     a16:	ae 70       	andi	r26, 0x0E	; 14
     a18:	a8 5f       	subi	r26, 0xF8	; 248
     a1a:	e8 2f       	mov	r30, r24
     a1c:	e6 95       	lsr	r30
     a1e:	ee 70       	andi	r30, 0x0E	; 14
     a20:	e8 5f       	subi	r30, 0xF8	; 248
     a22:	86 95       	lsr	r24
     a24:	0d 90       	ld	r0, X+
     a26:	1c 90       	ld	r1, X
     a28:	91 91       	ld	r25, Z+
     a2a:	b0 81       	ld	r27, Z
     a2c:	80 fd       	sbrc	r24, 0
     a2e:	0a c0       	rjmp	.+20     	; 0xa44 <.Lf9_high_operation>
     a30:	18 f4       	brcc	.+6      	; 0xa38 <.Lf9_and>
     a32:	09 2a       	or	r0, r25
     a34:	1b 2a       	or	r1, r27
     a36:	02 c0       	rjmp	.+4      	; 0xa3c <.Lf9_store>

00000a38 <.Lf9_and>:
     a38:	09 22       	and	r0, r25
     a3a:	1b 22       	and	r1, r27

00000a3c <.Lf9_store>:
     a3c:	b2 2d       	mov	r27, r2
     a3e:	1c 92       	st	X, r1
     a40:	0e 92       	st	-X, r0
     a42:	dc c2       	rjmp	.+1464   	; 0xffc <cluster_a_tail_18>

00000a44 <.Lf9_high_operation>:
     a44:	18 f0       	brcs	.+6      	; 0xa4c <.Lf9_invalid>
     a46:	09 26       	eor	r0, r25
     a48:	1b 26       	eor	r1, r27
     a4a:	f8 cf       	rjmp	.-16     	; 0xa3c <.Lf9_store>

00000a4c <.Lf9_invalid>:
     a4c:	c4 c2       	rjmp	.+1416   	; 0xfd6 <invalid_secondary_instruction_func>

00000a4e <f9_bitop_end>:
     a4e:	43 0c       	add	r4, r3
     a50:	52 1c       	adc	r5, r2
     a52:	f8 94       	cli
     a54:	2e bc       	out	0x2e, r2	; 46
     a56:	8e b5       	in	r24, 0x2e	; 46
     a58:	78 94       	sei
     a5a:	62 1c       	adc	r6, r2
     a5c:	80 33       	cpi	r24, 0x30	; 48
     a5e:	38 f0       	brcs	.+14     	; 0xa6e <.Lfa_register_count>
     a60:	a8 2f       	mov	r26, r24
     a62:	82 95       	swap	r24
     a64:	8f 70       	andi	r24, 0x0F	; 15
     a66:	70 97       	sbiw	r30, 0x10	; 16
     a68:	e8 0f       	add	r30, r24
     a6a:	f2 1d       	adc	r31, r2
     a6c:	09 94       	ijmp

00000a6e <.Lfa_register_count>:
     a6e:	88 0f       	add	r24, r24
     a70:	e8 0f       	add	r30, r24
     a72:	f2 1d       	adc	r31, r2
     a74:	09 94       	ijmp

00000a76 <bounded_width_2_decode>:
     a76:	43 0c       	add	r4, r3
     a78:	52 1c       	adc	r5, r2
     a7a:	f8 94       	cli
     a7c:	2e bc       	out	0x2e, r2	; 46
     a7e:	8e b5       	in	r24, 0x2e	; 46
     a80:	78 94       	sei
     a82:	62 1c       	adc	r6, r2
     a84:	89 17       	cp	r24, r25
     a86:	c0 f4       	brcc	.+48     	; 0xab8 <invalid_secondary>
     a88:	e8 0f       	add	r30, r24
     a8a:	f2 1d       	adc	r31, r2
     a8c:	e8 0f       	add	r30, r24
     a8e:	f2 1d       	adc	r31, r2
     a90:	09 94       	ijmp

00000a92 <bounded_page_decoder_start>:
     a92:	a1 e0       	ldi	r26, 0x01	; 1
     a94:	06 c0       	rjmp	.+12     	; 0xaa2 <bounded_page_decode>

00000a96 <secondary_width_1_stub_end>:
     a96:	a3 e0       	ldi	r26, 0x03	; 3
     a98:	04 c0       	rjmp	.+8      	; 0xaa2 <bounded_page_decode>

00000a9a <secondary_width_3_stub_end>:
     a9a:	a4 e0       	ldi	r26, 0x04	; 4
     a9c:	02 c0       	rjmp	.+4      	; 0xaa2 <bounded_page_decode>

00000a9e <secondary_width_4_stub_end>:
     a9e:	a5 e0       	ldi	r26, 0x05	; 5
     aa0:	00 c0       	rjmp	.+0      	; 0xaa2 <bounded_page_decode>

00000aa2 <bounded_page_decode>:
     aa2:	8e b5       	in	r24, 0x2e	; 46
     aa4:	2e bc       	out	0x2e, r2	; 46
     aa6:	43 0c       	add	r4, r3
     aa8:	52 1c       	adc	r5, r2
     aaa:	62 1c       	adc	r6, r2
     aac:	89 17       	cp	r24, r25
     aae:	20 f4       	brcc	.+8      	; 0xab8 <invalid_secondary>

00000ab0 <bounded_page_valid>:
     ab0:	8a 9f       	mul	r24, r26
     ab2:	e0 0d       	add	r30, r0
     ab4:	f1 1d       	adc	r31, r1
     ab6:	09 94       	ijmp

00000ab8 <invalid_secondary>:
     ab8:	8e c2       	rjmp	.+1308   	; 0xfd6 <invalid_secondary_instruction_func>

00000aba <bounded_page_decoder_end>:
     aba:	43 0c       	add	r4, r3
     abc:	52 1c       	adc	r5, r2
     abe:	62 1c       	adc	r6, r2
     ac0:	ae b5       	in	r26, 0x2e	; 46
     ac2:	2e bc       	out	0x2e, r2	; 46
     ac4:	a0 38       	cpi	r26, 0x80	; 128
     ac6:	58 f4       	brcc	.+22     	; 0xade <cmov_invalid>
     ac8:	9e b3       	in	r25, 0x1e	; 30
     aca:	a6 fd       	sbrc	r26, 6
     acc:	90 95       	com	r25
     ace:	9b 23       	and	r25, r27
     ad0:	29 f0       	breq	.+10     	; 0xadc <cmov_no_move>
     ad2:	af 73       	andi	r26, 0x3F	; 63
     ad4:	aa 0f       	add	r26, r26
     ad6:	ea 0f       	add	r30, r26
     ad8:	f2 1d       	adc	r31, r2
     ada:	09 94       	ijmp

00000adc <cmov_no_move>:
     adc:	7e c2       	rjmp	.+1276   	; 0xfda <cluster_a_tail>

00000ade <cmov_invalid>:
     ade:	ec cf       	rjmp	.-40     	; 0xab8 <invalid_secondary>

00000ae0 <cmov_gate_end>:
     ae0:	00 00       	nop

00000ae2 <flags_commit_18>:
     ae2:	8e bb       	out	0x1e, r24	; 30
     ae4:	43 0c       	add	r4, r3
     ae6:	8e b5       	in	r24, 0x2e	; 46
     ae8:	2e bc       	out	0x2e, r2	; 46
     aea:	52 1c       	adc	r5, r2
     aec:	62 1c       	adc	r6, r2
     aee:	87 9d       	mul	r24, r7
     af0:	f0 01       	movw	r30, r0
     af2:	ff 5f       	subi	r31, 0xFF	; 255
     af4:	09 94       	ijmp

00000af6 <cmpi_s8_flags_commit_17>:
     af6:	8e bb       	out	0x1e, r24	; 30

00000af8 <cluster_tail_17_delay_1>:
     af8:	00 00       	nop

00000afa <cluster_tail_17>:
     afa:	43 0c       	add	r4, r3
     afc:	52 1c       	adc	r5, r2
     afe:	62 1c       	adc	r6, r2
     b00:	f8 94       	cli
     b02:	2e bc       	out	0x2e, r2	; 46
     b04:	8e b5       	in	r24, 0x2e	; 46
     b06:	78 94       	sei
     b08:	87 9d       	mul	r24, r7
     b0a:	f0 01       	movw	r30, r0
     b0c:	ff 5f       	subi	r31, 0xFF	; 255
     b0e:	09 94       	ijmp

00000b10 <cluster_tail_18_delay_3>:
     b10:	00 00       	nop

00000b12 <cluster_tail_18_delay_2>:
     b12:	01 c0       	rjmp	.+2      	; 0xb16 <cluster_tail_18>

00000b14 <cluster_tail_18_delay_1>:
     b14:	00 00       	nop

00000b16 <cluster_tail_18>:
     b16:	43 0c       	add	r4, r3
     b18:	8e b5       	in	r24, 0x2e	; 46
     b1a:	2e bc       	out	0x2e, r2	; 46
     b1c:	52 1c       	adc	r5, r2
     b1e:	62 1c       	adc	r6, r2
     b20:	87 9d       	mul	r24, r7
     b22:	f0 01       	movw	r30, r0
     b24:	ff 5f       	subi	r31, 0xFF	; 255
     b26:	09 94       	ijmp

00000b28 <fetch_imm8_then_ijmp>:
     b28:	43 0c       	add	r4, r3
     b2a:	52 1c       	adc	r5, r2
     b2c:	62 1c       	adc	r6, r2
     b2e:	8e b5       	in	r24, 0x2e	; 46
     b30:	2e bc       	out	0x2e, r2	; 46
     b32:	09 94       	ijmp

00000b34 <fetch_simm8_then_ijmp>:
     b34:	43 0c       	add	r4, r3
     b36:	52 1c       	adc	r5, r2
     b38:	62 1c       	adc	r6, r2
     b3a:	8e b5       	in	r24, 0x2e	; 46
     b3c:	2e bc       	out	0x2e, r2	; 46
     b3e:	99 27       	eor	r25, r25
     b40:	87 fd       	sbrc	r24, 7
     b42:	90 95       	com	r25
     b44:	09 94       	ijmp

00000b46 <fetch_imm16_then_ijmp>:
     b46:	43 0c       	add	r4, r3
     b48:	52 1c       	adc	r5, r2
     b4a:	62 1c       	adc	r6, r2
     b4c:	8e b5       	in	r24, 0x2e	; 46
     b4e:	2e bc       	out	0x2e, r2	; 46
     b50:	43 0c       	add	r4, r3
     b52:	52 1c       	adc	r5, r2
     b54:	62 1c       	adc	r6, r2
     b56:	38 d2       	rcall	.+1136   	; 0xfc8 <interp_delay_12>
     b58:	f8 94       	cli
     b5a:	2e bc       	out	0x2e, r2	; 46
     b5c:	9e b5       	in	r25, 0x2e	; 46
     b5e:	78 94       	sei
     b60:	09 94       	ijmp

00000b62 <immediate_result_tail_reverse_delay_6>:
     b62:	00 c0       	rjmp	.+0      	; 0xb64 <immediate_result_tail_reverse_delay_4>

00000b64 <immediate_result_tail_reverse_delay_4>:
     b64:	00 00       	nop

00000b66 <immediate_result_tail_reverse_delay_3>:
     b66:	00 00       	nop
     b68:	c8 cf       	rjmp	.-112    	; 0xafa <cluster_tail_17>

00000b6a <ldi8_c0_apply>:
     b6a:	08 2f       	mov	r16, r24
     b6c:	11 27       	eor	r17, r17
     b6e:	f9 cf       	rjmp	.-14     	; 0xb62 <immediate_result_tail_reverse_delay_6>

00000b70 <ldi8_c1_apply>:
     b70:	28 2f       	mov	r18, r24
     b72:	33 27       	eor	r19, r19
     b74:	f6 cf       	rjmp	.-20     	; 0xb62 <immediate_result_tail_reverse_delay_6>

00000b76 <ldi8_c2_apply>:
     b76:	48 2f       	mov	r20, r24
     b78:	55 27       	eor	r21, r21
     b7a:	f3 cf       	rjmp	.-26     	; 0xb62 <immediate_result_tail_reverse_delay_6>

00000b7c <ldi8_c3_apply>:
     b7c:	68 2f       	mov	r22, r24
     b7e:	77 27       	eor	r23, r23
     b80:	f0 cf       	rjmp	.-32     	; 0xb62 <immediate_result_tail_reverse_delay_6>

00000b82 <ldi16_c0_apply>:
     b82:	08 2f       	mov	r16, r24
     b84:	19 2f       	mov	r17, r25
     b86:	ee cf       	rjmp	.-36     	; 0xb64 <immediate_result_tail_reverse_delay_4>

00000b88 <ldi16_c1_apply>:
     b88:	28 2f       	mov	r18, r24
     b8a:	39 2f       	mov	r19, r25
     b8c:	eb cf       	rjmp	.-42     	; 0xb64 <immediate_result_tail_reverse_delay_4>

00000b8e <ldi16_c2_apply>:
     b8e:	48 2f       	mov	r20, r24
     b90:	59 2f       	mov	r21, r25
     b92:	e8 cf       	rjmp	.-48     	; 0xb64 <immediate_result_tail_reverse_delay_4>

00000b94 <ldi16_c3_apply>:
     b94:	68 2f       	mov	r22, r24
     b96:	79 2f       	mov	r23, r25
     b98:	e5 cf       	rjmp	.-54     	; 0xb64 <immediate_result_tail_reverse_delay_4>

00000b9a <addi_s8_c0_apply>:
     b9a:	08 0f       	add	r16, r24
     b9c:	19 1f       	adc	r17, r25
     b9e:	e3 cf       	rjmp	.-58     	; 0xb66 <immediate_result_tail_reverse_delay_3>

00000ba0 <addi_s8_c1_apply>:
     ba0:	28 0f       	add	r18, r24
     ba2:	39 1f       	adc	r19, r25
     ba4:	e0 cf       	rjmp	.-64     	; 0xb66 <immediate_result_tail_reverse_delay_3>

00000ba6 <addi_s8_c2_apply>:
     ba6:	48 0f       	add	r20, r24
     ba8:	59 1f       	adc	r21, r25
     baa:	dd cf       	rjmp	.-70     	; 0xb66 <immediate_result_tail_reverse_delay_3>

00000bac <addi_s8_c3_apply>:
     bac:	68 0f       	add	r22, r24
     bae:	79 1f       	adc	r23, r25
     bb0:	da cf       	rjmp	.-76     	; 0xb66 <immediate_result_tail_reverse_delay_3>

00000bb2 <cmpi_s8_c0_apply>:
     bb2:	08 17       	cp	r16, r24
     bb4:	19 07       	cpc	r17, r25
     bb6:	8f b7       	in	r24, 0x3f	; 63
     bb8:	9e cf       	rjmp	.-196    	; 0xaf6 <cmpi_s8_flags_commit_17>

00000bba <cmpi_s8_c1_apply>:
     bba:	28 17       	cp	r18, r24
     bbc:	39 07       	cpc	r19, r25
     bbe:	8f b7       	in	r24, 0x3f	; 63
     bc0:	9a cf       	rjmp	.-204    	; 0xaf6 <cmpi_s8_flags_commit_17>

00000bc2 <cmpi_s8_c2_apply>:
     bc2:	48 17       	cp	r20, r24
     bc4:	59 07       	cpc	r21, r25
     bc6:	8f b7       	in	r24, 0x3f	; 63
     bc8:	96 cf       	rjmp	.-212    	; 0xaf6 <cmpi_s8_flags_commit_17>

00000bca <cmpi_s8_c3_apply>:
     bca:	68 17       	cp	r22, r24
     bcc:	79 07       	cpc	r23, r25
     bce:	8f b7       	in	r24, 0x3f	; 63
     bd0:	92 cf       	rjmp	.-220    	; 0xaf6 <cmpi_s8_flags_commit_17>

00000bd2 <breq8_rel8_decode_func>:
     bd2:	00 c0       	rjmp	.+0      	; 0xbd4 <breq8_rel8_decode_func+0x2>
     bd4:	f8 94       	cli
     bd6:	2e bc       	out	0x2e, r2	; 46
     bd8:	8e b5       	in	r24, 0x2e	; 46
     bda:	78 94       	sei
     bdc:	f1 9b       	sbis	0x1e, 1	; 30
     bde:	29 c0       	rjmp	.+82     	; 0xc32 <branch_rel8_not_taken_func>
     be0:	2c c0       	rjmp	.+88     	; 0xc3a <branch_rel8_taken_func>

00000be2 <brne8_rel8_decode_func>:
     be2:	00 c0       	rjmp	.+0      	; 0xbe4 <brne8_rel8_decode_func+0x2>
     be4:	f8 94       	cli
     be6:	2e bc       	out	0x2e, r2	; 46
     be8:	8e b5       	in	r24, 0x2e	; 46
     bea:	78 94       	sei
     bec:	f1 99       	sbic	0x1e, 1	; 30
     bee:	21 c0       	rjmp	.+66     	; 0xc32 <branch_rel8_not_taken_func>
     bf0:	24 c0       	rjmp	.+72     	; 0xc3a <branch_rel8_taken_func>

00000bf2 <brult8_rel8_decode_func>:
     bf2:	00 c0       	rjmp	.+0      	; 0xbf4 <brult8_rel8_decode_func+0x2>
     bf4:	f8 94       	cli
     bf6:	2e bc       	out	0x2e, r2	; 46
     bf8:	8e b5       	in	r24, 0x2e	; 46
     bfa:	78 94       	sei
     bfc:	f0 9b       	sbis	0x1e, 0	; 30
     bfe:	19 c0       	rjmp	.+50     	; 0xc32 <branch_rel8_not_taken_func>
     c00:	1c c0       	rjmp	.+56     	; 0xc3a <branch_rel8_taken_func>

00000c02 <brslt8_rel8_decode_func>:
     c02:	00 c0       	rjmp	.+0      	; 0xc04 <brslt8_rel8_decode_func+0x2>
     c04:	f8 94       	cli
     c06:	2e bc       	out	0x2e, r2	; 46
     c08:	8e b5       	in	r24, 0x2e	; 46
     c0a:	78 94       	sei
     c0c:	f4 9b       	sbis	0x1e, 4	; 30
     c0e:	11 c0       	rjmp	.+34     	; 0xc32 <branch_rel8_not_taken_func>
     c10:	14 c0       	rjmp	.+40     	; 0xc3a <branch_rel8_taken_func>

00000c12 <bruge8_rel8_decode_func>:
     c12:	00 c0       	rjmp	.+0      	; 0xc14 <bruge8_rel8_decode_func+0x2>
     c14:	f8 94       	cli
     c16:	2e bc       	out	0x2e, r2	; 46
     c18:	8e b5       	in	r24, 0x2e	; 46
     c1a:	78 94       	sei
     c1c:	f0 99       	sbic	0x1e, 0	; 30
     c1e:	09 c0       	rjmp	.+18     	; 0xc32 <branch_rel8_not_taken_func>
     c20:	0c c0       	rjmp	.+24     	; 0xc3a <branch_rel8_taken_func>

00000c22 <brsge8_rel8_decode_func>:
     c22:	00 c0       	rjmp	.+0      	; 0xc24 <brsge8_rel8_decode_func+0x2>
     c24:	f8 94       	cli
     c26:	2e bc       	out	0x2e, r2	; 46
     c28:	8e b5       	in	r24, 0x2e	; 46
     c2a:	78 94       	sei
     c2c:	f4 99       	sbic	0x1e, 4	; 30
     c2e:	01 c0       	rjmp	.+2      	; 0xc32 <branch_rel8_not_taken_func>
     c30:	04 c0       	rjmp	.+8      	; 0xc3a <branch_rel8_taken_func>

00000c32 <branch_rel8_not_taken_func>:
     c32:	00 c0       	rjmp	.+0      	; 0xc34 <branch_rel8_not_taken_func+0x2>
     c34:	00 c0       	rjmp	.+0      	; 0xc36 <branch_rel8_not_taken_func+0x4>
     c36:	00 c0       	rjmp	.+0      	; 0xc38 <branch_rel8_not_taken_func+0x6>
     c38:	60 cf       	rjmp	.-320    	; 0xafa <cluster_tail_17>

00000c3a <branch_rel8_taken_func>:
     c3a:	99 27       	eor	r25, r25
     c3c:	87 fd       	sbrc	r24, 7
     c3e:	90 95       	com	r25
     c40:	43 0c       	add	r4, r3
     c42:	52 1c       	adc	r5, r2
     c44:	62 1c       	adc	r6, r2
     c46:	48 0e       	add	r4, r24
     c48:	59 1e       	adc	r5, r25
     c4a:	69 1e       	adc	r6, r25
     c4c:	9d c1       	rjmp	.+826    	; 0xf88 <seek_and_dispatch_func>

00000c4e <branch_rel16_decode_func>:
     c4e:	62 1c       	adc	r6, r2
     c50:	be b3       	in	r27, 0x1e	; 30
     c52:	f8 94       	cli
     c54:	2e bc       	out	0x2e, r2	; 46
     c56:	ae b5       	in	r26, 0x2e	; 46
     c58:	78 94       	sei
     c5a:	43 0c       	add	r4, r3
     c5c:	52 1c       	adc	r5, r2
     c5e:	62 1c       	adc	r6, r2
     c60:	80 fd       	sbrc	r24, 0
     c62:	b0 95       	com	r27
     c64:	b9 23       	and	r27, r25
     c66:	41 f4       	brne	.+16     	; 0xc78 <branch_rel16_taken_func>

00000c68 <branch_rel16_not_taken_func>:
     c68:	00 c0       	rjmp	.+0      	; 0xc6a <branch_rel16_not_taken_func+0x2>
     c6a:	00 c0       	rjmp	.+0      	; 0xc6c <branch_rel16_not_taken_func+0x4>
     c6c:	00 c0       	rjmp	.+0      	; 0xc6e <branch_rel16_not_taken_func+0x6>
     c6e:	f8 94       	cli
     c70:	2e bc       	out	0x2e, r2	; 46
     c72:	8e b5       	in	r24, 0x2e	; 46
     c74:	78 94       	sei
     c76:	dd cf       	rjmp	.-70     	; 0xc32 <branch_rel8_not_taken_func>

00000c78 <branch_rel16_taken_func>:
     c78:	43 0c       	add	r4, r3
     c7a:	52 1c       	adc	r5, r2
     c7c:	62 1c       	adc	r6, r2
     c7e:	38 c0       	rjmp	.+112    	; 0xcf0 <rel16_read_high>

00000c80 <branch_rel16_block_end>:
     c80:	c8 95       	lpm
     c82:	ae b5       	in	r26, 0x2e	; 46
     c84:	99 27       	eor	r25, r25
     c86:	a7 fd       	sbrc	r26, 7
     c88:	90 95       	com	r25
     c8a:	43 0c       	add	r4, r3
     c8c:	52 1c       	adc	r5, r2
     c8e:	62 1c       	adc	r6, r2
     c90:	4a 0e       	add	r4, r26
     c92:	59 1e       	adc	r5, r25
     c94:	69 1e       	adc	r6, r25
     c96:	78 c1       	rjmp	.+752    	; 0xf88 <seek_and_dispatch_func>

00000c98 <call8_rel8_func>:
     c98:	c8 95       	lpm
     c9a:	ae b5       	in	r26, 0x2e	; 46
     c9c:	99 27       	eor	r25, r25
     c9e:	a7 fd       	sbrc	r26, 7
     ca0:	90 95       	com	r25
     ca2:	43 0c       	add	r4, r3
     ca4:	52 1c       	adc	r5, r2
     ca6:	62 1c       	adc	r6, r2
     ca8:	6a 92       	st	-Y, r6
     caa:	5a 92       	st	-Y, r5
     cac:	4a 92       	st	-Y, r4
     cae:	4a 0e       	add	r4, r26
     cb0:	59 1e       	adc	r5, r25
     cb2:	69 1e       	adc	r6, r25
     cb4:	69 c1       	rjmp	.+722    	; 0xf88 <seek_and_dispatch_func>

00000cb6 <adjsp_simm8_func>:
     cb6:	00 c0       	rjmp	.+0      	; 0xcb8 <adjsp_simm8_func+0x2>
     cb8:	f8 94       	cli
     cba:	2e bc       	out	0x2e, r2	; 46
     cbc:	8e b5       	in	r24, 0x2e	; 46
     cbe:	78 94       	sei
     cc0:	99 27       	eor	r25, r25
     cc2:	87 fd       	sbrc	r24, 7
     cc4:	90 95       	com	r25
     cc6:	c8 0f       	add	r28, r24
     cc8:	d9 1f       	adc	r29, r25
     cca:	00 c0       	rjmp	.+0      	; 0xccc <adjsp_simm8_func+0x16>
     ccc:	00 c0       	rjmp	.+0      	; 0xcce <adjsp_simm8_func+0x18>
     cce:	15 cf       	rjmp	.-470    	; 0xafa <cluster_tail_17>

00000cd0 <jmp_call_rel16_func>:
     cd0:	43 0c       	add	r4, r3
     cd2:	52 1c       	adc	r5, r2
     cd4:	f8 94       	cli
     cd6:	2e bc       	out	0x2e, r2	; 46
     cd8:	ae b5       	in	r26, 0x2e	; 46
     cda:	78 94       	sei
     cdc:	62 1c       	adc	r6, r2
     cde:	43 0c       	add	r4, r3
     ce0:	52 1c       	adc	r5, r2
     ce2:	62 1c       	adc	r6, r2
     ce4:	80 ff       	sbrs	r24, 0
     ce6:	0c 94 80 06 	jmp	0xd00	; 0xd00 <jmp_rel16_wait>
     cea:	6a 92       	st	-Y, r6
     cec:	5a 92       	st	-Y, r5
     cee:	4a 92       	st	-Y, r4

00000cf0 <rel16_read_high>:
     cf0:	99 27       	eor	r25, r25
     cf2:	be b5       	in	r27, 0x2e	; 46
     cf4:	b7 fd       	sbrc	r27, 7
     cf6:	90 95       	com	r25
     cf8:	4a 0e       	add	r4, r26
     cfa:	5b 1e       	adc	r5, r27
     cfc:	69 1e       	adc	r6, r25
     cfe:	44 c1       	rjmp	.+648    	; 0xf88 <seek_and_dispatch_func>

00000d00 <jmp_rel16_wait>:
     d00:	c8 95       	lpm
     d02:	f6 cf       	rjmp	.-20     	; 0xcf0 <rel16_read_high>

00000d04 <jmp_call_far_func>:
     d04:	b8 2f       	mov	r27, r24
     d06:	00 00       	nop
     d08:	f8 94       	cli
     d0a:	2e bc       	out	0x2e, r2	; 46
     d0c:	8e b5       	in	r24, 0x2e	; 46
     d0e:	78 94       	sei
     d10:	b0 ff       	sbrs	r27, 0
     d12:	0c 94 9a 06 	jmp	0xd34	; 0xd34 <jmp_far_wait>
     d16:	6a 92       	st	-Y, r6
     d18:	5a 92       	st	-Y, r5
     d1a:	4a 92       	st	-Y, r4
     d1c:	00 c0       	rjmp	.+0      	; 0xd1e <jmp_call_far_func+0x1a>
     d1e:	00 c0       	rjmp	.+0      	; 0xd20 <far_launch_high>

00000d20 <far_launch_high>:
     d20:	f8 94       	cli
     d22:	2e bc       	out	0x2e, r2	; 46
     d24:	9e b5       	in	r25, 0x2e	; 46
     d26:	78 94       	sei
     d28:	4d d1       	rcall	.+666    	; 0xfc4 <interp_delay_14>
     d2a:	ae b5       	in	r26, 0x2e	; 46
     d2c:	48 2e       	mov	r4, r24
     d2e:	59 2e       	mov	r5, r25
     d30:	6a 2e       	mov	r6, r26
     d32:	2a c1       	rjmp	.+596    	; 0xf88 <seek_and_dispatch_func>

00000d34 <jmp_far_wait>:
     d34:	4d d1       	rcall	.+666    	; 0xfd0 <interp_delay_7>
     d36:	f4 cf       	rjmp	.-24     	; 0xd20 <far_launch_high>

00000d38 <sys_decode_func>:
     d38:	e5 ea       	ldi	r30, 0xA5	; 165
     d3a:	f6 e0       	ldi	r31, 0x06	; 6
     d3c:	f8 94       	cli
     d3e:	2e bc       	out	0x2e, r2	; 46
     d40:	8e b5       	in	r24, 0x2e	; 46
     d42:	78 94       	sei

00000d44 <sys_dispatch_func>:
     d44:	e8 0f       	add	r30, r24
     d46:	f2 1d       	adc	r31, r2
     d48:	09 94       	ijmp

00000d4a <sys_dispatch_table>:
     d4a:	ff c0       	rjmp	.+510    	; 0xf4a <sys_debug_putc_func>
     d4c:	01 c1       	rjmp	.+514    	; 0xf50 <sys_debug_break_func>
     d4e:	02 c1       	rjmp	.+516    	; 0xf54 <sys_millis_func>
     d50:	08 c1       	rjmp	.+528    	; 0xf62 <sys_millis32_func>
     d52:	42 c1       	rjmp	.+644    	; 0xfd8 <invalid_syscall_func>
     d54:	41 c1       	rjmp	.+642    	; 0xfd8 <invalid_syscall_func>
     d56:	40 c1       	rjmp	.+640    	; 0xfd8 <invalid_syscall_func>
     d58:	3f c1       	rjmp	.+638    	; 0xfd8 <invalid_syscall_func>
     d5a:	3e c1       	rjmp	.+636    	; 0xfd8 <invalid_syscall_func>
     d5c:	3d c1       	rjmp	.+634    	; 0xfd8 <invalid_syscall_func>
     d5e:	3c c1       	rjmp	.+632    	; 0xfd8 <invalid_syscall_func>
     d60:	3b c1       	rjmp	.+630    	; 0xfd8 <invalid_syscall_func>
     d62:	3a c1       	rjmp	.+628    	; 0xfd8 <invalid_syscall_func>
     d64:	39 c1       	rjmp	.+626    	; 0xfd8 <invalid_syscall_func>
     d66:	38 c1       	rjmp	.+624    	; 0xfd8 <invalid_syscall_func>
     d68:	37 c1       	rjmp	.+622    	; 0xfd8 <invalid_syscall_func>
     d6a:	36 c1       	rjmp	.+620    	; 0xfd8 <invalid_syscall_func>
     d6c:	35 c1       	rjmp	.+618    	; 0xfd8 <invalid_syscall_func>
     d6e:	34 c1       	rjmp	.+616    	; 0xfd8 <invalid_syscall_func>
     d70:	33 c1       	rjmp	.+614    	; 0xfd8 <invalid_syscall_func>
     d72:	32 c1       	rjmp	.+612    	; 0xfd8 <invalid_syscall_func>
     d74:	31 c1       	rjmp	.+610    	; 0xfd8 <invalid_syscall_func>
     d76:	30 c1       	rjmp	.+608    	; 0xfd8 <invalid_syscall_func>
     d78:	2f c1       	rjmp	.+606    	; 0xfd8 <invalid_syscall_func>
     d7a:	2e c1       	rjmp	.+604    	; 0xfd8 <invalid_syscall_func>
     d7c:	2d c1       	rjmp	.+602    	; 0xfd8 <invalid_syscall_func>
     d7e:	2c c1       	rjmp	.+600    	; 0xfd8 <invalid_syscall_func>
     d80:	2b c1       	rjmp	.+598    	; 0xfd8 <invalid_syscall_func>
     d82:	2a c1       	rjmp	.+596    	; 0xfd8 <invalid_syscall_func>
     d84:	29 c1       	rjmp	.+594    	; 0xfd8 <invalid_syscall_func>
     d86:	28 c1       	rjmp	.+592    	; 0xfd8 <invalid_syscall_func>
     d88:	27 c1       	rjmp	.+590    	; 0xfd8 <invalid_syscall_func>
     d8a:	26 c1       	rjmp	.+588    	; 0xfd8 <invalid_syscall_func>
     d8c:	25 c1       	rjmp	.+586    	; 0xfd8 <invalid_syscall_func>
     d8e:	24 c1       	rjmp	.+584    	; 0xfd8 <invalid_syscall_func>
     d90:	23 c1       	rjmp	.+582    	; 0xfd8 <invalid_syscall_func>
     d92:	22 c1       	rjmp	.+580    	; 0xfd8 <invalid_syscall_func>
     d94:	21 c1       	rjmp	.+578    	; 0xfd8 <invalid_syscall_func>
     d96:	20 c1       	rjmp	.+576    	; 0xfd8 <invalid_syscall_func>
     d98:	1f c1       	rjmp	.+574    	; 0xfd8 <invalid_syscall_func>
     d9a:	1e c1       	rjmp	.+572    	; 0xfd8 <invalid_syscall_func>
     d9c:	1d c1       	rjmp	.+570    	; 0xfd8 <invalid_syscall_func>
     d9e:	1c c1       	rjmp	.+568    	; 0xfd8 <invalid_syscall_func>
     da0:	1b c1       	rjmp	.+566    	; 0xfd8 <invalid_syscall_func>
     da2:	1a c1       	rjmp	.+564    	; 0xfd8 <invalid_syscall_func>
     da4:	19 c1       	rjmp	.+562    	; 0xfd8 <invalid_syscall_func>
     da6:	18 c1       	rjmp	.+560    	; 0xfd8 <invalid_syscall_func>
     da8:	17 c1       	rjmp	.+558    	; 0xfd8 <invalid_syscall_func>
     daa:	16 c1       	rjmp	.+556    	; 0xfd8 <invalid_syscall_func>
     dac:	15 c1       	rjmp	.+554    	; 0xfd8 <invalid_syscall_func>
     dae:	14 c1       	rjmp	.+552    	; 0xfd8 <invalid_syscall_func>
     db0:	13 c1       	rjmp	.+550    	; 0xfd8 <invalid_syscall_func>
     db2:	12 c1       	rjmp	.+548    	; 0xfd8 <invalid_syscall_func>
     db4:	11 c1       	rjmp	.+546    	; 0xfd8 <invalid_syscall_func>
     db6:	10 c1       	rjmp	.+544    	; 0xfd8 <invalid_syscall_func>
     db8:	0f c1       	rjmp	.+542    	; 0xfd8 <invalid_syscall_func>
     dba:	0e c1       	rjmp	.+540    	; 0xfd8 <invalid_syscall_func>
     dbc:	0d c1       	rjmp	.+538    	; 0xfd8 <invalid_syscall_func>
     dbe:	0c c1       	rjmp	.+536    	; 0xfd8 <invalid_syscall_func>
     dc0:	0b c1       	rjmp	.+534    	; 0xfd8 <invalid_syscall_func>
     dc2:	0a c1       	rjmp	.+532    	; 0xfd8 <invalid_syscall_func>
     dc4:	09 c1       	rjmp	.+530    	; 0xfd8 <invalid_syscall_func>
     dc6:	08 c1       	rjmp	.+528    	; 0xfd8 <invalid_syscall_func>
     dc8:	07 c1       	rjmp	.+526    	; 0xfd8 <invalid_syscall_func>
     dca:	06 c1       	rjmp	.+524    	; 0xfd8 <invalid_syscall_func>
     dcc:	05 c1       	rjmp	.+522    	; 0xfd8 <invalid_syscall_func>
     dce:	04 c1       	rjmp	.+520    	; 0xfd8 <invalid_syscall_func>
     dd0:	03 c1       	rjmp	.+518    	; 0xfd8 <invalid_syscall_func>
     dd2:	02 c1       	rjmp	.+516    	; 0xfd8 <invalid_syscall_func>
     dd4:	01 c1       	rjmp	.+514    	; 0xfd8 <invalid_syscall_func>
     dd6:	00 c1       	rjmp	.+512    	; 0xfd8 <invalid_syscall_func>
     dd8:	ff c0       	rjmp	.+510    	; 0xfd8 <invalid_syscall_func>
     dda:	fe c0       	rjmp	.+508    	; 0xfd8 <invalid_syscall_func>
     ddc:	fd c0       	rjmp	.+506    	; 0xfd8 <invalid_syscall_func>
     dde:	fc c0       	rjmp	.+504    	; 0xfd8 <invalid_syscall_func>
     de0:	fb c0       	rjmp	.+502    	; 0xfd8 <invalid_syscall_func>
     de2:	fa c0       	rjmp	.+500    	; 0xfd8 <invalid_syscall_func>
     de4:	f9 c0       	rjmp	.+498    	; 0xfd8 <invalid_syscall_func>
     de6:	f8 c0       	rjmp	.+496    	; 0xfd8 <invalid_syscall_func>
     de8:	f7 c0       	rjmp	.+494    	; 0xfd8 <invalid_syscall_func>
     dea:	f6 c0       	rjmp	.+492    	; 0xfd8 <invalid_syscall_func>
     dec:	f5 c0       	rjmp	.+490    	; 0xfd8 <invalid_syscall_func>
     dee:	f4 c0       	rjmp	.+488    	; 0xfd8 <invalid_syscall_func>
     df0:	f3 c0       	rjmp	.+486    	; 0xfd8 <invalid_syscall_func>
     df2:	f2 c0       	rjmp	.+484    	; 0xfd8 <invalid_syscall_func>
     df4:	f1 c0       	rjmp	.+482    	; 0xfd8 <invalid_syscall_func>
     df6:	f0 c0       	rjmp	.+480    	; 0xfd8 <invalid_syscall_func>
     df8:	ef c0       	rjmp	.+478    	; 0xfd8 <invalid_syscall_func>
     dfa:	ee c0       	rjmp	.+476    	; 0xfd8 <invalid_syscall_func>
     dfc:	ed c0       	rjmp	.+474    	; 0xfd8 <invalid_syscall_func>
     dfe:	ec c0       	rjmp	.+472    	; 0xfd8 <invalid_syscall_func>
     e00:	eb c0       	rjmp	.+470    	; 0xfd8 <invalid_syscall_func>
     e02:	ea c0       	rjmp	.+468    	; 0xfd8 <invalid_syscall_func>
     e04:	e9 c0       	rjmp	.+466    	; 0xfd8 <invalid_syscall_func>
     e06:	e8 c0       	rjmp	.+464    	; 0xfd8 <invalid_syscall_func>
     e08:	e7 c0       	rjmp	.+462    	; 0xfd8 <invalid_syscall_func>
     e0a:	e6 c0       	rjmp	.+460    	; 0xfd8 <invalid_syscall_func>
     e0c:	e5 c0       	rjmp	.+458    	; 0xfd8 <invalid_syscall_func>
     e0e:	e4 c0       	rjmp	.+456    	; 0xfd8 <invalid_syscall_func>
     e10:	e3 c0       	rjmp	.+454    	; 0xfd8 <invalid_syscall_func>
     e12:	e2 c0       	rjmp	.+452    	; 0xfd8 <invalid_syscall_func>
     e14:	e1 c0       	rjmp	.+450    	; 0xfd8 <invalid_syscall_func>
     e16:	e0 c0       	rjmp	.+448    	; 0xfd8 <invalid_syscall_func>
     e18:	df c0       	rjmp	.+446    	; 0xfd8 <invalid_syscall_func>
     e1a:	de c0       	rjmp	.+444    	; 0xfd8 <invalid_syscall_func>
     e1c:	dd c0       	rjmp	.+442    	; 0xfd8 <invalid_syscall_func>
     e1e:	dc c0       	rjmp	.+440    	; 0xfd8 <invalid_syscall_func>
     e20:	db c0       	rjmp	.+438    	; 0xfd8 <invalid_syscall_func>
     e22:	da c0       	rjmp	.+436    	; 0xfd8 <invalid_syscall_func>
     e24:	d9 c0       	rjmp	.+434    	; 0xfd8 <invalid_syscall_func>
     e26:	d8 c0       	rjmp	.+432    	; 0xfd8 <invalid_syscall_func>
     e28:	d7 c0       	rjmp	.+430    	; 0xfd8 <invalid_syscall_func>
     e2a:	d6 c0       	rjmp	.+428    	; 0xfd8 <invalid_syscall_func>
     e2c:	d5 c0       	rjmp	.+426    	; 0xfd8 <invalid_syscall_func>
     e2e:	d4 c0       	rjmp	.+424    	; 0xfd8 <invalid_syscall_func>
     e30:	d3 c0       	rjmp	.+422    	; 0xfd8 <invalid_syscall_func>
     e32:	d2 c0       	rjmp	.+420    	; 0xfd8 <invalid_syscall_func>
     e34:	d1 c0       	rjmp	.+418    	; 0xfd8 <invalid_syscall_func>
     e36:	d0 c0       	rjmp	.+416    	; 0xfd8 <invalid_syscall_func>
     e38:	cf c0       	rjmp	.+414    	; 0xfd8 <invalid_syscall_func>
     e3a:	ce c0       	rjmp	.+412    	; 0xfd8 <invalid_syscall_func>
     e3c:	cd c0       	rjmp	.+410    	; 0xfd8 <invalid_syscall_func>
     e3e:	cc c0       	rjmp	.+408    	; 0xfd8 <invalid_syscall_func>
     e40:	cb c0       	rjmp	.+406    	; 0xfd8 <invalid_syscall_func>
     e42:	ca c0       	rjmp	.+404    	; 0xfd8 <invalid_syscall_func>
     e44:	c9 c0       	rjmp	.+402    	; 0xfd8 <invalid_syscall_func>
     e46:	c8 c0       	rjmp	.+400    	; 0xfd8 <invalid_syscall_func>
     e48:	c7 c0       	rjmp	.+398    	; 0xfd8 <invalid_syscall_func>
     e4a:	c6 c0       	rjmp	.+396    	; 0xfd8 <invalid_syscall_func>
     e4c:	c5 c0       	rjmp	.+394    	; 0xfd8 <invalid_syscall_func>
     e4e:	c4 c0       	rjmp	.+392    	; 0xfd8 <invalid_syscall_func>
     e50:	c3 c0       	rjmp	.+390    	; 0xfd8 <invalid_syscall_func>
     e52:	c2 c0       	rjmp	.+388    	; 0xfd8 <invalid_syscall_func>
     e54:	c1 c0       	rjmp	.+386    	; 0xfd8 <invalid_syscall_func>
     e56:	c0 c0       	rjmp	.+384    	; 0xfd8 <invalid_syscall_func>
     e58:	bf c0       	rjmp	.+382    	; 0xfd8 <invalid_syscall_func>
     e5a:	be c0       	rjmp	.+380    	; 0xfd8 <invalid_syscall_func>
     e5c:	bd c0       	rjmp	.+378    	; 0xfd8 <invalid_syscall_func>
     e5e:	bc c0       	rjmp	.+376    	; 0xfd8 <invalid_syscall_func>
     e60:	bb c0       	rjmp	.+374    	; 0xfd8 <invalid_syscall_func>
     e62:	ba c0       	rjmp	.+372    	; 0xfd8 <invalid_syscall_func>
     e64:	b9 c0       	rjmp	.+370    	; 0xfd8 <invalid_syscall_func>
     e66:	b8 c0       	rjmp	.+368    	; 0xfd8 <invalid_syscall_func>
     e68:	b7 c0       	rjmp	.+366    	; 0xfd8 <invalid_syscall_func>
     e6a:	b6 c0       	rjmp	.+364    	; 0xfd8 <invalid_syscall_func>
     e6c:	b5 c0       	rjmp	.+362    	; 0xfd8 <invalid_syscall_func>
     e6e:	b4 c0       	rjmp	.+360    	; 0xfd8 <invalid_syscall_func>
     e70:	b3 c0       	rjmp	.+358    	; 0xfd8 <invalid_syscall_func>
     e72:	b2 c0       	rjmp	.+356    	; 0xfd8 <invalid_syscall_func>
     e74:	b1 c0       	rjmp	.+354    	; 0xfd8 <invalid_syscall_func>
     e76:	b0 c0       	rjmp	.+352    	; 0xfd8 <invalid_syscall_func>
     e78:	af c0       	rjmp	.+350    	; 0xfd8 <invalid_syscall_func>
     e7a:	ae c0       	rjmp	.+348    	; 0xfd8 <invalid_syscall_func>
     e7c:	ad c0       	rjmp	.+346    	; 0xfd8 <invalid_syscall_func>
     e7e:	ac c0       	rjmp	.+344    	; 0xfd8 <invalid_syscall_func>
     e80:	ab c0       	rjmp	.+342    	; 0xfd8 <invalid_syscall_func>
     e82:	aa c0       	rjmp	.+340    	; 0xfd8 <invalid_syscall_func>
     e84:	a9 c0       	rjmp	.+338    	; 0xfd8 <invalid_syscall_func>
     e86:	a8 c0       	rjmp	.+336    	; 0xfd8 <invalid_syscall_func>
     e88:	a7 c0       	rjmp	.+334    	; 0xfd8 <invalid_syscall_func>
     e8a:	a6 c0       	rjmp	.+332    	; 0xfd8 <invalid_syscall_func>
     e8c:	a5 c0       	rjmp	.+330    	; 0xfd8 <invalid_syscall_func>
     e8e:	a4 c0       	rjmp	.+328    	; 0xfd8 <invalid_syscall_func>
     e90:	a3 c0       	rjmp	.+326    	; 0xfd8 <invalid_syscall_func>
     e92:	a2 c0       	rjmp	.+324    	; 0xfd8 <invalid_syscall_func>
     e94:	a1 c0       	rjmp	.+322    	; 0xfd8 <invalid_syscall_func>
     e96:	a0 c0       	rjmp	.+320    	; 0xfd8 <invalid_syscall_func>
     e98:	9f c0       	rjmp	.+318    	; 0xfd8 <invalid_syscall_func>
     e9a:	9e c0       	rjmp	.+316    	; 0xfd8 <invalid_syscall_func>
     e9c:	9d c0       	rjmp	.+314    	; 0xfd8 <invalid_syscall_func>
     e9e:	9c c0       	rjmp	.+312    	; 0xfd8 <invalid_syscall_func>
     ea0:	9b c0       	rjmp	.+310    	; 0xfd8 <invalid_syscall_func>
     ea2:	9a c0       	rjmp	.+308    	; 0xfd8 <invalid_syscall_func>
     ea4:	99 c0       	rjmp	.+306    	; 0xfd8 <invalid_syscall_func>
     ea6:	98 c0       	rjmp	.+304    	; 0xfd8 <invalid_syscall_func>
     ea8:	97 c0       	rjmp	.+302    	; 0xfd8 <invalid_syscall_func>
     eaa:	96 c0       	rjmp	.+300    	; 0xfd8 <invalid_syscall_func>
     eac:	95 c0       	rjmp	.+298    	; 0xfd8 <invalid_syscall_func>
     eae:	94 c0       	rjmp	.+296    	; 0xfd8 <invalid_syscall_func>
     eb0:	93 c0       	rjmp	.+294    	; 0xfd8 <invalid_syscall_func>
     eb2:	92 c0       	rjmp	.+292    	; 0xfd8 <invalid_syscall_func>
     eb4:	91 c0       	rjmp	.+290    	; 0xfd8 <invalid_syscall_func>
     eb6:	90 c0       	rjmp	.+288    	; 0xfd8 <invalid_syscall_func>
     eb8:	8f c0       	rjmp	.+286    	; 0xfd8 <invalid_syscall_func>
     eba:	8e c0       	rjmp	.+284    	; 0xfd8 <invalid_syscall_func>
     ebc:	8d c0       	rjmp	.+282    	; 0xfd8 <invalid_syscall_func>
     ebe:	8c c0       	rjmp	.+280    	; 0xfd8 <invalid_syscall_func>
     ec0:	8b c0       	rjmp	.+278    	; 0xfd8 <invalid_syscall_func>
     ec2:	8a c0       	rjmp	.+276    	; 0xfd8 <invalid_syscall_func>
     ec4:	89 c0       	rjmp	.+274    	; 0xfd8 <invalid_syscall_func>
     ec6:	88 c0       	rjmp	.+272    	; 0xfd8 <invalid_syscall_func>
     ec8:	87 c0       	rjmp	.+270    	; 0xfd8 <invalid_syscall_func>
     eca:	86 c0       	rjmp	.+268    	; 0xfd8 <invalid_syscall_func>
     ecc:	85 c0       	rjmp	.+266    	; 0xfd8 <invalid_syscall_func>
     ece:	84 c0       	rjmp	.+264    	; 0xfd8 <invalid_syscall_func>
     ed0:	83 c0       	rjmp	.+262    	; 0xfd8 <invalid_syscall_func>
     ed2:	82 c0       	rjmp	.+260    	; 0xfd8 <invalid_syscall_func>
     ed4:	81 c0       	rjmp	.+258    	; 0xfd8 <invalid_syscall_func>
     ed6:	80 c0       	rjmp	.+256    	; 0xfd8 <invalid_syscall_func>
     ed8:	7f c0       	rjmp	.+254    	; 0xfd8 <invalid_syscall_func>
     eda:	7e c0       	rjmp	.+252    	; 0xfd8 <invalid_syscall_func>
     edc:	7d c0       	rjmp	.+250    	; 0xfd8 <invalid_syscall_func>
     ede:	7c c0       	rjmp	.+248    	; 0xfd8 <invalid_syscall_func>
     ee0:	7b c0       	rjmp	.+246    	; 0xfd8 <invalid_syscall_func>
     ee2:	7a c0       	rjmp	.+244    	; 0xfd8 <invalid_syscall_func>
     ee4:	79 c0       	rjmp	.+242    	; 0xfd8 <invalid_syscall_func>
     ee6:	78 c0       	rjmp	.+240    	; 0xfd8 <invalid_syscall_func>
     ee8:	77 c0       	rjmp	.+238    	; 0xfd8 <invalid_syscall_func>
     eea:	76 c0       	rjmp	.+236    	; 0xfd8 <invalid_syscall_func>
     eec:	75 c0       	rjmp	.+234    	; 0xfd8 <invalid_syscall_func>
     eee:	74 c0       	rjmp	.+232    	; 0xfd8 <invalid_syscall_func>
     ef0:	73 c0       	rjmp	.+230    	; 0xfd8 <invalid_syscall_func>
     ef2:	72 c0       	rjmp	.+228    	; 0xfd8 <invalid_syscall_func>
     ef4:	71 c0       	rjmp	.+226    	; 0xfd8 <invalid_syscall_func>
     ef6:	70 c0       	rjmp	.+224    	; 0xfd8 <invalid_syscall_func>
     ef8:	6f c0       	rjmp	.+222    	; 0xfd8 <invalid_syscall_func>
     efa:	6e c0       	rjmp	.+220    	; 0xfd8 <invalid_syscall_func>
     efc:	6d c0       	rjmp	.+218    	; 0xfd8 <invalid_syscall_func>
     efe:	6c c0       	rjmp	.+216    	; 0xfd8 <invalid_syscall_func>
     f00:	6b c0       	rjmp	.+214    	; 0xfd8 <invalid_syscall_func>
     f02:	6a c0       	rjmp	.+212    	; 0xfd8 <invalid_syscall_func>
     f04:	69 c0       	rjmp	.+210    	; 0xfd8 <invalid_syscall_func>
     f06:	68 c0       	rjmp	.+208    	; 0xfd8 <invalid_syscall_func>
     f08:	67 c0       	rjmp	.+206    	; 0xfd8 <invalid_syscall_func>
     f0a:	66 c0       	rjmp	.+204    	; 0xfd8 <invalid_syscall_func>
     f0c:	65 c0       	rjmp	.+202    	; 0xfd8 <invalid_syscall_func>
     f0e:	64 c0       	rjmp	.+200    	; 0xfd8 <invalid_syscall_func>
     f10:	63 c0       	rjmp	.+198    	; 0xfd8 <invalid_syscall_func>
     f12:	62 c0       	rjmp	.+196    	; 0xfd8 <invalid_syscall_func>
     f14:	61 c0       	rjmp	.+194    	; 0xfd8 <invalid_syscall_func>
     f16:	60 c0       	rjmp	.+192    	; 0xfd8 <invalid_syscall_func>
     f18:	5f c0       	rjmp	.+190    	; 0xfd8 <invalid_syscall_func>
     f1a:	5e c0       	rjmp	.+188    	; 0xfd8 <invalid_syscall_func>
     f1c:	5d c0       	rjmp	.+186    	; 0xfd8 <invalid_syscall_func>
     f1e:	5c c0       	rjmp	.+184    	; 0xfd8 <invalid_syscall_func>
     f20:	5b c0       	rjmp	.+182    	; 0xfd8 <invalid_syscall_func>
     f22:	5a c0       	rjmp	.+180    	; 0xfd8 <invalid_syscall_func>
     f24:	59 c0       	rjmp	.+178    	; 0xfd8 <invalid_syscall_func>
     f26:	58 c0       	rjmp	.+176    	; 0xfd8 <invalid_syscall_func>
     f28:	57 c0       	rjmp	.+174    	; 0xfd8 <invalid_syscall_func>
     f2a:	56 c0       	rjmp	.+172    	; 0xfd8 <invalid_syscall_func>
     f2c:	55 c0       	rjmp	.+170    	; 0xfd8 <invalid_syscall_func>
     f2e:	54 c0       	rjmp	.+168    	; 0xfd8 <invalid_syscall_func>
     f30:	53 c0       	rjmp	.+166    	; 0xfd8 <invalid_syscall_func>
     f32:	52 c0       	rjmp	.+164    	; 0xfd8 <invalid_syscall_func>
     f34:	51 c0       	rjmp	.+162    	; 0xfd8 <invalid_syscall_func>
     f36:	50 c0       	rjmp	.+160    	; 0xfd8 <invalid_syscall_func>
     f38:	4f c0       	rjmp	.+158    	; 0xfd8 <invalid_syscall_func>
     f3a:	4e c0       	rjmp	.+156    	; 0xfd8 <invalid_syscall_func>
     f3c:	4d c0       	rjmp	.+154    	; 0xfd8 <invalid_syscall_func>
     f3e:	4c c0       	rjmp	.+152    	; 0xfd8 <invalid_syscall_func>
     f40:	4b c0       	rjmp	.+150    	; 0xfd8 <invalid_syscall_func>
     f42:	4a c0       	rjmp	.+148    	; 0xfd8 <invalid_syscall_func>
     f44:	49 c0       	rjmp	.+146    	; 0xfd8 <invalid_syscall_func>
     f46:	48 c0       	rjmp	.+144    	; 0xfd8 <invalid_syscall_func>
     f48:	47 c0       	rjmp	.+142    	; 0xfd8 <invalid_syscall_func>

00000f4a <sys_debug_putc_func>:
     f4a:	00 93 f1 00 	sts	0x00F1, r16	; 0x8000f1 <__DATA_REGION_ORIGIN__+0x91>
     f4e:	d5 cd       	rjmp	.-1110   	; 0xafa <cluster_tail_17>

00000f50 <sys_debug_break_func>:
     f50:	98 95       	break
     f52:	d2 cd       	rjmp	.-1116   	; 0xaf8 <cluster_tail_17_delay_1>

00000f54 <sys_millis_func>:
     f54:	f8 94       	cli
     f56:	00 91 07 0a 	lds	r16, 0x0A07	; 0x800a07 <_end+0x907>
     f5a:	10 91 08 0a 	lds	r17, 0x0A08	; 0x800a08 <_end+0x908>
     f5e:	78 94       	sei
     f60:	da cd       	rjmp	.-1100   	; 0xb16 <cluster_tail_18>

00000f62 <sys_millis32_func>:
     f62:	f8 94       	cli
     f64:	00 91 07 0a 	lds	r16, 0x0A07	; 0x800a07 <_end+0x907>
     f68:	10 91 08 0a 	lds	r17, 0x0A08	; 0x800a08 <_end+0x908>
     f6c:	20 91 09 0a 	lds	r18, 0x0A09	; 0x800a09 <_end+0x909>
     f70:	30 91 0a 0a 	lds	r19, 0x0A0A	; 0x800a0a <_end+0x90a>
     f74:	78 94       	sei
     f76:	cf cd       	rjmp	.-1122   	; 0xb16 <cluster_tail_18>

00000f78 <jmpp_seek_and_dispatch_func>:
     f78:	07 c0       	rjmp	.+14     	; 0xf88 <seek_and_dispatch_func>

00000f7a <push_pc_seek_and_dispatch_func>:
     f7a:	52 1c       	adc	r5, r2
     f7c:	62 1c       	adc	r6, r2
     f7e:	6a 92       	st	-Y, r6
     f80:	5a 92       	st	-Y, r5
     f82:	4a 92       	st	-Y, r4
     f84:	2c 01       	movw	r4, r24
     f86:	6a 2e       	mov	r6, r26

00000f88 <seek_and_dispatch_func>:
     f88:	59 9a       	sbi	0x0b, 1	; 11
     f8a:	e3 e0       	ldi	r30, 0x03	; 3
     f8c:	59 98       	cbi	0x0b, 1	; 11
     f8e:	ee bd       	out	0x2e, r30	; 46
     f90:	a0 91 00 0a 	lds	r26, 0x0A00	; 0x800a00 <_end+0x900>
     f94:	a5 0d       	add	r26, r5
     f96:	b0 91 01 0a 	lds	r27, 0x0A01	; 0x800a01 <_end+0x901>
     f9a:	b6 1d       	adc	r27, r6
     f9c:	17 d0       	rcall	.+46     	; 0xfcc <interp_delay_10>
     f9e:	be bd       	out	0x2e, r27	; 46
     fa0:	0e d0       	rcall	.+28     	; 0xfbe <interp_delay_17>
     fa2:	ae bd       	out	0x2e, r26	; 46
     fa4:	0c d0       	rcall	.+24     	; 0xfbe <interp_delay_17>
     fa6:	4e bc       	out	0x2e, r4	; 46
     fa8:	0b d0       	rcall	.+22     	; 0xfc0 <interp_delay_16>
     faa:	2e bc       	out	0x2e, r2	; 46
     fac:	0a d0       	rcall	.+20     	; 0xfc2 <interp_delay_15>
     fae:	f8 94       	cli
     fb0:	2e bc       	out	0x2e, r2	; 46
     fb2:	8e b5       	in	r24, 0x2e	; 46
     fb4:	78 94       	sei
     fb6:	87 9d       	mul	r24, r7
     fb8:	f0 01       	movw	r30, r0
     fba:	ff 5f       	subi	r31, 0xFF	; 255
     fbc:	09 94       	ijmp

00000fbe <interp_delay_17>:
     fbe:	00 00       	nop

00000fc0 <interp_delay_16>:
     fc0:	00 00       	nop

00000fc2 <interp_delay_15>:
     fc2:	00 00       	nop

00000fc4 <interp_delay_14>:
     fc4:	00 00       	nop

00000fc6 <interp_delay_13>:
     fc6:	00 00       	nop

00000fc8 <interp_delay_12>:
     fc8:	00 00       	nop

00000fca <interp_delay_11>:
     fca:	00 00       	nop

00000fcc <interp_delay_10>:
     fcc:	00 00       	nop

00000fce <interp_delay_9>:
     fce:	00 c0       	rjmp	.+0      	; 0xfd0 <interp_delay_7>

00000fd0 <interp_delay_7>:
     fd0:	08 95       	ret

00000fd2 <unimplemented_instruction_func>:
     fd2:	ff cf       	rjmp	.-2      	; 0xfd2 <unimplemented_instruction_func>

00000fd4 <invalid_primary_instruction_func>:
     fd4:	ff cf       	rjmp	.-2      	; 0xfd4 <invalid_primary_instruction_func>

00000fd6 <invalid_secondary_instruction_func>:
     fd6:	ff cf       	rjmp	.-2      	; 0xfd6 <invalid_secondary_instruction_func>

00000fd8 <invalid_syscall_func>:
     fd8:	ff cf       	rjmp	.-2      	; 0xfd8 <invalid_syscall_func>

00000fda <cluster_a_tail>:
     fda:	00 00       	nop

00000fdc <cluster_a_tail_17_delay_2>:
     fdc:	01 c0       	rjmp	.+2      	; 0xfe0 <cluster_a_tail_17>

00000fde <cluster_a_start>:
     fde:	00 00       	nop

00000fe0 <cluster_a_tail_17>:
     fe0:	43 0c       	add	r4, r3
     fe2:	52 1c       	adc	r5, r2
     fe4:	62 1c       	adc	r6, r2
     fe6:	f8 94       	cli
     fe8:	2e bc       	out	0x2e, r2	; 46
     fea:	8e b5       	in	r24, 0x2e	; 46
     fec:	78 94       	sei
     fee:	87 9d       	mul	r24, r7
     ff0:	f0 01       	movw	r30, r0
     ff2:	ff 5f       	subi	r31, 0xFF	; 255
     ff4:	09 94       	ijmp

00000ff6 <cluster_a_tail_18_delay_2>:
     ff6:	02 c0       	rjmp	.+4      	; 0xffc <cluster_a_tail_18>

00000ff8 <flags_commit_a_18_delay_1>:
     ff8:	8e bb       	out	0x1e, r24	; 30

00000ffa <cluster_a_tail_18_delay_1>:
     ffa:	00 00       	nop

00000ffc <cluster_a_tail_18>:
     ffc:	43 0c       	add	r4, r3
     ffe:	8e b5       	in	r24, 0x2e	; 46
    1000:	2e bc       	out	0x2e, r2	; 46
    1002:	52 1c       	adc	r5, r2
    1004:	62 1c       	adc	r6, r2
    1006:	87 9d       	mul	r24, r7
    1008:	f0 01       	movw	r30, r0
    100a:	ff 5f       	subi	r31, 0xFF	; 255
    100c:	09 94       	ijmp

0000100e <cluster_a_end>:
    100e:	8e b5       	in	r24, 0x2e	; 46
    1010:	2e bc       	out	0x2e, r2	; 46
    1012:	43 0c       	add	r4, r3
    1014:	52 1c       	adc	r5, r2
    1016:	62 1c       	adc	r6, r2
    1018:	08 95       	ret

0000101a <f0_fetch_stack_u8_decode_r_to_xz>:
    101a:	a8 2f       	mov	r26, r24
    101c:	8e b5       	in	r24, 0x2e	; 46
    101e:	2e bc       	out	0x2e, r2	; 46
    1020:	43 0c       	add	r4, r3
    1022:	52 1c       	adc	r5, r2
    1024:	62 1c       	adc	r6, r2
    1026:	a7 70       	andi	r26, 0x07	; 7
    1028:	aa 0f       	add	r26, r26
    102a:	a8 5f       	subi	r26, 0xF8	; 248
    102c:	b2 2d       	mov	r27, r2
    102e:	fe 01       	movw	r30, r28
    1030:	e8 0f       	add	r30, r24
    1032:	f2 1d       	adc	r31, r2
    1034:	08 95       	ret

00001036 <f0_fetch_addr16>:
    1036:	8e b5       	in	r24, 0x2e	; 46
    1038:	2e bc       	out	0x2e, r2	; 46
    103a:	92 e0       	ldi	r25, 0x02	; 2
    103c:	49 0e       	add	r4, r25
    103e:	52 1c       	adc	r5, r2
    1040:	62 1c       	adc	r6, r2
    1042:	00 c0       	rjmp	.+0      	; 0x1044 <f0_fetch_addr16+0xe>
    1044:	00 c0       	rjmp	.+0      	; 0x1046 <f0_fetch_addr16+0x10>
    1046:	00 c0       	rjmp	.+0      	; 0x1048 <f0_fetch_addr16+0x12>
    1048:	00 c0       	rjmp	.+0      	; 0x104a <f0_fetch_addr16+0x14>
    104a:	00 c0       	rjmp	.+0      	; 0x104c <f0_fetch_addr16+0x16>
    104c:	00 c0       	rjmp	.+0      	; 0x104e <f0_fetch_addr16+0x18>
    104e:	9e b5       	in	r25, 0x2e	; 46
    1050:	2e bc       	out	0x2e, r2	; 46
    1052:	08 95       	ret

00001054 <f0_fetch_u16_end>:
    1054:	dc df       	rcall	.-72     	; 0x100e <cluster_a_end>
    1056:	88 2e       	mov	r8, r24
    1058:	99 24       	eor	r9, r9
    105a:	4e cd       	rjmp	.-1380   	; 0xaf8 <cluster_tail_17_delay_1>

0000105c <f0_ldi8_r1_body>:
    105c:	d8 df       	rcall	.-80     	; 0x100e <cluster_a_end>
    105e:	a8 2e       	mov	r10, r24
    1060:	bb 24       	eor	r11, r11
    1062:	4a cd       	rjmp	.-1388   	; 0xaf8 <cluster_tail_17_delay_1>

00001064 <f0_ldi8_r2_body>:
    1064:	d4 df       	rcall	.-88     	; 0x100e <cluster_a_end>
    1066:	c8 2e       	mov	r12, r24
    1068:	dd 24       	eor	r13, r13
    106a:	46 cd       	rjmp	.-1396   	; 0xaf8 <cluster_tail_17_delay_1>

0000106c <f0_ldi8_r3_body>:
    106c:	d0 df       	rcall	.-96     	; 0x100e <cluster_a_end>
    106e:	e8 2e       	mov	r14, r24
    1070:	ff 24       	eor	r15, r15
    1072:	42 cd       	rjmp	.-1404   	; 0xaf8 <cluster_tail_17_delay_1>

00001074 <f0_ldi16_r0_body>:
    1074:	e0 df       	rcall	.-64     	; 0x1036 <f0_fetch_addr16>
    1076:	88 2e       	mov	r8, r24
    1078:	99 2e       	mov	r9, r25
    107a:	74 cd       	rjmp	.-1304   	; 0xb64 <immediate_result_tail_reverse_delay_4>

0000107c <f0_ldi16_r1_body>:
    107c:	dc df       	rcall	.-72     	; 0x1036 <f0_fetch_addr16>
    107e:	a8 2e       	mov	r10, r24
    1080:	b9 2e       	mov	r11, r25
    1082:	70 cd       	rjmp	.-1312   	; 0xb64 <immediate_result_tail_reverse_delay_4>

00001084 <f0_ldi16_r2_body>:
    1084:	d8 df       	rcall	.-80     	; 0x1036 <f0_fetch_addr16>
    1086:	c8 2e       	mov	r12, r24
    1088:	d9 2e       	mov	r13, r25
    108a:	6c cd       	rjmp	.-1320   	; 0xb64 <immediate_result_tail_reverse_delay_4>

0000108c <f0_ldi16_r3_body>:
    108c:	d4 df       	rcall	.-88     	; 0x1036 <f0_fetch_addr16>
    108e:	e8 2e       	mov	r14, r24
    1090:	f9 2e       	mov	r15, r25
    1092:	68 cd       	rjmp	.-1328   	; 0xb64 <immediate_result_tail_reverse_delay_4>

00001094 <f0_addi_s8_r0_body>:
    1094:	bc df       	rcall	.-136    	; 0x100e <cluster_a_end>
    1096:	99 27       	eor	r25, r25
    1098:	87 fd       	sbrc	r24, 7
    109a:	90 95       	com	r25
    109c:	88 0e       	add	r8, r24
    109e:	99 1e       	adc	r9, r25
    10a0:	39 cd       	rjmp	.-1422   	; 0xb14 <cluster_tail_18_delay_1>

000010a2 <f0_addi_s8_r1_body>:
    10a2:	b5 df       	rcall	.-150    	; 0x100e <cluster_a_end>
    10a4:	99 27       	eor	r25, r25
    10a6:	87 fd       	sbrc	r24, 7
    10a8:	90 95       	com	r25
    10aa:	a8 0e       	add	r10, r24
    10ac:	b9 1e       	adc	r11, r25
    10ae:	32 cd       	rjmp	.-1436   	; 0xb14 <cluster_tail_18_delay_1>

000010b0 <f0_addi_s8_r2_body>:
    10b0:	ae df       	rcall	.-164    	; 0x100e <cluster_a_end>
    10b2:	99 27       	eor	r25, r25
    10b4:	87 fd       	sbrc	r24, 7
    10b6:	90 95       	com	r25
    10b8:	c8 0e       	add	r12, r24
    10ba:	d9 1e       	adc	r13, r25
    10bc:	2b cd       	rjmp	.-1450   	; 0xb14 <cluster_tail_18_delay_1>

000010be <f0_addi_s8_r3_body>:
    10be:	a7 df       	rcall	.-178    	; 0x100e <cluster_a_end>
    10c0:	99 27       	eor	r25, r25
    10c2:	87 fd       	sbrc	r24, 7
    10c4:	90 95       	com	r25
    10c6:	e8 0e       	add	r14, r24
    10c8:	f9 1e       	adc	r15, r25
    10ca:	24 cd       	rjmp	.-1464   	; 0xb14 <cluster_tail_18_delay_1>

000010cc <f0_cmpi_s8_r0_body>:
    10cc:	a0 df       	rcall	.-192    	; 0x100e <cluster_a_end>
    10ce:	99 27       	eor	r25, r25
    10d0:	87 fd       	sbrc	r24, 7
    10d2:	90 95       	com	r25
    10d4:	88 16       	cp	r8, r24
    10d6:	99 06       	cpc	r9, r25
    10d8:	8f b7       	in	r24, 0x3f	; 63
    10da:	03 cd       	rjmp	.-1530   	; 0xae2 <flags_commit_18>

000010dc <f0_cmpi_s8_r1_body>:
    10dc:	98 df       	rcall	.-208    	; 0x100e <cluster_a_end>
    10de:	99 27       	eor	r25, r25
    10e0:	87 fd       	sbrc	r24, 7
    10e2:	90 95       	com	r25
    10e4:	a8 16       	cp	r10, r24
    10e6:	b9 06       	cpc	r11, r25
    10e8:	8f b7       	in	r24, 0x3f	; 63
    10ea:	fb cc       	rjmp	.-1546   	; 0xae2 <flags_commit_18>

000010ec <f0_cmpi_s8_r2_body>:
    10ec:	90 df       	rcall	.-224    	; 0x100e <cluster_a_end>
    10ee:	99 27       	eor	r25, r25
    10f0:	87 fd       	sbrc	r24, 7
    10f2:	90 95       	com	r25
    10f4:	c8 16       	cp	r12, r24
    10f6:	d9 06       	cpc	r13, r25
    10f8:	8f b7       	in	r24, 0x3f	; 63
    10fa:	f3 cc       	rjmp	.-1562   	; 0xae2 <flags_commit_18>

000010fc <f0_cmpi_s8_r3_body>:
    10fc:	88 df       	rcall	.-240    	; 0x100e <cluster_a_end>
    10fe:	99 27       	eor	r25, r25
    1100:	87 fd       	sbrc	r24, 7
    1102:	90 95       	com	r25
    1104:	e8 16       	cp	r14, r24
    1106:	f9 06       	cpc	r15, r25
    1108:	8f b7       	in	r24, 0x3f	; 63
    110a:	eb cc       	rjmp	.-1578   	; 0xae2 <flags_commit_18>

0000110c <f0_leasp_r_body>:
    110c:	86 df       	rcall	.-244    	; 0x101a <f0_fetch_stack_u8_decode_r_to_xz>
    110e:	ed 93       	st	X+, r30
    1110:	fc 93       	st	X, r31
    1112:	01 cd       	rjmp	.-1534   	; 0xb16 <cluster_tail_18>

00001114 <f0_ldsp8u_r_body>:
    1114:	82 df       	rcall	.-252    	; 0x101a <f0_fetch_stack_u8_decode_r_to_xz>
    1116:	00 80       	ld	r0, Z
    1118:	0d 92       	st	X+, r0
    111a:	2c 92       	st	X, r2
    111c:	fc cc       	rjmp	.-1544   	; 0xb16 <cluster_tail_18>

0000111e <f0_ldsp8s_r_body>:
    111e:	7d df       	rcall	.-262    	; 0x101a <f0_fetch_stack_u8_decode_r_to_xz>
    1120:	00 80       	ld	r0, Z
    1122:	0d 92       	st	X+, r0
    1124:	00 0c       	add	r0, r0
    1126:	00 08       	sbc	r0, r0
    1128:	0c 92       	st	X, r0
    112a:	f5 cc       	rjmp	.-1558   	; 0xb16 <cluster_tail_18>

0000112c <f0_stsp8_r_body>:
    112c:	76 df       	rcall	.-276    	; 0x101a <f0_fetch_stack_u8_decode_r_to_xz>
    112e:	0c 90       	ld	r0, X
    1130:	00 82       	st	Z, r0
    1132:	f1 cc       	rjmp	.-1566   	; 0xb16 <cluster_tail_18>

00001134 <f0_ldsp16_r_body>:
    1134:	72 df       	rcall	.-284    	; 0x101a <f0_fetch_stack_u8_decode_r_to_xz>
    1136:	01 90       	ld	r0, Z+
    1138:	10 80       	ld	r1, Z
    113a:	0d 92       	st	X+, r0
    113c:	1c 92       	st	X, r1
    113e:	eb cc       	rjmp	.-1578   	; 0xb16 <cluster_tail_18>

00001140 <f0_stsp16_r_body>:
    1140:	6c df       	rcall	.-296    	; 0x101a <f0_fetch_stack_u8_decode_r_to_xz>
    1142:	0d 90       	ld	r0, X+
    1144:	1c 90       	ld	r1, X
    1146:	01 92       	st	Z+, r0
    1148:	10 82       	st	Z, r1
    114a:	e5 cc       	rjmp	.-1590   	; 0xb16 <cluster_tail_18>

0000114c <secondary_tables_before_cluster_b>:
    114c:	42 cf       	rjmp	.-380    	; 0xfd2 <unimplemented_instruction_func>

0000114e <f0_veneer_table>:
    114e:	82 cf       	rjmp	.-252    	; 0x1054 <f0_fetch_u16_end>
    1150:	85 cf       	rjmp	.-246    	; 0x105c <f0_ldi8_r1_body>
    1152:	88 cf       	rjmp	.-240    	; 0x1064 <f0_ldi8_r2_body>
    1154:	8b cf       	rjmp	.-234    	; 0x106c <f0_ldi8_r3_body>
    1156:	8e cf       	rjmp	.-228    	; 0x1074 <f0_ldi16_r0_body>
    1158:	91 cf       	rjmp	.-222    	; 0x107c <f0_ldi16_r1_body>
    115a:	94 cf       	rjmp	.-216    	; 0x1084 <f0_ldi16_r2_body>
    115c:	97 cf       	rjmp	.-210    	; 0x108c <f0_ldi16_r3_body>
    115e:	9a cf       	rjmp	.-204    	; 0x1094 <f0_addi_s8_r0_body>
    1160:	a0 cf       	rjmp	.-192    	; 0x10a2 <f0_addi_s8_r1_body>
    1162:	a6 cf       	rjmp	.-180    	; 0x10b0 <f0_addi_s8_r2_body>
    1164:	ac cf       	rjmp	.-168    	; 0x10be <f0_addi_s8_r3_body>
    1166:	b2 cf       	rjmp	.-156    	; 0x10cc <f0_cmpi_s8_r0_body>
    1168:	b9 cf       	rjmp	.-142    	; 0x10dc <f0_cmpi_s8_r1_body>
    116a:	c0 cf       	rjmp	.-128    	; 0x10ec <f0_cmpi_s8_r2_body>
    116c:	c7 cf       	rjmp	.-114    	; 0x10fc <f0_cmpi_s8_r3_body>
    116e:	ce cf       	rjmp	.-100    	; 0x110c <f0_leasp_r_body>
    1170:	cd cf       	rjmp	.-102    	; 0x110c <f0_leasp_r_body>
    1172:	cc cf       	rjmp	.-104    	; 0x110c <f0_leasp_r_body>
    1174:	cb cf       	rjmp	.-106    	; 0x110c <f0_leasp_r_body>
    1176:	ca cf       	rjmp	.-108    	; 0x110c <f0_leasp_r_body>
    1178:	c9 cf       	rjmp	.-110    	; 0x110c <f0_leasp_r_body>
    117a:	c8 cf       	rjmp	.-112    	; 0x110c <f0_leasp_r_body>
    117c:	c7 cf       	rjmp	.-114    	; 0x110c <f0_leasp_r_body>
    117e:	ca cf       	rjmp	.-108    	; 0x1114 <f0_ldsp8u_r_body>
    1180:	c9 cf       	rjmp	.-110    	; 0x1114 <f0_ldsp8u_r_body>
    1182:	c8 cf       	rjmp	.-112    	; 0x1114 <f0_ldsp8u_r_body>
    1184:	c7 cf       	rjmp	.-114    	; 0x1114 <f0_ldsp8u_r_body>
    1186:	c6 cf       	rjmp	.-116    	; 0x1114 <f0_ldsp8u_r_body>
    1188:	c5 cf       	rjmp	.-118    	; 0x1114 <f0_ldsp8u_r_body>
    118a:	c4 cf       	rjmp	.-120    	; 0x1114 <f0_ldsp8u_r_body>
    118c:	c3 cf       	rjmp	.-122    	; 0x1114 <f0_ldsp8u_r_body>
    118e:	c7 cf       	rjmp	.-114    	; 0x111e <f0_ldsp8s_r_body>
    1190:	c6 cf       	rjmp	.-116    	; 0x111e <f0_ldsp8s_r_body>
    1192:	c5 cf       	rjmp	.-118    	; 0x111e <f0_ldsp8s_r_body>
    1194:	c4 cf       	rjmp	.-120    	; 0x111e <f0_ldsp8s_r_body>
    1196:	c3 cf       	rjmp	.-122    	; 0x111e <f0_ldsp8s_r_body>
    1198:	c2 cf       	rjmp	.-124    	; 0x111e <f0_ldsp8s_r_body>
    119a:	c1 cf       	rjmp	.-126    	; 0x111e <f0_ldsp8s_r_body>
    119c:	c0 cf       	rjmp	.-128    	; 0x111e <f0_ldsp8s_r_body>
    119e:	c6 cf       	rjmp	.-116    	; 0x112c <f0_stsp8_r_body>
    11a0:	c5 cf       	rjmp	.-118    	; 0x112c <f0_stsp8_r_body>
    11a2:	c4 cf       	rjmp	.-120    	; 0x112c <f0_stsp8_r_body>
    11a4:	c3 cf       	rjmp	.-122    	; 0x112c <f0_stsp8_r_body>
    11a6:	c2 cf       	rjmp	.-124    	; 0x112c <f0_stsp8_r_body>
    11a8:	c1 cf       	rjmp	.-126    	; 0x112c <f0_stsp8_r_body>
    11aa:	c0 cf       	rjmp	.-128    	; 0x112c <f0_stsp8_r_body>
    11ac:	bf cf       	rjmp	.-130    	; 0x112c <f0_stsp8_r_body>
    11ae:	c2 cf       	rjmp	.-124    	; 0x1134 <f0_ldsp16_r_body>
    11b0:	c1 cf       	rjmp	.-126    	; 0x1134 <f0_ldsp16_r_body>
    11b2:	c0 cf       	rjmp	.-128    	; 0x1134 <f0_ldsp16_r_body>
    11b4:	bf cf       	rjmp	.-130    	; 0x1134 <f0_ldsp16_r_body>
    11b6:	be cf       	rjmp	.-132    	; 0x1134 <f0_ldsp16_r_body>
    11b8:	bd cf       	rjmp	.-134    	; 0x1134 <f0_ldsp16_r_body>
    11ba:	bc cf       	rjmp	.-136    	; 0x1134 <f0_ldsp16_r_body>
    11bc:	bb cf       	rjmp	.-138    	; 0x1134 <f0_ldsp16_r_body>
    11be:	c0 cf       	rjmp	.-128    	; 0x1140 <f0_stsp16_r_body>
    11c0:	bf cf       	rjmp	.-130    	; 0x1140 <f0_stsp16_r_body>
    11c2:	be cf       	rjmp	.-132    	; 0x1140 <f0_stsp16_r_body>
    11c4:	bd cf       	rjmp	.-134    	; 0x1140 <f0_stsp16_r_body>
    11c6:	bc cf       	rjmp	.-136    	; 0x1140 <f0_stsp16_r_body>
    11c8:	bb cf       	rjmp	.-138    	; 0x1140 <f0_stsp16_r_body>
    11ca:	ba cf       	rjmp	.-140    	; 0x1140 <f0_stsp16_r_body>
    11cc:	b9 cf       	rjmp	.-142    	; 0x1140 <f0_stsp16_r_body>
    11ce:	be cf       	rjmp	.-132    	; 0x114c <secondary_tables_before_cluster_b>
    11d0:	bd cf       	rjmp	.-134    	; 0x114c <secondary_tables_before_cluster_b>
    11d2:	bc cf       	rjmp	.-136    	; 0x114c <secondary_tables_before_cluster_b>
    11d4:	bb cf       	rjmp	.-138    	; 0x114c <secondary_tables_before_cluster_b>
    11d6:	ba cf       	rjmp	.-140    	; 0x114c <secondary_tables_before_cluster_b>
    11d8:	b9 cf       	rjmp	.-142    	; 0x114c <secondary_tables_before_cluster_b>
    11da:	b8 cf       	rjmp	.-144    	; 0x114c <secondary_tables_before_cluster_b>
    11dc:	b7 cf       	rjmp	.-146    	; 0x114c <secondary_tables_before_cluster_b>
    11de:	b6 cf       	rjmp	.-148    	; 0x114c <secondary_tables_before_cluster_b>
    11e0:	b5 cf       	rjmp	.-150    	; 0x114c <secondary_tables_before_cluster_b>
    11e2:	b4 cf       	rjmp	.-152    	; 0x114c <secondary_tables_before_cluster_b>
    11e4:	b3 cf       	rjmp	.-154    	; 0x114c <secondary_tables_before_cluster_b>
    11e6:	b2 cf       	rjmp	.-156    	; 0x114c <secondary_tables_before_cluster_b>
    11e8:	b1 cf       	rjmp	.-158    	; 0x114c <secondary_tables_before_cluster_b>
    11ea:	b0 cf       	rjmp	.-160    	; 0x114c <secondary_tables_before_cluster_b>
    11ec:	af cf       	rjmp	.-162    	; 0x114c <secondary_tables_before_cluster_b>
    11ee:	ae cf       	rjmp	.-164    	; 0x114c <secondary_tables_before_cluster_b>
    11f0:	ad cf       	rjmp	.-166    	; 0x114c <secondary_tables_before_cluster_b>
    11f2:	ac cf       	rjmp	.-168    	; 0x114c <secondary_tables_before_cluster_b>
    11f4:	ab cf       	rjmp	.-170    	; 0x114c <secondary_tables_before_cluster_b>
    11f6:	aa cf       	rjmp	.-172    	; 0x114c <secondary_tables_before_cluster_b>
    11f8:	a9 cf       	rjmp	.-174    	; 0x114c <secondary_tables_before_cluster_b>
    11fa:	a8 cf       	rjmp	.-176    	; 0x114c <secondary_tables_before_cluster_b>
    11fc:	a7 cf       	rjmp	.-178    	; 0x114c <secondary_tables_before_cluster_b>
    11fe:	a6 cf       	rjmp	.-180    	; 0x114c <secondary_tables_before_cluster_b>
    1200:	a5 cf       	rjmp	.-182    	; 0x114c <secondary_tables_before_cluster_b>
    1202:	a4 cf       	rjmp	.-184    	; 0x114c <secondary_tables_before_cluster_b>
    1204:	a3 cf       	rjmp	.-186    	; 0x114c <secondary_tables_before_cluster_b>
    1206:	a2 cf       	rjmp	.-188    	; 0x114c <secondary_tables_before_cluster_b>
    1208:	a1 cf       	rjmp	.-190    	; 0x114c <secondary_tables_before_cluster_b>
    120a:	a0 cf       	rjmp	.-192    	; 0x114c <secondary_tables_before_cluster_b>
    120c:	9f cf       	rjmp	.-194    	; 0x114c <secondary_tables_before_cluster_b>
    120e:	9e cf       	rjmp	.-196    	; 0x114c <secondary_tables_before_cluster_b>
    1210:	9d cf       	rjmp	.-198    	; 0x114c <secondary_tables_before_cluster_b>
    1212:	9c cf       	rjmp	.-200    	; 0x114c <secondary_tables_before_cluster_b>
    1214:	9b cf       	rjmp	.-202    	; 0x114c <secondary_tables_before_cluster_b>
    1216:	9a cf       	rjmp	.-204    	; 0x114c <secondary_tables_before_cluster_b>
    1218:	99 cf       	rjmp	.-206    	; 0x114c <secondary_tables_before_cluster_b>
    121a:	98 cf       	rjmp	.-208    	; 0x114c <secondary_tables_before_cluster_b>
    121c:	97 cf       	rjmp	.-210    	; 0x114c <secondary_tables_before_cluster_b>
    121e:	96 cf       	rjmp	.-212    	; 0x114c <secondary_tables_before_cluster_b>
    1220:	95 cf       	rjmp	.-214    	; 0x114c <secondary_tables_before_cluster_b>
    1222:	94 cf       	rjmp	.-216    	; 0x114c <secondary_tables_before_cluster_b>
    1224:	93 cf       	rjmp	.-218    	; 0x114c <secondary_tables_before_cluster_b>
    1226:	92 cf       	rjmp	.-220    	; 0x114c <secondary_tables_before_cluster_b>
    1228:	91 cf       	rjmp	.-222    	; 0x114c <secondary_tables_before_cluster_b>

0000122a <f0_veneer_table_end>:
    122a:	44 01       	movw	r8, r8
    122c:	d8 ce       	rjmp	.-592    	; 0xfde <cluster_a_start>
    122e:	45 01       	movw	r8, r10
    1230:	d6 ce       	rjmp	.-596    	; 0xfde <cluster_a_start>
    1232:	46 01       	movw	r8, r12
    1234:	d4 ce       	rjmp	.-600    	; 0xfde <cluster_a_start>
    1236:	47 01       	movw	r8, r14
    1238:	d2 ce       	rjmp	.-604    	; 0xfde <cluster_a_start>
    123a:	48 01       	movw	r8, r16
    123c:	d0 ce       	rjmp	.-608    	; 0xfde <cluster_a_start>
    123e:	49 01       	movw	r8, r18
    1240:	ce ce       	rjmp	.-612    	; 0xfde <cluster_a_start>
    1242:	4a 01       	movw	r8, r20
    1244:	cc ce       	rjmp	.-616    	; 0xfde <cluster_a_start>
    1246:	4b 01       	movw	r8, r22
    1248:	ca ce       	rjmp	.-620    	; 0xfde <cluster_a_start>
    124a:	54 01       	movw	r10, r8
    124c:	c8 ce       	rjmp	.-624    	; 0xfde <cluster_a_start>
    124e:	55 01       	movw	r10, r10
    1250:	c6 ce       	rjmp	.-628    	; 0xfde <cluster_a_start>
    1252:	56 01       	movw	r10, r12
    1254:	c4 ce       	rjmp	.-632    	; 0xfde <cluster_a_start>
    1256:	57 01       	movw	r10, r14
    1258:	c2 ce       	rjmp	.-636    	; 0xfde <cluster_a_start>
    125a:	58 01       	movw	r10, r16
    125c:	c0 ce       	rjmp	.-640    	; 0xfde <cluster_a_start>
    125e:	59 01       	movw	r10, r18
    1260:	be ce       	rjmp	.-644    	; 0xfde <cluster_a_start>
    1262:	5a 01       	movw	r10, r20
    1264:	bc ce       	rjmp	.-648    	; 0xfde <cluster_a_start>
    1266:	5b 01       	movw	r10, r22
    1268:	ba ce       	rjmp	.-652    	; 0xfde <cluster_a_start>
    126a:	64 01       	movw	r12, r8
    126c:	b8 ce       	rjmp	.-656    	; 0xfde <cluster_a_start>
    126e:	65 01       	movw	r12, r10
    1270:	b6 ce       	rjmp	.-660    	; 0xfde <cluster_a_start>
    1272:	66 01       	movw	r12, r12
    1274:	b4 ce       	rjmp	.-664    	; 0xfde <cluster_a_start>
    1276:	67 01       	movw	r12, r14
    1278:	b2 ce       	rjmp	.-668    	; 0xfde <cluster_a_start>
    127a:	68 01       	movw	r12, r16
    127c:	b0 ce       	rjmp	.-672    	; 0xfde <cluster_a_start>
    127e:	69 01       	movw	r12, r18
    1280:	ae ce       	rjmp	.-676    	; 0xfde <cluster_a_start>
    1282:	6a 01       	movw	r12, r20
    1284:	ac ce       	rjmp	.-680    	; 0xfde <cluster_a_start>
    1286:	6b 01       	movw	r12, r22
    1288:	aa ce       	rjmp	.-684    	; 0xfde <cluster_a_start>
    128a:	74 01       	movw	r14, r8
    128c:	a8 ce       	rjmp	.-688    	; 0xfde <cluster_a_start>
    128e:	75 01       	movw	r14, r10
    1290:	a6 ce       	rjmp	.-692    	; 0xfde <cluster_a_start>
    1292:	76 01       	movw	r14, r12
    1294:	a4 ce       	rjmp	.-696    	; 0xfde <cluster_a_start>
    1296:	77 01       	movw	r14, r14
    1298:	a2 ce       	rjmp	.-700    	; 0xfde <cluster_a_start>
    129a:	78 01       	movw	r14, r16
    129c:	a0 ce       	rjmp	.-704    	; 0xfde <cluster_a_start>
    129e:	79 01       	movw	r14, r18
    12a0:	9e ce       	rjmp	.-708    	; 0xfde <cluster_a_start>
    12a2:	7a 01       	movw	r14, r20
    12a4:	9c ce       	rjmp	.-712    	; 0xfde <cluster_a_start>
    12a6:	7b 01       	movw	r14, r22
    12a8:	9a ce       	rjmp	.-716    	; 0xfde <cluster_a_start>
    12aa:	84 01       	movw	r16, r8
    12ac:	98 ce       	rjmp	.-720    	; 0xfde <cluster_a_start>
    12ae:	85 01       	movw	r16, r10
    12b0:	96 ce       	rjmp	.-724    	; 0xfde <cluster_a_start>
    12b2:	86 01       	movw	r16, r12
    12b4:	94 ce       	rjmp	.-728    	; 0xfde <cluster_a_start>
    12b6:	87 01       	movw	r16, r14
    12b8:	92 ce       	rjmp	.-732    	; 0xfde <cluster_a_start>
    12ba:	94 01       	movw	r18, r8
    12bc:	90 ce       	rjmp	.-736    	; 0xfde <cluster_a_start>
    12be:	95 01       	movw	r18, r10
    12c0:	8e ce       	rjmp	.-740    	; 0xfde <cluster_a_start>
    12c2:	96 01       	movw	r18, r12
    12c4:	8c ce       	rjmp	.-744    	; 0xfde <cluster_a_start>
    12c6:	97 01       	movw	r18, r14
    12c8:	8a ce       	rjmp	.-748    	; 0xfde <cluster_a_start>
    12ca:	a4 01       	movw	r20, r8
    12cc:	88 ce       	rjmp	.-752    	; 0xfde <cluster_a_start>
    12ce:	a5 01       	movw	r20, r10
    12d0:	86 ce       	rjmp	.-756    	; 0xfde <cluster_a_start>
    12d2:	a6 01       	movw	r20, r12
    12d4:	84 ce       	rjmp	.-760    	; 0xfde <cluster_a_start>
    12d6:	a7 01       	movw	r20, r14
    12d8:	82 ce       	rjmp	.-764    	; 0xfde <cluster_a_start>
    12da:	b4 01       	movw	r22, r8
    12dc:	80 ce       	rjmp	.-768    	; 0xfde <cluster_a_start>
    12de:	b5 01       	movw	r22, r10
    12e0:	7e ce       	rjmp	.-772    	; 0xfde <cluster_a_start>
    12e2:	b6 01       	movw	r22, r12
    12e4:	7c ce       	rjmp	.-776    	; 0xfde <cluster_a_start>
    12e6:	b7 01       	movw	r22, r14
    12e8:	7a ce       	rjmp	.-780    	; 0xfde <cluster_a_start>
    12ea:	08 83       	st	Y, r16
    12ec:	79 ce       	rjmp	.-782    	; 0xfe0 <cluster_a_tail_17>
    12ee:	28 83       	st	Y, r18
    12f0:	77 ce       	rjmp	.-786    	; 0xfe0 <cluster_a_tail_17>
    12f2:	48 83       	st	Y, r20
    12f4:	75 ce       	rjmp	.-790    	; 0xfe0 <cluster_a_tail_17>
    12f6:	68 83       	st	Y, r22
    12f8:	73 ce       	rjmp	.-794    	; 0xfe0 <cluster_a_tail_17>
    12fa:	09 83       	std	Y+1, r16	; 0x01
    12fc:	71 ce       	rjmp	.-798    	; 0xfe0 <cluster_a_tail_17>
    12fe:	29 83       	std	Y+1, r18	; 0x01
    1300:	6f ce       	rjmp	.-802    	; 0xfe0 <cluster_a_tail_17>
    1302:	49 83       	std	Y+1, r20	; 0x01
    1304:	6d ce       	rjmp	.-806    	; 0xfe0 <cluster_a_tail_17>
    1306:	69 83       	std	Y+1, r22	; 0x01
    1308:	6b ce       	rjmp	.-810    	; 0xfe0 <cluster_a_tail_17>
    130a:	0a 83       	std	Y+2, r16	; 0x02
    130c:	69 ce       	rjmp	.-814    	; 0xfe0 <cluster_a_tail_17>
    130e:	2a 83       	std	Y+2, r18	; 0x02
    1310:	67 ce       	rjmp	.-818    	; 0xfe0 <cluster_a_tail_17>
    1312:	4a 83       	std	Y+2, r20	; 0x02
    1314:	65 ce       	rjmp	.-822    	; 0xfe0 <cluster_a_tail_17>
    1316:	6a 83       	std	Y+2, r22	; 0x02
    1318:	63 ce       	rjmp	.-826    	; 0xfe0 <cluster_a_tail_17>
    131a:	0b 83       	std	Y+3, r16	; 0x03
    131c:	61 ce       	rjmp	.-830    	; 0xfe0 <cluster_a_tail_17>
    131e:	2b 83       	std	Y+3, r18	; 0x03
    1320:	5f ce       	rjmp	.-834    	; 0xfe0 <cluster_a_tail_17>
    1322:	4b 83       	std	Y+3, r20	; 0x03
    1324:	5d ce       	rjmp	.-838    	; 0xfe0 <cluster_a_tail_17>
    1326:	6b 83       	std	Y+3, r22	; 0x03
    1328:	5b ce       	rjmp	.-842    	; 0xfe0 <cluster_a_tail_17>
    132a:	0c 83       	std	Y+4, r16	; 0x04
    132c:	59 ce       	rjmp	.-846    	; 0xfe0 <cluster_a_tail_17>
    132e:	2c 83       	std	Y+4, r18	; 0x04
    1330:	57 ce       	rjmp	.-850    	; 0xfe0 <cluster_a_tail_17>
    1332:	4c 83       	std	Y+4, r20	; 0x04
    1334:	55 ce       	rjmp	.-854    	; 0xfe0 <cluster_a_tail_17>
    1336:	6c 83       	std	Y+4, r22	; 0x04
    1338:	53 ce       	rjmp	.-858    	; 0xfe0 <cluster_a_tail_17>
    133a:	0d 83       	std	Y+5, r16	; 0x05
    133c:	51 ce       	rjmp	.-862    	; 0xfe0 <cluster_a_tail_17>
    133e:	2d 83       	std	Y+5, r18	; 0x05
    1340:	4f ce       	rjmp	.-866    	; 0xfe0 <cluster_a_tail_17>
    1342:	4d 83       	std	Y+5, r20	; 0x05
    1344:	4d ce       	rjmp	.-870    	; 0xfe0 <cluster_a_tail_17>
    1346:	6d 83       	std	Y+5, r22	; 0x05
    1348:	4b ce       	rjmp	.-874    	; 0xfe0 <cluster_a_tail_17>
    134a:	0e 83       	std	Y+6, r16	; 0x06
    134c:	49 ce       	rjmp	.-878    	; 0xfe0 <cluster_a_tail_17>
    134e:	2e 83       	std	Y+6, r18	; 0x06
    1350:	47 ce       	rjmp	.-882    	; 0xfe0 <cluster_a_tail_17>
    1352:	4e 83       	std	Y+6, r20	; 0x06
    1354:	45 ce       	rjmp	.-886    	; 0xfe0 <cluster_a_tail_17>
    1356:	6e 83       	std	Y+6, r22	; 0x06
    1358:	43 ce       	rjmp	.-890    	; 0xfe0 <cluster_a_tail_17>
    135a:	0f 83       	std	Y+7, r16	; 0x07
    135c:	41 ce       	rjmp	.-894    	; 0xfe0 <cluster_a_tail_17>
    135e:	2f 83       	std	Y+7, r18	; 0x07
    1360:	3f ce       	rjmp	.-898    	; 0xfe0 <cluster_a_tail_17>
    1362:	4f 83       	std	Y+7, r20	; 0x07
    1364:	3d ce       	rjmp	.-902    	; 0xfe0 <cluster_a_tail_17>
    1366:	6f 83       	std	Y+7, r22	; 0x07
    1368:	3b ce       	rjmp	.-906    	; 0xfe0 <cluster_a_tail_17>
    136a:	08 87       	std	Y+8, r16	; 0x08
    136c:	39 ce       	rjmp	.-910    	; 0xfe0 <cluster_a_tail_17>
    136e:	28 87       	std	Y+8, r18	; 0x08
    1370:	37 ce       	rjmp	.-914    	; 0xfe0 <cluster_a_tail_17>
    1372:	48 87       	std	Y+8, r20	; 0x08
    1374:	35 ce       	rjmp	.-918    	; 0xfe0 <cluster_a_tail_17>
    1376:	68 87       	std	Y+8, r22	; 0x08
    1378:	33 ce       	rjmp	.-922    	; 0xfe0 <cluster_a_tail_17>
    137a:	09 87       	std	Y+9, r16	; 0x09
    137c:	31 ce       	rjmp	.-926    	; 0xfe0 <cluster_a_tail_17>
    137e:	29 87       	std	Y+9, r18	; 0x09
    1380:	2f ce       	rjmp	.-930    	; 0xfe0 <cluster_a_tail_17>
    1382:	49 87       	std	Y+9, r20	; 0x09
    1384:	2d ce       	rjmp	.-934    	; 0xfe0 <cluster_a_tail_17>
    1386:	69 87       	std	Y+9, r22	; 0x09
    1388:	2b ce       	rjmp	.-938    	; 0xfe0 <cluster_a_tail_17>
    138a:	0a 87       	std	Y+10, r16	; 0x0a
    138c:	29 ce       	rjmp	.-942    	; 0xfe0 <cluster_a_tail_17>
    138e:	2a 87       	std	Y+10, r18	; 0x0a
    1390:	27 ce       	rjmp	.-946    	; 0xfe0 <cluster_a_tail_17>
    1392:	4a 87       	std	Y+10, r20	; 0x0a
    1394:	25 ce       	rjmp	.-950    	; 0xfe0 <cluster_a_tail_17>
    1396:	6a 87       	std	Y+10, r22	; 0x0a
    1398:	23 ce       	rjmp	.-954    	; 0xfe0 <cluster_a_tail_17>
    139a:	0b 87       	std	Y+11, r16	; 0x0b
    139c:	21 ce       	rjmp	.-958    	; 0xfe0 <cluster_a_tail_17>
    139e:	2b 87       	std	Y+11, r18	; 0x0b
    13a0:	1f ce       	rjmp	.-962    	; 0xfe0 <cluster_a_tail_17>
    13a2:	4b 87       	std	Y+11, r20	; 0x0b
    13a4:	1d ce       	rjmp	.-966    	; 0xfe0 <cluster_a_tail_17>
    13a6:	6b 87       	std	Y+11, r22	; 0x0b
    13a8:	1b ce       	rjmp	.-970    	; 0xfe0 <cluster_a_tail_17>
    13aa:	0c 87       	std	Y+12, r16	; 0x0c
    13ac:	19 ce       	rjmp	.-974    	; 0xfe0 <cluster_a_tail_17>
    13ae:	2c 87       	std	Y+12, r18	; 0x0c
    13b0:	17 ce       	rjmp	.-978    	; 0xfe0 <cluster_a_tail_17>
    13b2:	4c 87       	std	Y+12, r20	; 0x0c
    13b4:	15 ce       	rjmp	.-982    	; 0xfe0 <cluster_a_tail_17>
    13b6:	6c 87       	std	Y+12, r22	; 0x0c
    13b8:	13 ce       	rjmp	.-986    	; 0xfe0 <cluster_a_tail_17>
    13ba:	0d 87       	std	Y+13, r16	; 0x0d
    13bc:	11 ce       	rjmp	.-990    	; 0xfe0 <cluster_a_tail_17>
    13be:	2d 87       	std	Y+13, r18	; 0x0d
    13c0:	0f ce       	rjmp	.-994    	; 0xfe0 <cluster_a_tail_17>
    13c2:	4d 87       	std	Y+13, r20	; 0x0d
    13c4:	0d ce       	rjmp	.-998    	; 0xfe0 <cluster_a_tail_17>
    13c6:	6d 87       	std	Y+13, r22	; 0x0d
    13c8:	0b ce       	rjmp	.-1002   	; 0xfe0 <cluster_a_tail_17>
    13ca:	0e 87       	std	Y+14, r16	; 0x0e
    13cc:	09 ce       	rjmp	.-1006   	; 0xfe0 <cluster_a_tail_17>
    13ce:	2e 87       	std	Y+14, r18	; 0x0e
    13d0:	07 ce       	rjmp	.-1010   	; 0xfe0 <cluster_a_tail_17>
    13d2:	4e 87       	std	Y+14, r20	; 0x0e
    13d4:	05 ce       	rjmp	.-1014   	; 0xfe0 <cluster_a_tail_17>
    13d6:	6e 87       	std	Y+14, r22	; 0x0e
    13d8:	03 ce       	rjmp	.-1018   	; 0xfe0 <cluster_a_tail_17>
    13da:	0f 87       	std	Y+15, r16	; 0x0f
    13dc:	01 ce       	rjmp	.-1022   	; 0xfe0 <cluster_a_tail_17>
    13de:	2f 87       	std	Y+15, r18	; 0x0f
    13e0:	ff cd       	rjmp	.-1026   	; 0xfe0 <cluster_a_tail_17>
    13e2:	4f 87       	std	Y+15, r20	; 0x0f
    13e4:	fd cd       	rjmp	.-1030   	; 0xfe0 <cluster_a_tail_17>
    13e6:	6f 87       	std	Y+15, r22	; 0x0f
    13e8:	fb cd       	rjmp	.-1034   	; 0xfe0 <cluster_a_tail_17>
    13ea:	99 24       	eor	r9, r9
    13ec:	f8 cd       	rjmp	.-1040   	; 0xfde <cluster_a_start>
    13ee:	bb 24       	eor	r11, r11
    13f0:	f6 cd       	rjmp	.-1044   	; 0xfde <cluster_a_start>
    13f2:	dd 24       	eor	r13, r13
    13f4:	f4 cd       	rjmp	.-1048   	; 0xfde <cluster_a_start>
    13f6:	ff 24       	eor	r15, r15
    13f8:	f2 cd       	rjmp	.-1052   	; 0xfde <cluster_a_start>
    13fa:	11 27       	eor	r17, r17
    13fc:	f0 cd       	rjmp	.-1056   	; 0xfde <cluster_a_start>
    13fe:	33 27       	eor	r19, r19
    1400:	ee cd       	rjmp	.-1060   	; 0xfde <cluster_a_start>
    1402:	55 27       	eor	r21, r21
    1404:	ec cd       	rjmp	.-1064   	; 0xfde <cluster_a_start>
    1406:	77 27       	eor	r23, r23
    1408:	ea cd       	rjmp	.-1068   	; 0xfde <cluster_a_start>
    140a:	82 94       	swap	r8
    140c:	e8 cd       	rjmp	.-1072   	; 0xfde <cluster_a_start>
    140e:	a2 94       	swap	r10
    1410:	e6 cd       	rjmp	.-1076   	; 0xfde <cluster_a_start>
    1412:	c2 94       	swap	r12
    1414:	e4 cd       	rjmp	.-1080   	; 0xfde <cluster_a_start>
    1416:	e2 94       	swap	r14
    1418:	e2 cd       	rjmp	.-1084   	; 0xfde <cluster_a_start>
    141a:	02 95       	swap	r16
    141c:	e0 cd       	rjmp	.-1088   	; 0xfde <cluster_a_start>
    141e:	22 95       	swap	r18
    1420:	de cd       	rjmp	.-1092   	; 0xfde <cluster_a_start>
    1422:	42 95       	swap	r20
    1424:	dc cd       	rjmp	.-1096   	; 0xfde <cluster_a_start>
    1426:	62 95       	swap	r22
    1428:	da cd       	rjmp	.-1100   	; 0xfde <cluster_a_start>
    142a:	4e 01       	movw	r8, r28
    142c:	d8 cd       	rjmp	.-1104   	; 0xfde <cluster_a_start>
    142e:	5e 01       	movw	r10, r28
    1430:	d6 cd       	rjmp	.-1108   	; 0xfde <cluster_a_start>
    1432:	6e 01       	movw	r12, r28
    1434:	d4 cd       	rjmp	.-1112   	; 0xfde <cluster_a_start>
    1436:	7e 01       	movw	r14, r28
    1438:	d2 cd       	rjmp	.-1116   	; 0xfde <cluster_a_start>
    143a:	8e 01       	movw	r16, r28
    143c:	d0 cd       	rjmp	.-1120   	; 0xfde <cluster_a_start>
    143e:	9e 01       	movw	r18, r28
    1440:	ce cd       	rjmp	.-1124   	; 0xfde <cluster_a_start>
    1442:	ae 01       	movw	r20, r28
    1444:	cc cd       	rjmp	.-1128   	; 0xfde <cluster_a_start>
    1446:	be 01       	movw	r22, r28
    1448:	ca cd       	rjmp	.-1132   	; 0xfde <cluster_a_start>
    144a:	e4 01       	movw	r28, r8
    144c:	c8 cd       	rjmp	.-1136   	; 0xfde <cluster_a_start>
    144e:	e5 01       	movw	r28, r10
    1450:	c6 cd       	rjmp	.-1140   	; 0xfde <cluster_a_start>
    1452:	e6 01       	movw	r28, r12
    1454:	c4 cd       	rjmp	.-1144   	; 0xfde <cluster_a_start>
    1456:	e7 01       	movw	r28, r14
    1458:	c2 cd       	rjmp	.-1148   	; 0xfde <cluster_a_start>
    145a:	e8 01       	movw	r28, r16
    145c:	c0 cd       	rjmp	.-1152   	; 0xfde <cluster_a_start>
    145e:	e9 01       	movw	r28, r18
    1460:	be cd       	rjmp	.-1156   	; 0xfde <cluster_a_start>
    1462:	ea 01       	movw	r28, r20
    1464:	bc cd       	rjmp	.-1160   	; 0xfde <cluster_a_start>
    1466:	eb 01       	movw	r28, r22
    1468:	ba cd       	rjmp	.-1164   	; 0xfde <cluster_a_start>

0000146a <f1_table_end>:
    146a:	88 0c       	add	r8, r8
    146c:	99 1c       	adc	r9, r9
    146e:	b8 cd       	rjmp	.-1168   	; 0xfe0 <cluster_a_tail_17>
    1470:	8a 0c       	add	r8, r10
    1472:	9b 1c       	adc	r9, r11
    1474:	b5 cd       	rjmp	.-1174   	; 0xfe0 <cluster_a_tail_17>
    1476:	8c 0c       	add	r8, r12
    1478:	9d 1c       	adc	r9, r13
    147a:	b2 cd       	rjmp	.-1180   	; 0xfe0 <cluster_a_tail_17>
    147c:	8e 0c       	add	r8, r14
    147e:	9f 1c       	adc	r9, r15
    1480:	af cd       	rjmp	.-1186   	; 0xfe0 <cluster_a_tail_17>
    1482:	80 0e       	add	r8, r16
    1484:	91 1e       	adc	r9, r17
    1486:	ac cd       	rjmp	.-1192   	; 0xfe0 <cluster_a_tail_17>
    1488:	82 0e       	add	r8, r18
    148a:	93 1e       	adc	r9, r19
    148c:	a9 cd       	rjmp	.-1198   	; 0xfe0 <cluster_a_tail_17>
    148e:	84 0e       	add	r8, r20
    1490:	95 1e       	adc	r9, r21
    1492:	a6 cd       	rjmp	.-1204   	; 0xfe0 <cluster_a_tail_17>
    1494:	86 0e       	add	r8, r22
    1496:	97 1e       	adc	r9, r23
    1498:	a3 cd       	rjmp	.-1210   	; 0xfe0 <cluster_a_tail_17>
    149a:	a8 0c       	add	r10, r8
    149c:	b9 1c       	adc	r11, r9
    149e:	a0 cd       	rjmp	.-1216   	; 0xfe0 <cluster_a_tail_17>
    14a0:	aa 0c       	add	r10, r10
    14a2:	bb 1c       	adc	r11, r11
    14a4:	9d cd       	rjmp	.-1222   	; 0xfe0 <cluster_a_tail_17>
    14a6:	ac 0c       	add	r10, r12
    14a8:	bd 1c       	adc	r11, r13
    14aa:	9a cd       	rjmp	.-1228   	; 0xfe0 <cluster_a_tail_17>
    14ac:	ae 0c       	add	r10, r14
    14ae:	bf 1c       	adc	r11, r15
    14b0:	97 cd       	rjmp	.-1234   	; 0xfe0 <cluster_a_tail_17>
    14b2:	a0 0e       	add	r10, r16
    14b4:	b1 1e       	adc	r11, r17
    14b6:	94 cd       	rjmp	.-1240   	; 0xfe0 <cluster_a_tail_17>
    14b8:	a2 0e       	add	r10, r18
    14ba:	b3 1e       	adc	r11, r19
    14bc:	91 cd       	rjmp	.-1246   	; 0xfe0 <cluster_a_tail_17>
    14be:	a4 0e       	add	r10, r20
    14c0:	b5 1e       	adc	r11, r21
    14c2:	8e cd       	rjmp	.-1252   	; 0xfe0 <cluster_a_tail_17>
    14c4:	a6 0e       	add	r10, r22
    14c6:	b7 1e       	adc	r11, r23
    14c8:	8b cd       	rjmp	.-1258   	; 0xfe0 <cluster_a_tail_17>
    14ca:	c8 0c       	add	r12, r8
    14cc:	d9 1c       	adc	r13, r9
    14ce:	88 cd       	rjmp	.-1264   	; 0xfe0 <cluster_a_tail_17>
    14d0:	ca 0c       	add	r12, r10
    14d2:	db 1c       	adc	r13, r11
    14d4:	85 cd       	rjmp	.-1270   	; 0xfe0 <cluster_a_tail_17>
    14d6:	cc 0c       	add	r12, r12
    14d8:	dd 1c       	adc	r13, r13
    14da:	82 cd       	rjmp	.-1276   	; 0xfe0 <cluster_a_tail_17>
    14dc:	ce 0c       	add	r12, r14
    14de:	df 1c       	adc	r13, r15
    14e0:	7f cd       	rjmp	.-1282   	; 0xfe0 <cluster_a_tail_17>
    14e2:	c0 0e       	add	r12, r16
    14e4:	d1 1e       	adc	r13, r17
    14e6:	7c cd       	rjmp	.-1288   	; 0xfe0 <cluster_a_tail_17>
    14e8:	c2 0e       	add	r12, r18
    14ea:	d3 1e       	adc	r13, r19
    14ec:	79 cd       	rjmp	.-1294   	; 0xfe0 <cluster_a_tail_17>
    14ee:	c4 0e       	add	r12, r20
    14f0:	d5 1e       	adc	r13, r21
    14f2:	76 cd       	rjmp	.-1300   	; 0xfe0 <cluster_a_tail_17>
    14f4:	c6 0e       	add	r12, r22
    14f6:	d7 1e       	adc	r13, r23
    14f8:	73 cd       	rjmp	.-1306   	; 0xfe0 <cluster_a_tail_17>
    14fa:	e8 0c       	add	r14, r8
    14fc:	f9 1c       	adc	r15, r9
    14fe:	70 cd       	rjmp	.-1312   	; 0xfe0 <cluster_a_tail_17>
    1500:	ea 0c       	add	r14, r10
    1502:	fb 1c       	adc	r15, r11
    1504:	6d cd       	rjmp	.-1318   	; 0xfe0 <cluster_a_tail_17>
    1506:	ec 0c       	add	r14, r12
    1508:	fd 1c       	adc	r15, r13
    150a:	6a cd       	rjmp	.-1324   	; 0xfe0 <cluster_a_tail_17>
    150c:	ee 0c       	add	r14, r14
    150e:	ff 1c       	adc	r15, r15
    1510:	67 cd       	rjmp	.-1330   	; 0xfe0 <cluster_a_tail_17>
    1512:	e0 0e       	add	r14, r16
    1514:	f1 1e       	adc	r15, r17
    1516:	64 cd       	rjmp	.-1336   	; 0xfe0 <cluster_a_tail_17>
    1518:	e2 0e       	add	r14, r18
    151a:	f3 1e       	adc	r15, r19
    151c:	61 cd       	rjmp	.-1342   	; 0xfe0 <cluster_a_tail_17>
    151e:	e4 0e       	add	r14, r20
    1520:	f5 1e       	adc	r15, r21
    1522:	5e cd       	rjmp	.-1348   	; 0xfe0 <cluster_a_tail_17>
    1524:	e6 0e       	add	r14, r22
    1526:	f7 1e       	adc	r15, r23
    1528:	5b cd       	rjmp	.-1354   	; 0xfe0 <cluster_a_tail_17>
    152a:	08 0d       	add	r16, r8
    152c:	19 1d       	adc	r17, r9
    152e:	58 cd       	rjmp	.-1360   	; 0xfe0 <cluster_a_tail_17>
    1530:	0a 0d       	add	r16, r10
    1532:	1b 1d       	adc	r17, r11
    1534:	55 cd       	rjmp	.-1366   	; 0xfe0 <cluster_a_tail_17>
    1536:	0c 0d       	add	r16, r12
    1538:	1d 1d       	adc	r17, r13
    153a:	52 cd       	rjmp	.-1372   	; 0xfe0 <cluster_a_tail_17>
    153c:	0e 0d       	add	r16, r14
    153e:	1f 1d       	adc	r17, r15
    1540:	4f cd       	rjmp	.-1378   	; 0xfe0 <cluster_a_tail_17>
    1542:	28 0d       	add	r18, r8
    1544:	39 1d       	adc	r19, r9
    1546:	4c cd       	rjmp	.-1384   	; 0xfe0 <cluster_a_tail_17>
    1548:	2a 0d       	add	r18, r10
    154a:	3b 1d       	adc	r19, r11
    154c:	49 cd       	rjmp	.-1390   	; 0xfe0 <cluster_a_tail_17>
    154e:	2c 0d       	add	r18, r12
    1550:	3d 1d       	adc	r19, r13
    1552:	46 cd       	rjmp	.-1396   	; 0xfe0 <cluster_a_tail_17>
    1554:	2e 0d       	add	r18, r14
    1556:	3f 1d       	adc	r19, r15
    1558:	43 cd       	rjmp	.-1402   	; 0xfe0 <cluster_a_tail_17>
    155a:	48 0d       	add	r20, r8
    155c:	59 1d       	adc	r21, r9
    155e:	40 cd       	rjmp	.-1408   	; 0xfe0 <cluster_a_tail_17>
    1560:	4a 0d       	add	r20, r10
    1562:	5b 1d       	adc	r21, r11
    1564:	3d cd       	rjmp	.-1414   	; 0xfe0 <cluster_a_tail_17>
    1566:	4c 0d       	add	r20, r12
    1568:	5d 1d       	adc	r21, r13
    156a:	3a cd       	rjmp	.-1420   	; 0xfe0 <cluster_a_tail_17>
    156c:	4e 0d       	add	r20, r14
    156e:	5f 1d       	adc	r21, r15
    1570:	37 cd       	rjmp	.-1426   	; 0xfe0 <cluster_a_tail_17>
    1572:	68 0d       	add	r22, r8
    1574:	79 1d       	adc	r23, r9
    1576:	34 cd       	rjmp	.-1432   	; 0xfe0 <cluster_a_tail_17>
    1578:	6a 0d       	add	r22, r10
    157a:	7b 1d       	adc	r23, r11
    157c:	31 cd       	rjmp	.-1438   	; 0xfe0 <cluster_a_tail_17>
    157e:	6c 0d       	add	r22, r12
    1580:	7d 1d       	adc	r23, r13
    1582:	2e cd       	rjmp	.-1444   	; 0xfe0 <cluster_a_tail_17>
    1584:	6e 0d       	add	r22, r14
    1586:	7f 1d       	adc	r23, r15
    1588:	2b cd       	rjmp	.-1450   	; 0xfe0 <cluster_a_tail_17>
    158a:	88 18       	sub	r8, r8
    158c:	99 08       	sbc	r9, r9
    158e:	28 cd       	rjmp	.-1456   	; 0xfe0 <cluster_a_tail_17>
    1590:	8a 18       	sub	r8, r10
    1592:	9b 08       	sbc	r9, r11
    1594:	25 cd       	rjmp	.-1462   	; 0xfe0 <cluster_a_tail_17>
    1596:	8c 18       	sub	r8, r12
    1598:	9d 08       	sbc	r9, r13
    159a:	22 cd       	rjmp	.-1468   	; 0xfe0 <cluster_a_tail_17>
    159c:	8e 18       	sub	r8, r14
    159e:	9f 08       	sbc	r9, r15
    15a0:	1f cd       	rjmp	.-1474   	; 0xfe0 <cluster_a_tail_17>
    15a2:	80 1a       	sub	r8, r16
    15a4:	91 0a       	sbc	r9, r17
    15a6:	1c cd       	rjmp	.-1480   	; 0xfe0 <cluster_a_tail_17>
    15a8:	82 1a       	sub	r8, r18
    15aa:	93 0a       	sbc	r9, r19
    15ac:	19 cd       	rjmp	.-1486   	; 0xfe0 <cluster_a_tail_17>
    15ae:	84 1a       	sub	r8, r20
    15b0:	95 0a       	sbc	r9, r21
    15b2:	16 cd       	rjmp	.-1492   	; 0xfe0 <cluster_a_tail_17>
    15b4:	86 1a       	sub	r8, r22
    15b6:	97 0a       	sbc	r9, r23
    15b8:	13 cd       	rjmp	.-1498   	; 0xfe0 <cluster_a_tail_17>
    15ba:	a8 18       	sub	r10, r8
    15bc:	b9 08       	sbc	r11, r9
    15be:	10 cd       	rjmp	.-1504   	; 0xfe0 <cluster_a_tail_17>
    15c0:	aa 18       	sub	r10, r10
    15c2:	bb 08       	sbc	r11, r11
    15c4:	0d cd       	rjmp	.-1510   	; 0xfe0 <cluster_a_tail_17>
    15c6:	ac 18       	sub	r10, r12
    15c8:	bd 08       	sbc	r11, r13
    15ca:	0a cd       	rjmp	.-1516   	; 0xfe0 <cluster_a_tail_17>
    15cc:	ae 18       	sub	r10, r14
    15ce:	bf 08       	sbc	r11, r15
    15d0:	07 cd       	rjmp	.-1522   	; 0xfe0 <cluster_a_tail_17>
    15d2:	a0 1a       	sub	r10, r16
    15d4:	b1 0a       	sbc	r11, r17
    15d6:	04 cd       	rjmp	.-1528   	; 0xfe0 <cluster_a_tail_17>
    15d8:	a2 1a       	sub	r10, r18
    15da:	b3 0a       	sbc	r11, r19
    15dc:	01 cd       	rjmp	.-1534   	; 0xfe0 <cluster_a_tail_17>
    15de:	a4 1a       	sub	r10, r20
    15e0:	b5 0a       	sbc	r11, r21
    15e2:	fe cc       	rjmp	.-1540   	; 0xfe0 <cluster_a_tail_17>
    15e4:	a6 1a       	sub	r10, r22
    15e6:	b7 0a       	sbc	r11, r23
    15e8:	fb cc       	rjmp	.-1546   	; 0xfe0 <cluster_a_tail_17>
    15ea:	c8 18       	sub	r12, r8
    15ec:	d9 08       	sbc	r13, r9
    15ee:	f8 cc       	rjmp	.-1552   	; 0xfe0 <cluster_a_tail_17>
    15f0:	ca 18       	sub	r12, r10
    15f2:	db 08       	sbc	r13, r11
    15f4:	f5 cc       	rjmp	.-1558   	; 0xfe0 <cluster_a_tail_17>
    15f6:	cc 18       	sub	r12, r12
    15f8:	dd 08       	sbc	r13, r13
    15fa:	f2 cc       	rjmp	.-1564   	; 0xfe0 <cluster_a_tail_17>
    15fc:	ce 18       	sub	r12, r14
    15fe:	df 08       	sbc	r13, r15
    1600:	ef cc       	rjmp	.-1570   	; 0xfe0 <cluster_a_tail_17>
    1602:	c0 1a       	sub	r12, r16
    1604:	d1 0a       	sbc	r13, r17
    1606:	ec cc       	rjmp	.-1576   	; 0xfe0 <cluster_a_tail_17>
    1608:	c2 1a       	sub	r12, r18
    160a:	d3 0a       	sbc	r13, r19
    160c:	e9 cc       	rjmp	.-1582   	; 0xfe0 <cluster_a_tail_17>
    160e:	c4 1a       	sub	r12, r20
    1610:	d5 0a       	sbc	r13, r21
    1612:	e6 cc       	rjmp	.-1588   	; 0xfe0 <cluster_a_tail_17>
    1614:	c6 1a       	sub	r12, r22
    1616:	d7 0a       	sbc	r13, r23
    1618:	e3 cc       	rjmp	.-1594   	; 0xfe0 <cluster_a_tail_17>
    161a:	e8 18       	sub	r14, r8
    161c:	f9 08       	sbc	r15, r9
    161e:	e0 cc       	rjmp	.-1600   	; 0xfe0 <cluster_a_tail_17>
    1620:	ea 18       	sub	r14, r10
    1622:	fb 08       	sbc	r15, r11
    1624:	dd cc       	rjmp	.-1606   	; 0xfe0 <cluster_a_tail_17>
    1626:	ec 18       	sub	r14, r12
    1628:	fd 08       	sbc	r15, r13
    162a:	da cc       	rjmp	.-1612   	; 0xfe0 <cluster_a_tail_17>
    162c:	ee 18       	sub	r14, r14
    162e:	ff 08       	sbc	r15, r15
    1630:	d7 cc       	rjmp	.-1618   	; 0xfe0 <cluster_a_tail_17>
    1632:	e0 1a       	sub	r14, r16
    1634:	f1 0a       	sbc	r15, r17
    1636:	d4 cc       	rjmp	.-1624   	; 0xfe0 <cluster_a_tail_17>
    1638:	e2 1a       	sub	r14, r18
    163a:	f3 0a       	sbc	r15, r19
    163c:	d1 cc       	rjmp	.-1630   	; 0xfe0 <cluster_a_tail_17>
    163e:	e4 1a       	sub	r14, r20
    1640:	f5 0a       	sbc	r15, r21
    1642:	ce cc       	rjmp	.-1636   	; 0xfe0 <cluster_a_tail_17>
    1644:	e6 1a       	sub	r14, r22
    1646:	f7 0a       	sbc	r15, r23
    1648:	cb cc       	rjmp	.-1642   	; 0xfe0 <cluster_a_tail_17>
    164a:	08 19       	sub	r16, r8
    164c:	19 09       	sbc	r17, r9
    164e:	c8 cc       	rjmp	.-1648   	; 0xfe0 <cluster_a_tail_17>
    1650:	0a 19       	sub	r16, r10
    1652:	1b 09       	sbc	r17, r11
    1654:	c5 cc       	rjmp	.-1654   	; 0xfe0 <cluster_a_tail_17>
    1656:	0c 19       	sub	r16, r12
    1658:	1d 09       	sbc	r17, r13
    165a:	c2 cc       	rjmp	.-1660   	; 0xfe0 <cluster_a_tail_17>
    165c:	0e 19       	sub	r16, r14
    165e:	1f 09       	sbc	r17, r15
    1660:	bf cc       	rjmp	.-1666   	; 0xfe0 <cluster_a_tail_17>
    1662:	28 19       	sub	r18, r8
    1664:	39 09       	sbc	r19, r9
    1666:	bc cc       	rjmp	.-1672   	; 0xfe0 <cluster_a_tail_17>
    1668:	2a 19       	sub	r18, r10
    166a:	3b 09       	sbc	r19, r11
    166c:	b9 cc       	rjmp	.-1678   	; 0xfe0 <cluster_a_tail_17>
    166e:	2c 19       	sub	r18, r12
    1670:	3d 09       	sbc	r19, r13
    1672:	b6 cc       	rjmp	.-1684   	; 0xfe0 <cluster_a_tail_17>
    1674:	2e 19       	sub	r18, r14
    1676:	3f 09       	sbc	r19, r15
    1678:	b3 cc       	rjmp	.-1690   	; 0xfe0 <cluster_a_tail_17>
    167a:	48 19       	sub	r20, r8
    167c:	59 09       	sbc	r21, r9
    167e:	b0 cc       	rjmp	.-1696   	; 0xfe0 <cluster_a_tail_17>
    1680:	4a 19       	sub	r20, r10
    1682:	5b 09       	sbc	r21, r11
    1684:	ad cc       	rjmp	.-1702   	; 0xfe0 <cluster_a_tail_17>
    1686:	4c 19       	sub	r20, r12
    1688:	5d 09       	sbc	r21, r13
    168a:	aa cc       	rjmp	.-1708   	; 0xfe0 <cluster_a_tail_17>
    168c:	4e 19       	sub	r20, r14
    168e:	5f 09       	sbc	r21, r15
    1690:	a7 cc       	rjmp	.-1714   	; 0xfe0 <cluster_a_tail_17>
    1692:	68 19       	sub	r22, r8
    1694:	79 09       	sbc	r23, r9
    1696:	a4 cc       	rjmp	.-1720   	; 0xfe0 <cluster_a_tail_17>
    1698:	6a 19       	sub	r22, r10
    169a:	7b 09       	sbc	r23, r11
    169c:	a1 cc       	rjmp	.-1726   	; 0xfe0 <cluster_a_tail_17>
    169e:	6c 19       	sub	r22, r12
    16a0:	7d 09       	sbc	r23, r13
    16a2:	9e cc       	rjmp	.-1732   	; 0xfe0 <cluster_a_tail_17>
    16a4:	6e 19       	sub	r22, r14
    16a6:	7f 09       	sbc	r23, r15
    16a8:	9b cc       	rjmp	.-1738   	; 0xfe0 <cluster_a_tail_17>

000016aa <f2_table_end>:
    16aa:	d8 01       	movw	r26, r16
    16ac:	8c 92       	st	X, r8
    16ae:	a5 cc       	rjmp	.-1718   	; 0xffa <cluster_a_tail_18_delay_1>
    16b0:	d8 01       	movw	r26, r16
    16b2:	ac 92       	st	X, r10
    16b4:	a2 cc       	rjmp	.-1724   	; 0xffa <cluster_a_tail_18_delay_1>
    16b6:	d8 01       	movw	r26, r16
    16b8:	cc 92       	st	X, r12
    16ba:	9f cc       	rjmp	.-1730   	; 0xffa <cluster_a_tail_18_delay_1>
    16bc:	d8 01       	movw	r26, r16
    16be:	ec 92       	st	X, r14
    16c0:	9c cc       	rjmp	.-1736   	; 0xffa <cluster_a_tail_18_delay_1>
    16c2:	d9 01       	movw	r26, r18
    16c4:	8c 92       	st	X, r8
    16c6:	99 cc       	rjmp	.-1742   	; 0xffa <cluster_a_tail_18_delay_1>
    16c8:	d9 01       	movw	r26, r18
    16ca:	ac 92       	st	X, r10
    16cc:	96 cc       	rjmp	.-1748   	; 0xffa <cluster_a_tail_18_delay_1>
    16ce:	d9 01       	movw	r26, r18
    16d0:	cc 92       	st	X, r12
    16d2:	93 cc       	rjmp	.-1754   	; 0xffa <cluster_a_tail_18_delay_1>
    16d4:	d9 01       	movw	r26, r18
    16d6:	ec 92       	st	X, r14
    16d8:	90 cc       	rjmp	.-1760   	; 0xffa <cluster_a_tail_18_delay_1>
    16da:	da 01       	movw	r26, r20
    16dc:	8c 92       	st	X, r8
    16de:	8d cc       	rjmp	.-1766   	; 0xffa <cluster_a_tail_18_delay_1>
    16e0:	da 01       	movw	r26, r20
    16e2:	ac 92       	st	X, r10
    16e4:	8a cc       	rjmp	.-1772   	; 0xffa <cluster_a_tail_18_delay_1>
    16e6:	da 01       	movw	r26, r20
    16e8:	cc 92       	st	X, r12
    16ea:	87 cc       	rjmp	.-1778   	; 0xffa <cluster_a_tail_18_delay_1>
    16ec:	da 01       	movw	r26, r20
    16ee:	ec 92       	st	X, r14
    16f0:	84 cc       	rjmp	.-1784   	; 0xffa <cluster_a_tail_18_delay_1>
    16f2:	db 01       	movw	r26, r22
    16f4:	8c 92       	st	X, r8
    16f6:	81 cc       	rjmp	.-1790   	; 0xffa <cluster_a_tail_18_delay_1>
    16f8:	db 01       	movw	r26, r22
    16fa:	ac 92       	st	X, r10
    16fc:	7e cc       	rjmp	.-1796   	; 0xffa <cluster_a_tail_18_delay_1>
    16fe:	db 01       	movw	r26, r22
    1700:	cc 92       	st	X, r12
    1702:	7b cc       	rjmp	.-1802   	; 0xffa <cluster_a_tail_18_delay_1>
    1704:	db 01       	movw	r26, r22
    1706:	ec 92       	st	X, r14
    1708:	78 cc       	rjmp	.-1808   	; 0xffa <cluster_a_tail_18_delay_1>
    170a:	00 9f       	mul	r16, r16
    170c:	80 01       	movw	r16, r0
    170e:	75 cc       	rjmp	.-1814   	; 0xffa <cluster_a_tail_18_delay_1>
    1710:	02 9f       	mul	r16, r18
    1712:	80 01       	movw	r16, r0
    1714:	72 cc       	rjmp	.-1820   	; 0xffa <cluster_a_tail_18_delay_1>
    1716:	04 9f       	mul	r16, r20
    1718:	80 01       	movw	r16, r0
    171a:	6f cc       	rjmp	.-1826   	; 0xffa <cluster_a_tail_18_delay_1>
    171c:	06 9f       	mul	r16, r22
    171e:	80 01       	movw	r16, r0
    1720:	6c cc       	rjmp	.-1832   	; 0xffa <cluster_a_tail_18_delay_1>
    1722:	20 9f       	mul	r18, r16
    1724:	90 01       	movw	r18, r0
    1726:	69 cc       	rjmp	.-1838   	; 0xffa <cluster_a_tail_18_delay_1>
    1728:	22 9f       	mul	r18, r18
    172a:	90 01       	movw	r18, r0
    172c:	66 cc       	rjmp	.-1844   	; 0xffa <cluster_a_tail_18_delay_1>
    172e:	24 9f       	mul	r18, r20
    1730:	90 01       	movw	r18, r0
    1732:	63 cc       	rjmp	.-1850   	; 0xffa <cluster_a_tail_18_delay_1>
    1734:	26 9f       	mul	r18, r22
    1736:	90 01       	movw	r18, r0
    1738:	60 cc       	rjmp	.-1856   	; 0xffa <cluster_a_tail_18_delay_1>
    173a:	40 9f       	mul	r20, r16
    173c:	a0 01       	movw	r20, r0
    173e:	5d cc       	rjmp	.-1862   	; 0xffa <cluster_a_tail_18_delay_1>
    1740:	42 9f       	mul	r20, r18
    1742:	a0 01       	movw	r20, r0
    1744:	5a cc       	rjmp	.-1868   	; 0xffa <cluster_a_tail_18_delay_1>
    1746:	44 9f       	mul	r20, r20
    1748:	a0 01       	movw	r20, r0
    174a:	57 cc       	rjmp	.-1874   	; 0xffa <cluster_a_tail_18_delay_1>
    174c:	46 9f       	mul	r20, r22
    174e:	a0 01       	movw	r20, r0
    1750:	54 cc       	rjmp	.-1880   	; 0xffa <cluster_a_tail_18_delay_1>
    1752:	60 9f       	mul	r22, r16
    1754:	b0 01       	movw	r22, r0
    1756:	51 cc       	rjmp	.-1886   	; 0xffa <cluster_a_tail_18_delay_1>
    1758:	62 9f       	mul	r22, r18
    175a:	b0 01       	movw	r22, r0
    175c:	4e cc       	rjmp	.-1892   	; 0xffa <cluster_a_tail_18_delay_1>
    175e:	64 9f       	mul	r22, r20
    1760:	b0 01       	movw	r22, r0
    1762:	4b cc       	rjmp	.-1898   	; 0xffa <cluster_a_tail_18_delay_1>
    1764:	66 9f       	mul	r22, r22
    1766:	b0 01       	movw	r22, r0
    1768:	48 cc       	rjmp	.-1904   	; 0xffa <cluster_a_tail_18_delay_1>
    176a:	00 02       	muls	r16, r16
    176c:	80 01       	movw	r16, r0
    176e:	45 cc       	rjmp	.-1910   	; 0xffa <cluster_a_tail_18_delay_1>
    1770:	02 02       	muls	r16, r18
    1772:	80 01       	movw	r16, r0
    1774:	42 cc       	rjmp	.-1916   	; 0xffa <cluster_a_tail_18_delay_1>
    1776:	04 02       	muls	r16, r20
    1778:	80 01       	movw	r16, r0
    177a:	3f cc       	rjmp	.-1922   	; 0xffa <cluster_a_tail_18_delay_1>
    177c:	06 02       	muls	r16, r22
    177e:	80 01       	movw	r16, r0
    1780:	3c cc       	rjmp	.-1928   	; 0xffa <cluster_a_tail_18_delay_1>
    1782:	20 02       	muls	r18, r16
    1784:	90 01       	movw	r18, r0
    1786:	39 cc       	rjmp	.-1934   	; 0xffa <cluster_a_tail_18_delay_1>
    1788:	22 02       	muls	r18, r18
    178a:	90 01       	movw	r18, r0
    178c:	36 cc       	rjmp	.-1940   	; 0xffa <cluster_a_tail_18_delay_1>
    178e:	24 02       	muls	r18, r20
    1790:	90 01       	movw	r18, r0
    1792:	33 cc       	rjmp	.-1946   	; 0xffa <cluster_a_tail_18_delay_1>
    1794:	26 02       	muls	r18, r22
    1796:	90 01       	movw	r18, r0
    1798:	30 cc       	rjmp	.-1952   	; 0xffa <cluster_a_tail_18_delay_1>
    179a:	40 02       	muls	r20, r16
    179c:	a0 01       	movw	r20, r0
    179e:	2d cc       	rjmp	.-1958   	; 0xffa <cluster_a_tail_18_delay_1>
    17a0:	42 02       	muls	r20, r18
    17a2:	a0 01       	movw	r20, r0
    17a4:	2a cc       	rjmp	.-1964   	; 0xffa <cluster_a_tail_18_delay_1>
    17a6:	44 02       	muls	r20, r20
    17a8:	a0 01       	movw	r20, r0
    17aa:	27 cc       	rjmp	.-1970   	; 0xffa <cluster_a_tail_18_delay_1>
    17ac:	46 02       	muls	r20, r22
    17ae:	a0 01       	movw	r20, r0
    17b0:	24 cc       	rjmp	.-1976   	; 0xffa <cluster_a_tail_18_delay_1>
    17b2:	60 02       	muls	r22, r16
    17b4:	b0 01       	movw	r22, r0
    17b6:	21 cc       	rjmp	.-1982   	; 0xffa <cluster_a_tail_18_delay_1>
    17b8:	62 02       	muls	r22, r18
    17ba:	b0 01       	movw	r22, r0
    17bc:	1e cc       	rjmp	.-1988   	; 0xffa <cluster_a_tail_18_delay_1>
    17be:	64 02       	muls	r22, r20
    17c0:	b0 01       	movw	r22, r0
    17c2:	1b cc       	rjmp	.-1994   	; 0xffa <cluster_a_tail_18_delay_1>
    17c4:	66 02       	muls	r22, r22
    17c6:	b0 01       	movw	r22, r0
    17c8:	18 cc       	rjmp	.-2000   	; 0xffa <cluster_a_tail_18_delay_1>
    17ca:	00 03       	mulsu	r16, r16
    17cc:	80 01       	movw	r16, r0
    17ce:	15 cc       	rjmp	.-2006   	; 0xffa <cluster_a_tail_18_delay_1>
    17d0:	02 03       	mulsu	r16, r18
    17d2:	80 01       	movw	r16, r0
    17d4:	12 cc       	rjmp	.-2012   	; 0xffa <cluster_a_tail_18_delay_1>
    17d6:	04 03       	mulsu	r16, r20
    17d8:	80 01       	movw	r16, r0
    17da:	0f cc       	rjmp	.-2018   	; 0xffa <cluster_a_tail_18_delay_1>
    17dc:	06 03       	mulsu	r16, r22
    17de:	80 01       	movw	r16, r0
    17e0:	0c cc       	rjmp	.-2024   	; 0xffa <cluster_a_tail_18_delay_1>
    17e2:	20 03       	mulsu	r18, r16
    17e4:	90 01       	movw	r18, r0
    17e6:	09 cc       	rjmp	.-2030   	; 0xffa <cluster_a_tail_18_delay_1>
    17e8:	22 03       	mulsu	r18, r18
    17ea:	90 01       	movw	r18, r0
    17ec:	06 cc       	rjmp	.-2036   	; 0xffa <cluster_a_tail_18_delay_1>
    17ee:	24 03       	mulsu	r18, r20
    17f0:	90 01       	movw	r18, r0
    17f2:	03 cc       	rjmp	.-2042   	; 0xffa <cluster_a_tail_18_delay_1>
    17f4:	26 03       	mulsu	r18, r22
    17f6:	90 01       	movw	r18, r0
    17f8:	00 cc       	rjmp	.-2048   	; 0xffa <cluster_a_tail_18_delay_1>
    17fa:	40 03       	mulsu	r20, r16
    17fc:	a0 01       	movw	r20, r0
    17fe:	fd cb       	rjmp	.-2054   	; 0xffa <cluster_a_tail_18_delay_1>
    1800:	42 03       	mulsu	r20, r18
    1802:	a0 01       	movw	r20, r0
    1804:	fa cb       	rjmp	.-2060   	; 0xffa <cluster_a_tail_18_delay_1>
    1806:	44 03       	mulsu	r20, r20
    1808:	a0 01       	movw	r20, r0
    180a:	f7 cb       	rjmp	.-2066   	; 0xffa <cluster_a_tail_18_delay_1>
    180c:	46 03       	mulsu	r20, r22
    180e:	a0 01       	movw	r20, r0
    1810:	f4 cb       	rjmp	.-2072   	; 0xffa <cluster_a_tail_18_delay_1>
    1812:	60 03       	mulsu	r22, r16
    1814:	b0 01       	movw	r22, r0
    1816:	f1 cb       	rjmp	.-2078   	; 0xffa <cluster_a_tail_18_delay_1>
    1818:	62 03       	mulsu	r22, r18
    181a:	b0 01       	movw	r22, r0
    181c:	ee cb       	rjmp	.-2084   	; 0xffa <cluster_a_tail_18_delay_1>
    181e:	64 03       	mulsu	r22, r20
    1820:	b0 01       	movw	r22, r0
    1822:	eb cb       	rjmp	.-2090   	; 0xffa <cluster_a_tail_18_delay_1>
    1824:	66 03       	mulsu	r22, r22
    1826:	b0 01       	movw	r22, r0
    1828:	e8 cb       	rjmp	.-2096   	; 0xffa <cluster_a_tail_18_delay_1>
    182a:	08 81       	ld	r16, Y
    182c:	11 27       	eor	r17, r17
    182e:	e5 cb       	rjmp	.-2102   	; 0xffa <cluster_a_tail_18_delay_1>
    1830:	28 81       	ld	r18, Y
    1832:	33 27       	eor	r19, r19
    1834:	e2 cb       	rjmp	.-2108   	; 0xffa <cluster_a_tail_18_delay_1>
    1836:	48 81       	ld	r20, Y
    1838:	55 27       	eor	r21, r21
    183a:	df cb       	rjmp	.-2114   	; 0xffa <cluster_a_tail_18_delay_1>
    183c:	68 81       	ld	r22, Y
    183e:	77 27       	eor	r23, r23
    1840:	dc cb       	rjmp	.-2120   	; 0xffa <cluster_a_tail_18_delay_1>
    1842:	09 81       	ldd	r16, Y+1	; 0x01
    1844:	11 27       	eor	r17, r17
    1846:	d9 cb       	rjmp	.-2126   	; 0xffa <cluster_a_tail_18_delay_1>
    1848:	29 81       	ldd	r18, Y+1	; 0x01
    184a:	33 27       	eor	r19, r19
    184c:	d6 cb       	rjmp	.-2132   	; 0xffa <cluster_a_tail_18_delay_1>
    184e:	49 81       	ldd	r20, Y+1	; 0x01
    1850:	55 27       	eor	r21, r21
    1852:	d3 cb       	rjmp	.-2138   	; 0xffa <cluster_a_tail_18_delay_1>
    1854:	69 81       	ldd	r22, Y+1	; 0x01
    1856:	77 27       	eor	r23, r23
    1858:	d0 cb       	rjmp	.-2144   	; 0xffa <cluster_a_tail_18_delay_1>
    185a:	0a 81       	ldd	r16, Y+2	; 0x02
    185c:	11 27       	eor	r17, r17
    185e:	cd cb       	rjmp	.-2150   	; 0xffa <cluster_a_tail_18_delay_1>
    1860:	2a 81       	ldd	r18, Y+2	; 0x02
    1862:	33 27       	eor	r19, r19
    1864:	ca cb       	rjmp	.-2156   	; 0xffa <cluster_a_tail_18_delay_1>
    1866:	4a 81       	ldd	r20, Y+2	; 0x02
    1868:	55 27       	eor	r21, r21
    186a:	c7 cb       	rjmp	.-2162   	; 0xffa <cluster_a_tail_18_delay_1>
    186c:	6a 81       	ldd	r22, Y+2	; 0x02
    186e:	77 27       	eor	r23, r23
    1870:	c4 cb       	rjmp	.-2168   	; 0xffa <cluster_a_tail_18_delay_1>
    1872:	0b 81       	ldd	r16, Y+3	; 0x03
    1874:	11 27       	eor	r17, r17
    1876:	c1 cb       	rjmp	.-2174   	; 0xffa <cluster_a_tail_18_delay_1>
    1878:	2b 81       	ldd	r18, Y+3	; 0x03
    187a:	33 27       	eor	r19, r19
    187c:	be cb       	rjmp	.-2180   	; 0xffa <cluster_a_tail_18_delay_1>
    187e:	4b 81       	ldd	r20, Y+3	; 0x03
    1880:	55 27       	eor	r21, r21
    1882:	bb cb       	rjmp	.-2186   	; 0xffa <cluster_a_tail_18_delay_1>
    1884:	6b 81       	ldd	r22, Y+3	; 0x03
    1886:	77 27       	eor	r23, r23
    1888:	b8 cb       	rjmp	.-2192   	; 0xffa <cluster_a_tail_18_delay_1>
    188a:	0c 81       	ldd	r16, Y+4	; 0x04
    188c:	11 27       	eor	r17, r17
    188e:	b5 cb       	rjmp	.-2198   	; 0xffa <cluster_a_tail_18_delay_1>
    1890:	2c 81       	ldd	r18, Y+4	; 0x04
    1892:	33 27       	eor	r19, r19
    1894:	b2 cb       	rjmp	.-2204   	; 0xffa <cluster_a_tail_18_delay_1>
    1896:	4c 81       	ldd	r20, Y+4	; 0x04
    1898:	55 27       	eor	r21, r21
    189a:	af cb       	rjmp	.-2210   	; 0xffa <cluster_a_tail_18_delay_1>
    189c:	6c 81       	ldd	r22, Y+4	; 0x04
    189e:	77 27       	eor	r23, r23
    18a0:	ac cb       	rjmp	.-2216   	; 0xffa <cluster_a_tail_18_delay_1>
    18a2:	0d 81       	ldd	r16, Y+5	; 0x05
    18a4:	11 27       	eor	r17, r17
    18a6:	a9 cb       	rjmp	.-2222   	; 0xffa <cluster_a_tail_18_delay_1>
    18a8:	2d 81       	ldd	r18, Y+5	; 0x05
    18aa:	33 27       	eor	r19, r19
    18ac:	a6 cb       	rjmp	.-2228   	; 0xffa <cluster_a_tail_18_delay_1>
    18ae:	4d 81       	ldd	r20, Y+5	; 0x05
    18b0:	55 27       	eor	r21, r21
    18b2:	a3 cb       	rjmp	.-2234   	; 0xffa <cluster_a_tail_18_delay_1>
    18b4:	6d 81       	ldd	r22, Y+5	; 0x05
    18b6:	77 27       	eor	r23, r23
    18b8:	a0 cb       	rjmp	.-2240   	; 0xffa <cluster_a_tail_18_delay_1>
    18ba:	0e 81       	ldd	r16, Y+6	; 0x06
    18bc:	11 27       	eor	r17, r17
    18be:	9d cb       	rjmp	.-2246   	; 0xffa <cluster_a_tail_18_delay_1>
    18c0:	2e 81       	ldd	r18, Y+6	; 0x06
    18c2:	33 27       	eor	r19, r19
    18c4:	9a cb       	rjmp	.-2252   	; 0xffa <cluster_a_tail_18_delay_1>
    18c6:	4e 81       	ldd	r20, Y+6	; 0x06
    18c8:	55 27       	eor	r21, r21
    18ca:	97 cb       	rjmp	.-2258   	; 0xffa <cluster_a_tail_18_delay_1>
    18cc:	6e 81       	ldd	r22, Y+6	; 0x06
    18ce:	77 27       	eor	r23, r23
    18d0:	94 cb       	rjmp	.-2264   	; 0xffa <cluster_a_tail_18_delay_1>
    18d2:	0f 81       	ldd	r16, Y+7	; 0x07
    18d4:	11 27       	eor	r17, r17
    18d6:	91 cb       	rjmp	.-2270   	; 0xffa <cluster_a_tail_18_delay_1>
    18d8:	2f 81       	ldd	r18, Y+7	; 0x07
    18da:	33 27       	eor	r19, r19
    18dc:	8e cb       	rjmp	.-2276   	; 0xffa <cluster_a_tail_18_delay_1>
    18de:	4f 81       	ldd	r20, Y+7	; 0x07
    18e0:	55 27       	eor	r21, r21
    18e2:	8b cb       	rjmp	.-2282   	; 0xffa <cluster_a_tail_18_delay_1>
    18e4:	6f 81       	ldd	r22, Y+7	; 0x07
    18e6:	77 27       	eor	r23, r23
    18e8:	88 cb       	rjmp	.-2288   	; 0xffa <cluster_a_tail_18_delay_1>
    18ea:	08 85       	ldd	r16, Y+8	; 0x08
    18ec:	11 27       	eor	r17, r17
    18ee:	85 cb       	rjmp	.-2294   	; 0xffa <cluster_a_tail_18_delay_1>
    18f0:	28 85       	ldd	r18, Y+8	; 0x08
    18f2:	33 27       	eor	r19, r19
    18f4:	82 cb       	rjmp	.-2300   	; 0xffa <cluster_a_tail_18_delay_1>
    18f6:	48 85       	ldd	r20, Y+8	; 0x08
    18f8:	55 27       	eor	r21, r21
    18fa:	7f cb       	rjmp	.-2306   	; 0xffa <cluster_a_tail_18_delay_1>
    18fc:	68 85       	ldd	r22, Y+8	; 0x08
    18fe:	77 27       	eor	r23, r23
    1900:	7c cb       	rjmp	.-2312   	; 0xffa <cluster_a_tail_18_delay_1>
    1902:	09 85       	ldd	r16, Y+9	; 0x09
    1904:	11 27       	eor	r17, r17
    1906:	79 cb       	rjmp	.-2318   	; 0xffa <cluster_a_tail_18_delay_1>
    1908:	29 85       	ldd	r18, Y+9	; 0x09
    190a:	33 27       	eor	r19, r19
    190c:	76 cb       	rjmp	.-2324   	; 0xffa <cluster_a_tail_18_delay_1>
    190e:	49 85       	ldd	r20, Y+9	; 0x09
    1910:	55 27       	eor	r21, r21
    1912:	73 cb       	rjmp	.-2330   	; 0xffa <cluster_a_tail_18_delay_1>
    1914:	69 85       	ldd	r22, Y+9	; 0x09
    1916:	77 27       	eor	r23, r23
    1918:	70 cb       	rjmp	.-2336   	; 0xffa <cluster_a_tail_18_delay_1>
    191a:	0a 85       	ldd	r16, Y+10	; 0x0a
    191c:	11 27       	eor	r17, r17
    191e:	6d cb       	rjmp	.-2342   	; 0xffa <cluster_a_tail_18_delay_1>
    1920:	2a 85       	ldd	r18, Y+10	; 0x0a
    1922:	33 27       	eor	r19, r19
    1924:	6a cb       	rjmp	.-2348   	; 0xffa <cluster_a_tail_18_delay_1>
    1926:	4a 85       	ldd	r20, Y+10	; 0x0a
    1928:	55 27       	eor	r21, r21
    192a:	67 cb       	rjmp	.-2354   	; 0xffa <cluster_a_tail_18_delay_1>
    192c:	6a 85       	ldd	r22, Y+10	; 0x0a
    192e:	77 27       	eor	r23, r23
    1930:	64 cb       	rjmp	.-2360   	; 0xffa <cluster_a_tail_18_delay_1>
    1932:	0b 85       	ldd	r16, Y+11	; 0x0b
    1934:	11 27       	eor	r17, r17
    1936:	61 cb       	rjmp	.-2366   	; 0xffa <cluster_a_tail_18_delay_1>
    1938:	2b 85       	ldd	r18, Y+11	; 0x0b
    193a:	33 27       	eor	r19, r19
    193c:	5e cb       	rjmp	.-2372   	; 0xffa <cluster_a_tail_18_delay_1>
    193e:	4b 85       	ldd	r20, Y+11	; 0x0b
    1940:	55 27       	eor	r21, r21
    1942:	5b cb       	rjmp	.-2378   	; 0xffa <cluster_a_tail_18_delay_1>
    1944:	6b 85       	ldd	r22, Y+11	; 0x0b
    1946:	77 27       	eor	r23, r23
    1948:	58 cb       	rjmp	.-2384   	; 0xffa <cluster_a_tail_18_delay_1>
    194a:	0c 85       	ldd	r16, Y+12	; 0x0c
    194c:	11 27       	eor	r17, r17
    194e:	55 cb       	rjmp	.-2390   	; 0xffa <cluster_a_tail_18_delay_1>
    1950:	2c 85       	ldd	r18, Y+12	; 0x0c
    1952:	33 27       	eor	r19, r19
    1954:	52 cb       	rjmp	.-2396   	; 0xffa <cluster_a_tail_18_delay_1>
    1956:	4c 85       	ldd	r20, Y+12	; 0x0c
    1958:	55 27       	eor	r21, r21
    195a:	4f cb       	rjmp	.-2402   	; 0xffa <cluster_a_tail_18_delay_1>
    195c:	6c 85       	ldd	r22, Y+12	; 0x0c
    195e:	77 27       	eor	r23, r23
    1960:	4c cb       	rjmp	.-2408   	; 0xffa <cluster_a_tail_18_delay_1>
    1962:	0d 85       	ldd	r16, Y+13	; 0x0d
    1964:	11 27       	eor	r17, r17
    1966:	49 cb       	rjmp	.-2414   	; 0xffa <cluster_a_tail_18_delay_1>
    1968:	2d 85       	ldd	r18, Y+13	; 0x0d
    196a:	33 27       	eor	r19, r19
    196c:	46 cb       	rjmp	.-2420   	; 0xffa <cluster_a_tail_18_delay_1>
    196e:	4d 85       	ldd	r20, Y+13	; 0x0d
    1970:	55 27       	eor	r21, r21
    1972:	43 cb       	rjmp	.-2426   	; 0xffa <cluster_a_tail_18_delay_1>
    1974:	6d 85       	ldd	r22, Y+13	; 0x0d
    1976:	77 27       	eor	r23, r23
    1978:	40 cb       	rjmp	.-2432   	; 0xffa <cluster_a_tail_18_delay_1>
    197a:	0e 85       	ldd	r16, Y+14	; 0x0e
    197c:	11 27       	eor	r17, r17
    197e:	3d cb       	rjmp	.-2438   	; 0xffa <cluster_a_tail_18_delay_1>
    1980:	2e 85       	ldd	r18, Y+14	; 0x0e
    1982:	33 27       	eor	r19, r19
    1984:	3a cb       	rjmp	.-2444   	; 0xffa <cluster_a_tail_18_delay_1>
    1986:	4e 85       	ldd	r20, Y+14	; 0x0e
    1988:	55 27       	eor	r21, r21
    198a:	37 cb       	rjmp	.-2450   	; 0xffa <cluster_a_tail_18_delay_1>
    198c:	6e 85       	ldd	r22, Y+14	; 0x0e
    198e:	77 27       	eor	r23, r23
    1990:	34 cb       	rjmp	.-2456   	; 0xffa <cluster_a_tail_18_delay_1>
    1992:	0f 85       	ldd	r16, Y+15	; 0x0f
    1994:	11 27       	eor	r17, r17
    1996:	31 cb       	rjmp	.-2462   	; 0xffa <cluster_a_tail_18_delay_1>
    1998:	2f 85       	ldd	r18, Y+15	; 0x0f
    199a:	33 27       	eor	r19, r19
    199c:	2e cb       	rjmp	.-2468   	; 0xffa <cluster_a_tail_18_delay_1>
    199e:	4f 85       	ldd	r20, Y+15	; 0x0f
    19a0:	55 27       	eor	r21, r21
    19a2:	2b cb       	rjmp	.-2474   	; 0xffa <cluster_a_tail_18_delay_1>
    19a4:	6f 85       	ldd	r22, Y+15	; 0x0f
    19a6:	77 27       	eor	r23, r23
    19a8:	28 cb       	rjmp	.-2480   	; 0xffa <cluster_a_tail_18_delay_1>

000019aa <cluster_b_start>:
    19aa:	00 00       	nop

000019ac <cluster_b_tail_17>:
    19ac:	43 0c       	add	r4, r3
    19ae:	52 1c       	adc	r5, r2
    19b0:	62 1c       	adc	r6, r2
    19b2:	f8 94       	cli
    19b4:	2e bc       	out	0x2e, r2	; 46
    19b6:	8e b5       	in	r24, 0x2e	; 46
    19b8:	78 94       	sei
    19ba:	87 9d       	mul	r24, r7
    19bc:	f0 01       	movw	r30, r0
    19be:	ff 5f       	subi	r31, 0xFF	; 255
    19c0:	09 94       	ijmp

000019c2 <flags_commit_b_18_delay_2>:
    19c2:	8e bb       	out	0x1e, r24	; 30

000019c4 <cluster_b_tail_18_delay_2>:
    19c4:	02 c0       	rjmp	.+4      	; 0x19ca <cluster_b_tail>

000019c6 <flags_commit_b_18_delay_1>:
    19c6:	8e bb       	out	0x1e, r24	; 30

000019c8 <cluster_b_tail_18_delay_1>:
    19c8:	00 00       	nop

000019ca <cluster_b_tail>:
    19ca:	43 0c       	add	r4, r3
    19cc:	8e b5       	in	r24, 0x2e	; 46
    19ce:	2e bc       	out	0x2e, r2	; 46
    19d0:	52 1c       	adc	r5, r2
    19d2:	62 1c       	adc	r6, r2
    19d4:	87 9d       	mul	r24, r7
    19d6:	f0 01       	movw	r30, r0
    19d8:	ff 5f       	subi	r31, 0xFF	; 255
    19da:	09 94       	ijmp

000019dc <cluster_b_end>:
    19dc:	b7 cb       	rjmp	.-2194   	; 0x114c <secondary_tables_before_cluster_b>

000019de <secondary_invalid_b_func>:
    19de:	fb ca       	rjmp	.-2570   	; 0xfd6 <invalid_secondary_instruction_func>

000019e0 <f4_table>:
    19e0:	08 81       	ld	r16, Y
    19e2:	19 81       	ldd	r17, Y+1	; 0x01
    19e4:	f2 cf       	rjmp	.-28     	; 0x19ca <cluster_b_tail>
    19e6:	28 81       	ld	r18, Y
    19e8:	39 81       	ldd	r19, Y+1	; 0x01
    19ea:	ef cf       	rjmp	.-34     	; 0x19ca <cluster_b_tail>
    19ec:	48 81       	ld	r20, Y
    19ee:	59 81       	ldd	r21, Y+1	; 0x01
    19f0:	ec cf       	rjmp	.-40     	; 0x19ca <cluster_b_tail>
    19f2:	68 81       	ld	r22, Y
    19f4:	79 81       	ldd	r23, Y+1	; 0x01
    19f6:	e9 cf       	rjmp	.-46     	; 0x19ca <cluster_b_tail>
    19f8:	09 81       	ldd	r16, Y+1	; 0x01
    19fa:	1a 81       	ldd	r17, Y+2	; 0x02
    19fc:	e6 cf       	rjmp	.-52     	; 0x19ca <cluster_b_tail>
    19fe:	29 81       	ldd	r18, Y+1	; 0x01
    1a00:	3a 81       	ldd	r19, Y+2	; 0x02
    1a02:	e3 cf       	rjmp	.-58     	; 0x19ca <cluster_b_tail>
    1a04:	49 81       	ldd	r20, Y+1	; 0x01
    1a06:	5a 81       	ldd	r21, Y+2	; 0x02
    1a08:	e0 cf       	rjmp	.-64     	; 0x19ca <cluster_b_tail>
    1a0a:	69 81       	ldd	r22, Y+1	; 0x01
    1a0c:	7a 81       	ldd	r23, Y+2	; 0x02
    1a0e:	dd cf       	rjmp	.-70     	; 0x19ca <cluster_b_tail>
    1a10:	0a 81       	ldd	r16, Y+2	; 0x02
    1a12:	1b 81       	ldd	r17, Y+3	; 0x03
    1a14:	da cf       	rjmp	.-76     	; 0x19ca <cluster_b_tail>
    1a16:	2a 81       	ldd	r18, Y+2	; 0x02
    1a18:	3b 81       	ldd	r19, Y+3	; 0x03
    1a1a:	d7 cf       	rjmp	.-82     	; 0x19ca <cluster_b_tail>
    1a1c:	4a 81       	ldd	r20, Y+2	; 0x02
    1a1e:	5b 81       	ldd	r21, Y+3	; 0x03
    1a20:	d4 cf       	rjmp	.-88     	; 0x19ca <cluster_b_tail>
    1a22:	6a 81       	ldd	r22, Y+2	; 0x02
    1a24:	7b 81       	ldd	r23, Y+3	; 0x03
    1a26:	d1 cf       	rjmp	.-94     	; 0x19ca <cluster_b_tail>
    1a28:	0b 81       	ldd	r16, Y+3	; 0x03
    1a2a:	1c 81       	ldd	r17, Y+4	; 0x04
    1a2c:	ce cf       	rjmp	.-100    	; 0x19ca <cluster_b_tail>
    1a2e:	2b 81       	ldd	r18, Y+3	; 0x03
    1a30:	3c 81       	ldd	r19, Y+4	; 0x04
    1a32:	cb cf       	rjmp	.-106    	; 0x19ca <cluster_b_tail>
    1a34:	4b 81       	ldd	r20, Y+3	; 0x03
    1a36:	5c 81       	ldd	r21, Y+4	; 0x04
    1a38:	c8 cf       	rjmp	.-112    	; 0x19ca <cluster_b_tail>
    1a3a:	6b 81       	ldd	r22, Y+3	; 0x03
    1a3c:	7c 81       	ldd	r23, Y+4	; 0x04
    1a3e:	c5 cf       	rjmp	.-118    	; 0x19ca <cluster_b_tail>
    1a40:	0c 81       	ldd	r16, Y+4	; 0x04
    1a42:	1d 81       	ldd	r17, Y+5	; 0x05
    1a44:	c2 cf       	rjmp	.-124    	; 0x19ca <cluster_b_tail>
    1a46:	2c 81       	ldd	r18, Y+4	; 0x04
    1a48:	3d 81       	ldd	r19, Y+5	; 0x05
    1a4a:	bf cf       	rjmp	.-130    	; 0x19ca <cluster_b_tail>
    1a4c:	4c 81       	ldd	r20, Y+4	; 0x04
    1a4e:	5d 81       	ldd	r21, Y+5	; 0x05
    1a50:	bc cf       	rjmp	.-136    	; 0x19ca <cluster_b_tail>
    1a52:	6c 81       	ldd	r22, Y+4	; 0x04
    1a54:	7d 81       	ldd	r23, Y+5	; 0x05
    1a56:	b9 cf       	rjmp	.-142    	; 0x19ca <cluster_b_tail>
    1a58:	0d 81       	ldd	r16, Y+5	; 0x05
    1a5a:	1e 81       	ldd	r17, Y+6	; 0x06
    1a5c:	b6 cf       	rjmp	.-148    	; 0x19ca <cluster_b_tail>
    1a5e:	2d 81       	ldd	r18, Y+5	; 0x05
    1a60:	3e 81       	ldd	r19, Y+6	; 0x06
    1a62:	b3 cf       	rjmp	.-154    	; 0x19ca <cluster_b_tail>
    1a64:	4d 81       	ldd	r20, Y+5	; 0x05
    1a66:	5e 81       	ldd	r21, Y+6	; 0x06
    1a68:	b0 cf       	rjmp	.-160    	; 0x19ca <cluster_b_tail>
    1a6a:	6d 81       	ldd	r22, Y+5	; 0x05
    1a6c:	7e 81       	ldd	r23, Y+6	; 0x06
    1a6e:	ad cf       	rjmp	.-166    	; 0x19ca <cluster_b_tail>
    1a70:	0e 81       	ldd	r16, Y+6	; 0x06
    1a72:	1f 81       	ldd	r17, Y+7	; 0x07
    1a74:	aa cf       	rjmp	.-172    	; 0x19ca <cluster_b_tail>
    1a76:	2e 81       	ldd	r18, Y+6	; 0x06
    1a78:	3f 81       	ldd	r19, Y+7	; 0x07
    1a7a:	a7 cf       	rjmp	.-178    	; 0x19ca <cluster_b_tail>
    1a7c:	4e 81       	ldd	r20, Y+6	; 0x06
    1a7e:	5f 81       	ldd	r21, Y+7	; 0x07
    1a80:	a4 cf       	rjmp	.-184    	; 0x19ca <cluster_b_tail>
    1a82:	6e 81       	ldd	r22, Y+6	; 0x06
    1a84:	7f 81       	ldd	r23, Y+7	; 0x07
    1a86:	a1 cf       	rjmp	.-190    	; 0x19ca <cluster_b_tail>
    1a88:	0f 81       	ldd	r16, Y+7	; 0x07
    1a8a:	18 85       	ldd	r17, Y+8	; 0x08
    1a8c:	9e cf       	rjmp	.-196    	; 0x19ca <cluster_b_tail>
    1a8e:	2f 81       	ldd	r18, Y+7	; 0x07
    1a90:	38 85       	ldd	r19, Y+8	; 0x08
    1a92:	9b cf       	rjmp	.-202    	; 0x19ca <cluster_b_tail>
    1a94:	4f 81       	ldd	r20, Y+7	; 0x07
    1a96:	58 85       	ldd	r21, Y+8	; 0x08
    1a98:	98 cf       	rjmp	.-208    	; 0x19ca <cluster_b_tail>
    1a9a:	6f 81       	ldd	r22, Y+7	; 0x07
    1a9c:	78 85       	ldd	r23, Y+8	; 0x08
    1a9e:	95 cf       	rjmp	.-214    	; 0x19ca <cluster_b_tail>
    1aa0:	08 85       	ldd	r16, Y+8	; 0x08
    1aa2:	19 85       	ldd	r17, Y+9	; 0x09
    1aa4:	92 cf       	rjmp	.-220    	; 0x19ca <cluster_b_tail>
    1aa6:	28 85       	ldd	r18, Y+8	; 0x08
    1aa8:	39 85       	ldd	r19, Y+9	; 0x09
    1aaa:	8f cf       	rjmp	.-226    	; 0x19ca <cluster_b_tail>
    1aac:	48 85       	ldd	r20, Y+8	; 0x08
    1aae:	59 85       	ldd	r21, Y+9	; 0x09
    1ab0:	8c cf       	rjmp	.-232    	; 0x19ca <cluster_b_tail>
    1ab2:	68 85       	ldd	r22, Y+8	; 0x08
    1ab4:	79 85       	ldd	r23, Y+9	; 0x09
    1ab6:	89 cf       	rjmp	.-238    	; 0x19ca <cluster_b_tail>
    1ab8:	09 85       	ldd	r16, Y+9	; 0x09
    1aba:	1a 85       	ldd	r17, Y+10	; 0x0a
    1abc:	86 cf       	rjmp	.-244    	; 0x19ca <cluster_b_tail>
    1abe:	29 85       	ldd	r18, Y+9	; 0x09
    1ac0:	3a 85       	ldd	r19, Y+10	; 0x0a
    1ac2:	83 cf       	rjmp	.-250    	; 0x19ca <cluster_b_tail>
    1ac4:	49 85       	ldd	r20, Y+9	; 0x09
    1ac6:	5a 85       	ldd	r21, Y+10	; 0x0a
    1ac8:	80 cf       	rjmp	.-256    	; 0x19ca <cluster_b_tail>
    1aca:	69 85       	ldd	r22, Y+9	; 0x09
    1acc:	7a 85       	ldd	r23, Y+10	; 0x0a
    1ace:	7d cf       	rjmp	.-262    	; 0x19ca <cluster_b_tail>
    1ad0:	0a 85       	ldd	r16, Y+10	; 0x0a
    1ad2:	1b 85       	ldd	r17, Y+11	; 0x0b
    1ad4:	7a cf       	rjmp	.-268    	; 0x19ca <cluster_b_tail>
    1ad6:	2a 85       	ldd	r18, Y+10	; 0x0a
    1ad8:	3b 85       	ldd	r19, Y+11	; 0x0b
    1ada:	77 cf       	rjmp	.-274    	; 0x19ca <cluster_b_tail>
    1adc:	4a 85       	ldd	r20, Y+10	; 0x0a
    1ade:	5b 85       	ldd	r21, Y+11	; 0x0b
    1ae0:	74 cf       	rjmp	.-280    	; 0x19ca <cluster_b_tail>
    1ae2:	6a 85       	ldd	r22, Y+10	; 0x0a
    1ae4:	7b 85       	ldd	r23, Y+11	; 0x0b
    1ae6:	71 cf       	rjmp	.-286    	; 0x19ca <cluster_b_tail>
    1ae8:	0b 85       	ldd	r16, Y+11	; 0x0b
    1aea:	1c 85       	ldd	r17, Y+12	; 0x0c
    1aec:	6e cf       	rjmp	.-292    	; 0x19ca <cluster_b_tail>
    1aee:	2b 85       	ldd	r18, Y+11	; 0x0b
    1af0:	3c 85       	ldd	r19, Y+12	; 0x0c
    1af2:	6b cf       	rjmp	.-298    	; 0x19ca <cluster_b_tail>
    1af4:	4b 85       	ldd	r20, Y+11	; 0x0b
    1af6:	5c 85       	ldd	r21, Y+12	; 0x0c
    1af8:	68 cf       	rjmp	.-304    	; 0x19ca <cluster_b_tail>
    1afa:	6b 85       	ldd	r22, Y+11	; 0x0b
    1afc:	7c 85       	ldd	r23, Y+12	; 0x0c
    1afe:	65 cf       	rjmp	.-310    	; 0x19ca <cluster_b_tail>
    1b00:	0c 85       	ldd	r16, Y+12	; 0x0c
    1b02:	1d 85       	ldd	r17, Y+13	; 0x0d
    1b04:	62 cf       	rjmp	.-316    	; 0x19ca <cluster_b_tail>
    1b06:	2c 85       	ldd	r18, Y+12	; 0x0c
    1b08:	3d 85       	ldd	r19, Y+13	; 0x0d
    1b0a:	5f cf       	rjmp	.-322    	; 0x19ca <cluster_b_tail>
    1b0c:	4c 85       	ldd	r20, Y+12	; 0x0c
    1b0e:	5d 85       	ldd	r21, Y+13	; 0x0d
    1b10:	5c cf       	rjmp	.-328    	; 0x19ca <cluster_b_tail>
    1b12:	6c 85       	ldd	r22, Y+12	; 0x0c
    1b14:	7d 85       	ldd	r23, Y+13	; 0x0d
    1b16:	59 cf       	rjmp	.-334    	; 0x19ca <cluster_b_tail>
    1b18:	0d 85       	ldd	r16, Y+13	; 0x0d
    1b1a:	1e 85       	ldd	r17, Y+14	; 0x0e
    1b1c:	56 cf       	rjmp	.-340    	; 0x19ca <cluster_b_tail>
    1b1e:	2d 85       	ldd	r18, Y+13	; 0x0d
    1b20:	3e 85       	ldd	r19, Y+14	; 0x0e
    1b22:	53 cf       	rjmp	.-346    	; 0x19ca <cluster_b_tail>
    1b24:	4d 85       	ldd	r20, Y+13	; 0x0d
    1b26:	5e 85       	ldd	r21, Y+14	; 0x0e
    1b28:	50 cf       	rjmp	.-352    	; 0x19ca <cluster_b_tail>
    1b2a:	6d 85       	ldd	r22, Y+13	; 0x0d
    1b2c:	7e 85       	ldd	r23, Y+14	; 0x0e
    1b2e:	4d cf       	rjmp	.-358    	; 0x19ca <cluster_b_tail>
    1b30:	0e 85       	ldd	r16, Y+14	; 0x0e
    1b32:	1f 85       	ldd	r17, Y+15	; 0x0f
    1b34:	4a cf       	rjmp	.-364    	; 0x19ca <cluster_b_tail>
    1b36:	2e 85       	ldd	r18, Y+14	; 0x0e
    1b38:	3f 85       	ldd	r19, Y+15	; 0x0f
    1b3a:	47 cf       	rjmp	.-370    	; 0x19ca <cluster_b_tail>
    1b3c:	4e 85       	ldd	r20, Y+14	; 0x0e
    1b3e:	5f 85       	ldd	r21, Y+15	; 0x0f
    1b40:	44 cf       	rjmp	.-376    	; 0x19ca <cluster_b_tail>
    1b42:	6e 85       	ldd	r22, Y+14	; 0x0e
    1b44:	7f 85       	ldd	r23, Y+15	; 0x0f
    1b46:	41 cf       	rjmp	.-382    	; 0x19ca <cluster_b_tail>
    1b48:	0f 85       	ldd	r16, Y+15	; 0x0f
    1b4a:	18 89       	ldd	r17, Y+16	; 0x10
    1b4c:	3e cf       	rjmp	.-388    	; 0x19ca <cluster_b_tail>
    1b4e:	2f 85       	ldd	r18, Y+15	; 0x0f
    1b50:	38 89       	ldd	r19, Y+16	; 0x10
    1b52:	3b cf       	rjmp	.-394    	; 0x19ca <cluster_b_tail>
    1b54:	4f 85       	ldd	r20, Y+15	; 0x0f
    1b56:	58 89       	ldd	r21, Y+16	; 0x10
    1b58:	38 cf       	rjmp	.-400    	; 0x19ca <cluster_b_tail>
    1b5a:	6f 85       	ldd	r22, Y+15	; 0x0f
    1b5c:	78 89       	ldd	r23, Y+16	; 0x10
    1b5e:	35 cf       	rjmp	.-406    	; 0x19ca <cluster_b_tail>
    1b60:	08 83       	st	Y, r16
    1b62:	19 83       	std	Y+1, r17	; 0x01
    1b64:	32 cf       	rjmp	.-412    	; 0x19ca <cluster_b_tail>
    1b66:	28 83       	st	Y, r18
    1b68:	39 83       	std	Y+1, r19	; 0x01
    1b6a:	2f cf       	rjmp	.-418    	; 0x19ca <cluster_b_tail>
    1b6c:	48 83       	st	Y, r20
    1b6e:	59 83       	std	Y+1, r21	; 0x01
    1b70:	2c cf       	rjmp	.-424    	; 0x19ca <cluster_b_tail>
    1b72:	68 83       	st	Y, r22
    1b74:	79 83       	std	Y+1, r23	; 0x01
    1b76:	29 cf       	rjmp	.-430    	; 0x19ca <cluster_b_tail>
    1b78:	09 83       	std	Y+1, r16	; 0x01
    1b7a:	1a 83       	std	Y+2, r17	; 0x02
    1b7c:	26 cf       	rjmp	.-436    	; 0x19ca <cluster_b_tail>
    1b7e:	29 83       	std	Y+1, r18	; 0x01
    1b80:	3a 83       	std	Y+2, r19	; 0x02
    1b82:	23 cf       	rjmp	.-442    	; 0x19ca <cluster_b_tail>
    1b84:	49 83       	std	Y+1, r20	; 0x01
    1b86:	5a 83       	std	Y+2, r21	; 0x02
    1b88:	20 cf       	rjmp	.-448    	; 0x19ca <cluster_b_tail>
    1b8a:	69 83       	std	Y+1, r22	; 0x01
    1b8c:	7a 83       	std	Y+2, r23	; 0x02
    1b8e:	1d cf       	rjmp	.-454    	; 0x19ca <cluster_b_tail>
    1b90:	0a 83       	std	Y+2, r16	; 0x02
    1b92:	1b 83       	std	Y+3, r17	; 0x03
    1b94:	1a cf       	rjmp	.-460    	; 0x19ca <cluster_b_tail>
    1b96:	2a 83       	std	Y+2, r18	; 0x02
    1b98:	3b 83       	std	Y+3, r19	; 0x03
    1b9a:	17 cf       	rjmp	.-466    	; 0x19ca <cluster_b_tail>
    1b9c:	4a 83       	std	Y+2, r20	; 0x02
    1b9e:	5b 83       	std	Y+3, r21	; 0x03
    1ba0:	14 cf       	rjmp	.-472    	; 0x19ca <cluster_b_tail>
    1ba2:	6a 83       	std	Y+2, r22	; 0x02
    1ba4:	7b 83       	std	Y+3, r23	; 0x03
    1ba6:	11 cf       	rjmp	.-478    	; 0x19ca <cluster_b_tail>
    1ba8:	0b 83       	std	Y+3, r16	; 0x03
    1baa:	1c 83       	std	Y+4, r17	; 0x04
    1bac:	0e cf       	rjmp	.-484    	; 0x19ca <cluster_b_tail>
    1bae:	2b 83       	std	Y+3, r18	; 0x03
    1bb0:	3c 83       	std	Y+4, r19	; 0x04
    1bb2:	0b cf       	rjmp	.-490    	; 0x19ca <cluster_b_tail>
    1bb4:	4b 83       	std	Y+3, r20	; 0x03
    1bb6:	5c 83       	std	Y+4, r21	; 0x04
    1bb8:	08 cf       	rjmp	.-496    	; 0x19ca <cluster_b_tail>
    1bba:	6b 83       	std	Y+3, r22	; 0x03
    1bbc:	7c 83       	std	Y+4, r23	; 0x04
    1bbe:	05 cf       	rjmp	.-502    	; 0x19ca <cluster_b_tail>
    1bc0:	0c 83       	std	Y+4, r16	; 0x04
    1bc2:	1d 83       	std	Y+5, r17	; 0x05
    1bc4:	02 cf       	rjmp	.-508    	; 0x19ca <cluster_b_tail>
    1bc6:	2c 83       	std	Y+4, r18	; 0x04
    1bc8:	3d 83       	std	Y+5, r19	; 0x05
    1bca:	ff ce       	rjmp	.-514    	; 0x19ca <cluster_b_tail>
    1bcc:	4c 83       	std	Y+4, r20	; 0x04
    1bce:	5d 83       	std	Y+5, r21	; 0x05
    1bd0:	fc ce       	rjmp	.-520    	; 0x19ca <cluster_b_tail>
    1bd2:	6c 83       	std	Y+4, r22	; 0x04
    1bd4:	7d 83       	std	Y+5, r23	; 0x05
    1bd6:	f9 ce       	rjmp	.-526    	; 0x19ca <cluster_b_tail>
    1bd8:	0d 83       	std	Y+5, r16	; 0x05
    1bda:	1e 83       	std	Y+6, r17	; 0x06
    1bdc:	f6 ce       	rjmp	.-532    	; 0x19ca <cluster_b_tail>
    1bde:	2d 83       	std	Y+5, r18	; 0x05
    1be0:	3e 83       	std	Y+6, r19	; 0x06
    1be2:	f3 ce       	rjmp	.-538    	; 0x19ca <cluster_b_tail>
    1be4:	4d 83       	std	Y+5, r20	; 0x05
    1be6:	5e 83       	std	Y+6, r21	; 0x06
    1be8:	f0 ce       	rjmp	.-544    	; 0x19ca <cluster_b_tail>
    1bea:	6d 83       	std	Y+5, r22	; 0x05
    1bec:	7e 83       	std	Y+6, r23	; 0x06
    1bee:	ed ce       	rjmp	.-550    	; 0x19ca <cluster_b_tail>
    1bf0:	0e 83       	std	Y+6, r16	; 0x06
    1bf2:	1f 83       	std	Y+7, r17	; 0x07
    1bf4:	ea ce       	rjmp	.-556    	; 0x19ca <cluster_b_tail>
    1bf6:	2e 83       	std	Y+6, r18	; 0x06
    1bf8:	3f 83       	std	Y+7, r19	; 0x07
    1bfa:	e7 ce       	rjmp	.-562    	; 0x19ca <cluster_b_tail>
    1bfc:	4e 83       	std	Y+6, r20	; 0x06
    1bfe:	5f 83       	std	Y+7, r21	; 0x07
    1c00:	e4 ce       	rjmp	.-568    	; 0x19ca <cluster_b_tail>
    1c02:	6e 83       	std	Y+6, r22	; 0x06
    1c04:	7f 83       	std	Y+7, r23	; 0x07
    1c06:	e1 ce       	rjmp	.-574    	; 0x19ca <cluster_b_tail>
    1c08:	0f 83       	std	Y+7, r16	; 0x07
    1c0a:	18 87       	std	Y+8, r17	; 0x08
    1c0c:	de ce       	rjmp	.-580    	; 0x19ca <cluster_b_tail>
    1c0e:	2f 83       	std	Y+7, r18	; 0x07
    1c10:	38 87       	std	Y+8, r19	; 0x08
    1c12:	db ce       	rjmp	.-586    	; 0x19ca <cluster_b_tail>
    1c14:	4f 83       	std	Y+7, r20	; 0x07
    1c16:	58 87       	std	Y+8, r21	; 0x08
    1c18:	d8 ce       	rjmp	.-592    	; 0x19ca <cluster_b_tail>
    1c1a:	6f 83       	std	Y+7, r22	; 0x07
    1c1c:	78 87       	std	Y+8, r23	; 0x08
    1c1e:	d5 ce       	rjmp	.-598    	; 0x19ca <cluster_b_tail>
    1c20:	08 87       	std	Y+8, r16	; 0x08
    1c22:	19 87       	std	Y+9, r17	; 0x09
    1c24:	d2 ce       	rjmp	.-604    	; 0x19ca <cluster_b_tail>
    1c26:	28 87       	std	Y+8, r18	; 0x08
    1c28:	39 87       	std	Y+9, r19	; 0x09
    1c2a:	cf ce       	rjmp	.-610    	; 0x19ca <cluster_b_tail>
    1c2c:	48 87       	std	Y+8, r20	; 0x08
    1c2e:	59 87       	std	Y+9, r21	; 0x09
    1c30:	cc ce       	rjmp	.-616    	; 0x19ca <cluster_b_tail>
    1c32:	68 87       	std	Y+8, r22	; 0x08
    1c34:	79 87       	std	Y+9, r23	; 0x09
    1c36:	c9 ce       	rjmp	.-622    	; 0x19ca <cluster_b_tail>
    1c38:	09 87       	std	Y+9, r16	; 0x09
    1c3a:	1a 87       	std	Y+10, r17	; 0x0a
    1c3c:	c6 ce       	rjmp	.-628    	; 0x19ca <cluster_b_tail>
    1c3e:	29 87       	std	Y+9, r18	; 0x09
    1c40:	3a 87       	std	Y+10, r19	; 0x0a
    1c42:	c3 ce       	rjmp	.-634    	; 0x19ca <cluster_b_tail>
    1c44:	49 87       	std	Y+9, r20	; 0x09
    1c46:	5a 87       	std	Y+10, r21	; 0x0a
    1c48:	c0 ce       	rjmp	.-640    	; 0x19ca <cluster_b_tail>
    1c4a:	69 87       	std	Y+9, r22	; 0x09
    1c4c:	7a 87       	std	Y+10, r23	; 0x0a
    1c4e:	bd ce       	rjmp	.-646    	; 0x19ca <cluster_b_tail>
    1c50:	0a 87       	std	Y+10, r16	; 0x0a
    1c52:	1b 87       	std	Y+11, r17	; 0x0b
    1c54:	ba ce       	rjmp	.-652    	; 0x19ca <cluster_b_tail>
    1c56:	2a 87       	std	Y+10, r18	; 0x0a
    1c58:	3b 87       	std	Y+11, r19	; 0x0b
    1c5a:	b7 ce       	rjmp	.-658    	; 0x19ca <cluster_b_tail>
    1c5c:	4a 87       	std	Y+10, r20	; 0x0a
    1c5e:	5b 87       	std	Y+11, r21	; 0x0b
    1c60:	b4 ce       	rjmp	.-664    	; 0x19ca <cluster_b_tail>
    1c62:	6a 87       	std	Y+10, r22	; 0x0a
    1c64:	7b 87       	std	Y+11, r23	; 0x0b
    1c66:	b1 ce       	rjmp	.-670    	; 0x19ca <cluster_b_tail>
    1c68:	0b 87       	std	Y+11, r16	; 0x0b
    1c6a:	1c 87       	std	Y+12, r17	; 0x0c
    1c6c:	ae ce       	rjmp	.-676    	; 0x19ca <cluster_b_tail>
    1c6e:	2b 87       	std	Y+11, r18	; 0x0b
    1c70:	3c 87       	std	Y+12, r19	; 0x0c
    1c72:	ab ce       	rjmp	.-682    	; 0x19ca <cluster_b_tail>
    1c74:	4b 87       	std	Y+11, r20	; 0x0b
    1c76:	5c 87       	std	Y+12, r21	; 0x0c
    1c78:	a8 ce       	rjmp	.-688    	; 0x19ca <cluster_b_tail>
    1c7a:	6b 87       	std	Y+11, r22	; 0x0b
    1c7c:	7c 87       	std	Y+12, r23	; 0x0c
    1c7e:	a5 ce       	rjmp	.-694    	; 0x19ca <cluster_b_tail>
    1c80:	0c 87       	std	Y+12, r16	; 0x0c
    1c82:	1d 87       	std	Y+13, r17	; 0x0d
    1c84:	a2 ce       	rjmp	.-700    	; 0x19ca <cluster_b_tail>
    1c86:	2c 87       	std	Y+12, r18	; 0x0c
    1c88:	3d 87       	std	Y+13, r19	; 0x0d
    1c8a:	9f ce       	rjmp	.-706    	; 0x19ca <cluster_b_tail>
    1c8c:	4c 87       	std	Y+12, r20	; 0x0c
    1c8e:	5d 87       	std	Y+13, r21	; 0x0d
    1c90:	9c ce       	rjmp	.-712    	; 0x19ca <cluster_b_tail>
    1c92:	6c 87       	std	Y+12, r22	; 0x0c
    1c94:	7d 87       	std	Y+13, r23	; 0x0d
    1c96:	99 ce       	rjmp	.-718    	; 0x19ca <cluster_b_tail>
    1c98:	0d 87       	std	Y+13, r16	; 0x0d
    1c9a:	1e 87       	std	Y+14, r17	; 0x0e
    1c9c:	96 ce       	rjmp	.-724    	; 0x19ca <cluster_b_tail>
    1c9e:	2d 87       	std	Y+13, r18	; 0x0d
    1ca0:	3e 87       	std	Y+14, r19	; 0x0e
    1ca2:	93 ce       	rjmp	.-730    	; 0x19ca <cluster_b_tail>
    1ca4:	4d 87       	std	Y+13, r20	; 0x0d
    1ca6:	5e 87       	std	Y+14, r21	; 0x0e
    1ca8:	90 ce       	rjmp	.-736    	; 0x19ca <cluster_b_tail>
    1caa:	6d 87       	std	Y+13, r22	; 0x0d
    1cac:	7e 87       	std	Y+14, r23	; 0x0e
    1cae:	8d ce       	rjmp	.-742    	; 0x19ca <cluster_b_tail>
    1cb0:	0e 87       	std	Y+14, r16	; 0x0e
    1cb2:	1f 87       	std	Y+15, r17	; 0x0f
    1cb4:	8a ce       	rjmp	.-748    	; 0x19ca <cluster_b_tail>
    1cb6:	2e 87       	std	Y+14, r18	; 0x0e
    1cb8:	3f 87       	std	Y+15, r19	; 0x0f
    1cba:	87 ce       	rjmp	.-754    	; 0x19ca <cluster_b_tail>
    1cbc:	4e 87       	std	Y+14, r20	; 0x0e
    1cbe:	5f 87       	std	Y+15, r21	; 0x0f
    1cc0:	84 ce       	rjmp	.-760    	; 0x19ca <cluster_b_tail>
    1cc2:	6e 87       	std	Y+14, r22	; 0x0e
    1cc4:	7f 87       	std	Y+15, r23	; 0x0f
    1cc6:	81 ce       	rjmp	.-766    	; 0x19ca <cluster_b_tail>
    1cc8:	0f 87       	std	Y+15, r16	; 0x0f
    1cca:	18 8b       	std	Y+16, r17	; 0x10
    1ccc:	7e ce       	rjmp	.-772    	; 0x19ca <cluster_b_tail>
    1cce:	2f 87       	std	Y+15, r18	; 0x0f
    1cd0:	38 8b       	std	Y+16, r19	; 0x10
    1cd2:	7b ce       	rjmp	.-778    	; 0x19ca <cluster_b_tail>
    1cd4:	4f 87       	std	Y+15, r20	; 0x0f
    1cd6:	58 8b       	std	Y+16, r21	; 0x10
    1cd8:	78 ce       	rjmp	.-784    	; 0x19ca <cluster_b_tail>
    1cda:	6f 87       	std	Y+15, r22	; 0x0f
    1cdc:	78 8b       	std	Y+16, r23	; 0x10
    1cde:	75 ce       	rjmp	.-790    	; 0x19ca <cluster_b_tail>
    1ce0:	88 0c       	add	r8, r8
    1ce2:	99 1c       	adc	r9, r9
    1ce4:	63 ce       	rjmp	.-826    	; 0x19ac <cluster_b_tail_17>
    1ce6:	aa 0c       	add	r10, r10
    1ce8:	bb 1c       	adc	r11, r11
    1cea:	60 ce       	rjmp	.-832    	; 0x19ac <cluster_b_tail_17>
    1cec:	cc 0c       	add	r12, r12
    1cee:	dd 1c       	adc	r13, r13
    1cf0:	5d ce       	rjmp	.-838    	; 0x19ac <cluster_b_tail_17>
    1cf2:	ee 0c       	add	r14, r14
    1cf4:	ff 1c       	adc	r15, r15
    1cf6:	5a ce       	rjmp	.-844    	; 0x19ac <cluster_b_tail_17>
    1cf8:	00 0f       	add	r16, r16
    1cfa:	11 1f       	adc	r17, r17
    1cfc:	57 ce       	rjmp	.-850    	; 0x19ac <cluster_b_tail_17>
    1cfe:	22 0f       	add	r18, r18
    1d00:	33 1f       	adc	r19, r19
    1d02:	54 ce       	rjmp	.-856    	; 0x19ac <cluster_b_tail_17>
    1d04:	44 0f       	add	r20, r20
    1d06:	55 1f       	adc	r21, r21
    1d08:	51 ce       	rjmp	.-862    	; 0x19ac <cluster_b_tail_17>
    1d0a:	66 0f       	add	r22, r22
    1d0c:	77 1f       	adc	r23, r23
    1d0e:	4e ce       	rjmp	.-868    	; 0x19ac <cluster_b_tail_17>
    1d10:	96 94       	lsr	r9
    1d12:	87 94       	ror	r8
    1d14:	4b ce       	rjmp	.-874    	; 0x19ac <cluster_b_tail_17>
    1d16:	b6 94       	lsr	r11
    1d18:	a7 94       	ror	r10
    1d1a:	48 ce       	rjmp	.-880    	; 0x19ac <cluster_b_tail_17>
    1d1c:	d6 94       	lsr	r13
    1d1e:	c7 94       	ror	r12
    1d20:	45 ce       	rjmp	.-886    	; 0x19ac <cluster_b_tail_17>
    1d22:	f6 94       	lsr	r15
    1d24:	e7 94       	ror	r14
    1d26:	42 ce       	rjmp	.-892    	; 0x19ac <cluster_b_tail_17>
    1d28:	16 95       	lsr	r17
    1d2a:	07 95       	ror	r16
    1d2c:	3f ce       	rjmp	.-898    	; 0x19ac <cluster_b_tail_17>
    1d2e:	36 95       	lsr	r19
    1d30:	27 95       	ror	r18
    1d32:	3c ce       	rjmp	.-904    	; 0x19ac <cluster_b_tail_17>
    1d34:	56 95       	lsr	r21
    1d36:	47 95       	ror	r20
    1d38:	39 ce       	rjmp	.-910    	; 0x19ac <cluster_b_tail_17>
    1d3a:	76 95       	lsr	r23
    1d3c:	67 95       	ror	r22
    1d3e:	36 ce       	rjmp	.-916    	; 0x19ac <cluster_b_tail_17>
    1d40:	95 94       	asr	r9
    1d42:	87 94       	ror	r8
    1d44:	33 ce       	rjmp	.-922    	; 0x19ac <cluster_b_tail_17>
    1d46:	b5 94       	asr	r11
    1d48:	a7 94       	ror	r10
    1d4a:	30 ce       	rjmp	.-928    	; 0x19ac <cluster_b_tail_17>
    1d4c:	d5 94       	asr	r13
    1d4e:	c7 94       	ror	r12
    1d50:	2d ce       	rjmp	.-934    	; 0x19ac <cluster_b_tail_17>
    1d52:	f5 94       	asr	r15
    1d54:	e7 94       	ror	r14
    1d56:	2a ce       	rjmp	.-940    	; 0x19ac <cluster_b_tail_17>
    1d58:	15 95       	asr	r17
    1d5a:	07 95       	ror	r16
    1d5c:	27 ce       	rjmp	.-946    	; 0x19ac <cluster_b_tail_17>
    1d5e:	35 95       	asr	r19
    1d60:	27 95       	ror	r18
    1d62:	24 ce       	rjmp	.-952    	; 0x19ac <cluster_b_tail_17>
    1d64:	55 95       	asr	r21
    1d66:	47 95       	ror	r20
    1d68:	21 ce       	rjmp	.-958    	; 0x19ac <cluster_b_tail_17>
    1d6a:	75 95       	asr	r23
    1d6c:	67 95       	ror	r22
    1d6e:	1e ce       	rjmp	.-964    	; 0x19ac <cluster_b_tail_17>
    1d70:	80 94       	com	r8
    1d72:	90 94       	com	r9
    1d74:	1b ce       	rjmp	.-970    	; 0x19ac <cluster_b_tail_17>
    1d76:	a0 94       	com	r10
    1d78:	b0 94       	com	r11
    1d7a:	18 ce       	rjmp	.-976    	; 0x19ac <cluster_b_tail_17>
    1d7c:	c0 94       	com	r12
    1d7e:	d0 94       	com	r13
    1d80:	15 ce       	rjmp	.-982    	; 0x19ac <cluster_b_tail_17>
    1d82:	e0 94       	com	r14
    1d84:	f0 94       	com	r15
    1d86:	12 ce       	rjmp	.-988    	; 0x19ac <cluster_b_tail_17>
    1d88:	00 95       	com	r16
    1d8a:	10 95       	com	r17
    1d8c:	0f ce       	rjmp	.-994    	; 0x19ac <cluster_b_tail_17>
    1d8e:	20 95       	com	r18
    1d90:	30 95       	com	r19
    1d92:	0c ce       	rjmp	.-1000   	; 0x19ac <cluster_b_tail_17>
    1d94:	40 95       	com	r20
    1d96:	50 95       	com	r21
    1d98:	09 ce       	rjmp	.-1006   	; 0x19ac <cluster_b_tail_17>
    1d9a:	60 95       	com	r22
    1d9c:	70 95       	com	r23
    1d9e:	06 ce       	rjmp	.-1012   	; 0x19ac <cluster_b_tail_17>
    1da0:	82 14       	cp	r8, r2
    1da2:	8f b7       	in	r24, 0x3f	; 63
    1da4:	10 ce       	rjmp	.-992    	; 0x19c6 <flags_commit_b_18_delay_1>
    1da6:	a2 14       	cp	r10, r2
    1da8:	8f b7       	in	r24, 0x3f	; 63
    1daa:	0d ce       	rjmp	.-998    	; 0x19c6 <flags_commit_b_18_delay_1>
    1dac:	c2 14       	cp	r12, r2
    1dae:	8f b7       	in	r24, 0x3f	; 63
    1db0:	0a ce       	rjmp	.-1004   	; 0x19c6 <flags_commit_b_18_delay_1>
    1db2:	e2 14       	cp	r14, r2
    1db4:	8f b7       	in	r24, 0x3f	; 63
    1db6:	07 ce       	rjmp	.-1010   	; 0x19c6 <flags_commit_b_18_delay_1>
    1db8:	02 15       	cp	r16, r2
    1dba:	8f b7       	in	r24, 0x3f	; 63
    1dbc:	04 ce       	rjmp	.-1016   	; 0x19c6 <flags_commit_b_18_delay_1>
    1dbe:	22 15       	cp	r18, r2
    1dc0:	8f b7       	in	r24, 0x3f	; 63
    1dc2:	01 ce       	rjmp	.-1022   	; 0x19c6 <flags_commit_b_18_delay_1>
    1dc4:	42 15       	cp	r20, r2
    1dc6:	8f b7       	in	r24, 0x3f	; 63
    1dc8:	fe cd       	rjmp	.-1028   	; 0x19c6 <flags_commit_b_18_delay_1>
    1dca:	62 15       	cp	r22, r2
    1dcc:	8f b7       	in	r24, 0x3f	; 63
    1dce:	fb cd       	rjmp	.-1034   	; 0x19c6 <flags_commit_b_18_delay_1>
    1dd0:	83 0c       	add	r8, r3
    1dd2:	92 1c       	adc	r9, r2
    1dd4:	eb cd       	rjmp	.-1066   	; 0x19ac <cluster_b_tail_17>
    1dd6:	a3 0c       	add	r10, r3
    1dd8:	b2 1c       	adc	r11, r2
    1dda:	e8 cd       	rjmp	.-1072   	; 0x19ac <cluster_b_tail_17>
    1ddc:	c3 0c       	add	r12, r3
    1dde:	d2 1c       	adc	r13, r2
    1de0:	e5 cd       	rjmp	.-1078   	; 0x19ac <cluster_b_tail_17>
    1de2:	e3 0c       	add	r14, r3
    1de4:	f2 1c       	adc	r15, r2
    1de6:	e2 cd       	rjmp	.-1084   	; 0x19ac <cluster_b_tail_17>
    1de8:	03 0d       	add	r16, r3
    1dea:	12 1d       	adc	r17, r2
    1dec:	df cd       	rjmp	.-1090   	; 0x19ac <cluster_b_tail_17>
    1dee:	23 0d       	add	r18, r3
    1df0:	32 1d       	adc	r19, r2
    1df2:	dc cd       	rjmp	.-1096   	; 0x19ac <cluster_b_tail_17>
    1df4:	43 0d       	add	r20, r3
    1df6:	52 1d       	adc	r21, r2
    1df8:	d9 cd       	rjmp	.-1102   	; 0x19ac <cluster_b_tail_17>
    1dfa:	63 0d       	add	r22, r3
    1dfc:	72 1d       	adc	r23, r2
    1dfe:	d6 cd       	rjmp	.-1108   	; 0x19ac <cluster_b_tail_17>
    1e00:	83 18       	sub	r8, r3
    1e02:	92 08       	sbc	r9, r2
    1e04:	d3 cd       	rjmp	.-1114   	; 0x19ac <cluster_b_tail_17>
    1e06:	a3 18       	sub	r10, r3
    1e08:	b2 08       	sbc	r11, r2
    1e0a:	d0 cd       	rjmp	.-1120   	; 0x19ac <cluster_b_tail_17>
    1e0c:	c3 18       	sub	r12, r3
    1e0e:	d2 08       	sbc	r13, r2
    1e10:	cd cd       	rjmp	.-1126   	; 0x19ac <cluster_b_tail_17>
    1e12:	e3 18       	sub	r14, r3
    1e14:	f2 08       	sbc	r15, r2
    1e16:	ca cd       	rjmp	.-1132   	; 0x19ac <cluster_b_tail_17>
    1e18:	03 19       	sub	r16, r3
    1e1a:	12 09       	sbc	r17, r2
    1e1c:	c7 cd       	rjmp	.-1138   	; 0x19ac <cluster_b_tail_17>
    1e1e:	23 19       	sub	r18, r3
    1e20:	32 09       	sbc	r19, r2
    1e22:	c4 cd       	rjmp	.-1144   	; 0x19ac <cluster_b_tail_17>
    1e24:	43 19       	sub	r20, r3
    1e26:	52 09       	sbc	r21, r2
    1e28:	c1 cd       	rjmp	.-1150   	; 0x19ac <cluster_b_tail_17>
    1e2a:	63 19       	sub	r22, r3
    1e2c:	72 09       	sbc	r23, r2
    1e2e:	be cd       	rjmp	.-1156   	; 0x19ac <cluster_b_tail_17>

00001e30 <f4_table_end>:
    1e30:	88 14       	cp	r8, r8
    1e32:	99 04       	cpc	r9, r9
    1e34:	8f b7       	in	r24, 0x3f	; 63
    1e36:	c7 cd       	rjmp	.-1138   	; 0x19c6 <flags_commit_b_18_delay_1>
    1e38:	8a 14       	cp	r8, r10
    1e3a:	9b 04       	cpc	r9, r11
    1e3c:	8f b7       	in	r24, 0x3f	; 63
    1e3e:	c3 cd       	rjmp	.-1146   	; 0x19c6 <flags_commit_b_18_delay_1>
    1e40:	8c 14       	cp	r8, r12
    1e42:	9d 04       	cpc	r9, r13
    1e44:	8f b7       	in	r24, 0x3f	; 63
    1e46:	bf cd       	rjmp	.-1154   	; 0x19c6 <flags_commit_b_18_delay_1>
    1e48:	8e 14       	cp	r8, r14
    1e4a:	9f 04       	cpc	r9, r15
    1e4c:	8f b7       	in	r24, 0x3f	; 63
    1e4e:	bb cd       	rjmp	.-1162   	; 0x19c6 <flags_commit_b_18_delay_1>
    1e50:	80 16       	cp	r8, r16
    1e52:	91 06       	cpc	r9, r17
    1e54:	8f b7       	in	r24, 0x3f	; 63
    1e56:	b7 cd       	rjmp	.-1170   	; 0x19c6 <flags_commit_b_18_delay_1>
    1e58:	82 16       	cp	r8, r18
    1e5a:	93 06       	cpc	r9, r19
    1e5c:	8f b7       	in	r24, 0x3f	; 63
    1e5e:	b3 cd       	rjmp	.-1178   	; 0x19c6 <flags_commit_b_18_delay_1>
    1e60:	84 16       	cp	r8, r20
    1e62:	95 06       	cpc	r9, r21
    1e64:	8f b7       	in	r24, 0x3f	; 63
    1e66:	af cd       	rjmp	.-1186   	; 0x19c6 <flags_commit_b_18_delay_1>
    1e68:	86 16       	cp	r8, r22
    1e6a:	97 06       	cpc	r9, r23
    1e6c:	8f b7       	in	r24, 0x3f	; 63
    1e6e:	ab cd       	rjmp	.-1194   	; 0x19c6 <flags_commit_b_18_delay_1>
    1e70:	a8 14       	cp	r10, r8
    1e72:	b9 04       	cpc	r11, r9
    1e74:	8f b7       	in	r24, 0x3f	; 63
    1e76:	a7 cd       	rjmp	.-1202   	; 0x19c6 <flags_commit_b_18_delay_1>
    1e78:	aa 14       	cp	r10, r10
    1e7a:	bb 04       	cpc	r11, r11
    1e7c:	8f b7       	in	r24, 0x3f	; 63
    1e7e:	a3 cd       	rjmp	.-1210   	; 0x19c6 <flags_commit_b_18_delay_1>
    1e80:	ac 14       	cp	r10, r12
    1e82:	bd 04       	cpc	r11, r13
    1e84:	8f b7       	in	r24, 0x3f	; 63
    1e86:	9f cd       	rjmp	.-1218   	; 0x19c6 <flags_commit_b_18_delay_1>
    1e88:	ae 14       	cp	r10, r14
    1e8a:	bf 04       	cpc	r11, r15
    1e8c:	8f b7       	in	r24, 0x3f	; 63
    1e8e:	9b cd       	rjmp	.-1226   	; 0x19c6 <flags_commit_b_18_delay_1>
    1e90:	a0 16       	cp	r10, r16
    1e92:	b1 06       	cpc	r11, r17
    1e94:	8f b7       	in	r24, 0x3f	; 63
    1e96:	97 cd       	rjmp	.-1234   	; 0x19c6 <flags_commit_b_18_delay_1>
    1e98:	a2 16       	cp	r10, r18
    1e9a:	b3 06       	cpc	r11, r19
    1e9c:	8f b7       	in	r24, 0x3f	; 63
    1e9e:	93 cd       	rjmp	.-1242   	; 0x19c6 <flags_commit_b_18_delay_1>
    1ea0:	a4 16       	cp	r10, r20
    1ea2:	b5 06       	cpc	r11, r21
    1ea4:	8f b7       	in	r24, 0x3f	; 63
    1ea6:	8f cd       	rjmp	.-1250   	; 0x19c6 <flags_commit_b_18_delay_1>
    1ea8:	a6 16       	cp	r10, r22
    1eaa:	b7 06       	cpc	r11, r23
    1eac:	8f b7       	in	r24, 0x3f	; 63
    1eae:	8b cd       	rjmp	.-1258   	; 0x19c6 <flags_commit_b_18_delay_1>
    1eb0:	c8 14       	cp	r12, r8
    1eb2:	d9 04       	cpc	r13, r9
    1eb4:	8f b7       	in	r24, 0x3f	; 63
    1eb6:	87 cd       	rjmp	.-1266   	; 0x19c6 <flags_commit_b_18_delay_1>
    1eb8:	ca 14       	cp	r12, r10
    1eba:	db 04       	cpc	r13, r11
    1ebc:	8f b7       	in	r24, 0x3f	; 63
    1ebe:	83 cd       	rjmp	.-1274   	; 0x19c6 <flags_commit_b_18_delay_1>
    1ec0:	cc 14       	cp	r12, r12
    1ec2:	dd 04       	cpc	r13, r13
    1ec4:	8f b7       	in	r24, 0x3f	; 63
    1ec6:	7f cd       	rjmp	.-1282   	; 0x19c6 <flags_commit_b_18_delay_1>
    1ec8:	ce 14       	cp	r12, r14
    1eca:	df 04       	cpc	r13, r15
    1ecc:	8f b7       	in	r24, 0x3f	; 63
    1ece:	7b cd       	rjmp	.-1290   	; 0x19c6 <flags_commit_b_18_delay_1>
    1ed0:	c0 16       	cp	r12, r16
    1ed2:	d1 06       	cpc	r13, r17
    1ed4:	8f b7       	in	r24, 0x3f	; 63
    1ed6:	77 cd       	rjmp	.-1298   	; 0x19c6 <flags_commit_b_18_delay_1>
    1ed8:	c2 16       	cp	r12, r18
    1eda:	d3 06       	cpc	r13, r19
    1edc:	8f b7       	in	r24, 0x3f	; 63
    1ede:	73 cd       	rjmp	.-1306   	; 0x19c6 <flags_commit_b_18_delay_1>
    1ee0:	c4 16       	cp	r12, r20
    1ee2:	d5 06       	cpc	r13, r21
    1ee4:	8f b7       	in	r24, 0x3f	; 63
    1ee6:	6f cd       	rjmp	.-1314   	; 0x19c6 <flags_commit_b_18_delay_1>
    1ee8:	c6 16       	cp	r12, r22
    1eea:	d7 06       	cpc	r13, r23
    1eec:	8f b7       	in	r24, 0x3f	; 63
    1eee:	6b cd       	rjmp	.-1322   	; 0x19c6 <flags_commit_b_18_delay_1>
    1ef0:	e8 14       	cp	r14, r8
    1ef2:	f9 04       	cpc	r15, r9
    1ef4:	8f b7       	in	r24, 0x3f	; 63
    1ef6:	67 cd       	rjmp	.-1330   	; 0x19c6 <flags_commit_b_18_delay_1>
    1ef8:	ea 14       	cp	r14, r10
    1efa:	fb 04       	cpc	r15, r11
    1efc:	8f b7       	in	r24, 0x3f	; 63
    1efe:	63 cd       	rjmp	.-1338   	; 0x19c6 <flags_commit_b_18_delay_1>
    1f00:	ec 14       	cp	r14, r12
    1f02:	fd 04       	cpc	r15, r13
    1f04:	8f b7       	in	r24, 0x3f	; 63
    1f06:	5f cd       	rjmp	.-1346   	; 0x19c6 <flags_commit_b_18_delay_1>
    1f08:	ee 14       	cp	r14, r14
    1f0a:	ff 04       	cpc	r15, r15
    1f0c:	8f b7       	in	r24, 0x3f	; 63
    1f0e:	5b cd       	rjmp	.-1354   	; 0x19c6 <flags_commit_b_18_delay_1>
    1f10:	e0 16       	cp	r14, r16
    1f12:	f1 06       	cpc	r15, r17
    1f14:	8f b7       	in	r24, 0x3f	; 63
    1f16:	57 cd       	rjmp	.-1362   	; 0x19c6 <flags_commit_b_18_delay_1>
    1f18:	e2 16       	cp	r14, r18
    1f1a:	f3 06       	cpc	r15, r19
    1f1c:	8f b7       	in	r24, 0x3f	; 63
    1f1e:	53 cd       	rjmp	.-1370   	; 0x19c6 <flags_commit_b_18_delay_1>
    1f20:	e4 16       	cp	r14, r20
    1f22:	f5 06       	cpc	r15, r21
    1f24:	8f b7       	in	r24, 0x3f	; 63
    1f26:	4f cd       	rjmp	.-1378   	; 0x19c6 <flags_commit_b_18_delay_1>
    1f28:	e6 16       	cp	r14, r22
    1f2a:	f7 06       	cpc	r15, r23
    1f2c:	8f b7       	in	r24, 0x3f	; 63
    1f2e:	4b cd       	rjmp	.-1386   	; 0x19c6 <flags_commit_b_18_delay_1>
    1f30:	08 15       	cp	r16, r8
    1f32:	19 05       	cpc	r17, r9
    1f34:	8f b7       	in	r24, 0x3f	; 63
    1f36:	47 cd       	rjmp	.-1394   	; 0x19c6 <flags_commit_b_18_delay_1>
    1f38:	0a 15       	cp	r16, r10
    1f3a:	1b 05       	cpc	r17, r11
    1f3c:	8f b7       	in	r24, 0x3f	; 63
    1f3e:	43 cd       	rjmp	.-1402   	; 0x19c6 <flags_commit_b_18_delay_1>
    1f40:	0c 15       	cp	r16, r12
    1f42:	1d 05       	cpc	r17, r13
    1f44:	8f b7       	in	r24, 0x3f	; 63
    1f46:	3f cd       	rjmp	.-1410   	; 0x19c6 <flags_commit_b_18_delay_1>
    1f48:	0e 15       	cp	r16, r14
    1f4a:	1f 05       	cpc	r17, r15
    1f4c:	8f b7       	in	r24, 0x3f	; 63
    1f4e:	3b cd       	rjmp	.-1418   	; 0x19c6 <flags_commit_b_18_delay_1>
    1f50:	28 15       	cp	r18, r8
    1f52:	39 05       	cpc	r19, r9
    1f54:	8f b7       	in	r24, 0x3f	; 63
    1f56:	37 cd       	rjmp	.-1426   	; 0x19c6 <flags_commit_b_18_delay_1>
    1f58:	2a 15       	cp	r18, r10
    1f5a:	3b 05       	cpc	r19, r11
    1f5c:	8f b7       	in	r24, 0x3f	; 63
    1f5e:	33 cd       	rjmp	.-1434   	; 0x19c6 <flags_commit_b_18_delay_1>
    1f60:	2c 15       	cp	r18, r12
    1f62:	3d 05       	cpc	r19, r13
    1f64:	8f b7       	in	r24, 0x3f	; 63
    1f66:	2f cd       	rjmp	.-1442   	; 0x19c6 <flags_commit_b_18_delay_1>
    1f68:	2e 15       	cp	r18, r14
    1f6a:	3f 05       	cpc	r19, r15
    1f6c:	8f b7       	in	r24, 0x3f	; 63
    1f6e:	2b cd       	rjmp	.-1450   	; 0x19c6 <flags_commit_b_18_delay_1>
    1f70:	48 15       	cp	r20, r8
    1f72:	59 05       	cpc	r21, r9
    1f74:	8f b7       	in	r24, 0x3f	; 63
    1f76:	27 cd       	rjmp	.-1458   	; 0x19c6 <flags_commit_b_18_delay_1>
    1f78:	4a 15       	cp	r20, r10
    1f7a:	5b 05       	cpc	r21, r11
    1f7c:	8f b7       	in	r24, 0x3f	; 63
    1f7e:	23 cd       	rjmp	.-1466   	; 0x19c6 <flags_commit_b_18_delay_1>
    1f80:	4c 15       	cp	r20, r12
    1f82:	5d 05       	cpc	r21, r13
    1f84:	8f b7       	in	r24, 0x3f	; 63
    1f86:	1f cd       	rjmp	.-1474   	; 0x19c6 <flags_commit_b_18_delay_1>
    1f88:	4e 15       	cp	r20, r14
    1f8a:	5f 05       	cpc	r21, r15
    1f8c:	8f b7       	in	r24, 0x3f	; 63
    1f8e:	1b cd       	rjmp	.-1482   	; 0x19c6 <flags_commit_b_18_delay_1>
    1f90:	68 15       	cp	r22, r8
    1f92:	79 05       	cpc	r23, r9
    1f94:	8f b7       	in	r24, 0x3f	; 63
    1f96:	17 cd       	rjmp	.-1490   	; 0x19c6 <flags_commit_b_18_delay_1>
    1f98:	6a 15       	cp	r22, r10
    1f9a:	7b 05       	cpc	r23, r11
    1f9c:	8f b7       	in	r24, 0x3f	; 63
    1f9e:	13 cd       	rjmp	.-1498   	; 0x19c6 <flags_commit_b_18_delay_1>
    1fa0:	6c 15       	cp	r22, r12
    1fa2:	7d 05       	cpc	r23, r13
    1fa4:	8f b7       	in	r24, 0x3f	; 63
    1fa6:	0f cd       	rjmp	.-1506   	; 0x19c6 <flags_commit_b_18_delay_1>
    1fa8:	6e 15       	cp	r22, r14
    1faa:	7f 05       	cpc	r23, r15
    1fac:	8f b7       	in	r24, 0x3f	; 63
    1fae:	0b cd       	rjmp	.-1514   	; 0x19c6 <flags_commit_b_18_delay_1>
    1fb0:	d8 01       	movw	r26, r16
    1fb2:	8c 90       	ld	r8, X
    1fb4:	99 24       	eor	r9, r9
    1fb6:	09 cd       	rjmp	.-1518   	; 0x19ca <cluster_b_tail>
    1fb8:	d8 01       	movw	r26, r16
    1fba:	ac 90       	ld	r10, X
    1fbc:	bb 24       	eor	r11, r11
    1fbe:	05 cd       	rjmp	.-1526   	; 0x19ca <cluster_b_tail>
    1fc0:	d8 01       	movw	r26, r16
    1fc2:	cc 90       	ld	r12, X
    1fc4:	dd 24       	eor	r13, r13
    1fc6:	01 cd       	rjmp	.-1534   	; 0x19ca <cluster_b_tail>
    1fc8:	d8 01       	movw	r26, r16
    1fca:	ec 90       	ld	r14, X
    1fcc:	ff 24       	eor	r15, r15
    1fce:	fd cc       	rjmp	.-1542   	; 0x19ca <cluster_b_tail>
    1fd0:	d9 01       	movw	r26, r18
    1fd2:	8c 90       	ld	r8, X
    1fd4:	99 24       	eor	r9, r9
    1fd6:	f9 cc       	rjmp	.-1550   	; 0x19ca <cluster_b_tail>
    1fd8:	d9 01       	movw	r26, r18
    1fda:	ac 90       	ld	r10, X
    1fdc:	bb 24       	eor	r11, r11
    1fde:	f5 cc       	rjmp	.-1558   	; 0x19ca <cluster_b_tail>
    1fe0:	d9 01       	movw	r26, r18
    1fe2:	cc 90       	ld	r12, X
    1fe4:	dd 24       	eor	r13, r13
    1fe6:	f1 cc       	rjmp	.-1566   	; 0x19ca <cluster_b_tail>
    1fe8:	d9 01       	movw	r26, r18
    1fea:	ec 90       	ld	r14, X
    1fec:	ff 24       	eor	r15, r15
    1fee:	ed cc       	rjmp	.-1574   	; 0x19ca <cluster_b_tail>
    1ff0:	da 01       	movw	r26, r20
    1ff2:	8c 90       	ld	r8, X
    1ff4:	99 24       	eor	r9, r9
    1ff6:	e9 cc       	rjmp	.-1582   	; 0x19ca <cluster_b_tail>
    1ff8:	da 01       	movw	r26, r20
    1ffa:	ac 90       	ld	r10, X
    1ffc:	bb 24       	eor	r11, r11
    1ffe:	e5 cc       	rjmp	.-1590   	; 0x19ca <cluster_b_tail>
    2000:	da 01       	movw	r26, r20
    2002:	cc 90       	ld	r12, X
    2004:	dd 24       	eor	r13, r13
    2006:	e1 cc       	rjmp	.-1598   	; 0x19ca <cluster_b_tail>
    2008:	da 01       	movw	r26, r20
    200a:	ec 90       	ld	r14, X
    200c:	ff 24       	eor	r15, r15
    200e:	dd cc       	rjmp	.-1606   	; 0x19ca <cluster_b_tail>
    2010:	db 01       	movw	r26, r22
    2012:	8c 90       	ld	r8, X
    2014:	99 24       	eor	r9, r9
    2016:	d9 cc       	rjmp	.-1614   	; 0x19ca <cluster_b_tail>
    2018:	db 01       	movw	r26, r22
    201a:	ac 90       	ld	r10, X
    201c:	bb 24       	eor	r11, r11
    201e:	d5 cc       	rjmp	.-1622   	; 0x19ca <cluster_b_tail>
    2020:	db 01       	movw	r26, r22
    2022:	cc 90       	ld	r12, X
    2024:	dd 24       	eor	r13, r13
    2026:	d1 cc       	rjmp	.-1630   	; 0x19ca <cluster_b_tail>
    2028:	db 01       	movw	r26, r22
    202a:	ec 90       	ld	r14, X
    202c:	ff 24       	eor	r15, r15
    202e:	cd cc       	rjmp	.-1638   	; 0x19ca <cluster_b_tail>
    2030:	d8 01       	movw	r26, r16
    2032:	8d 90       	ld	r8, X+
    2034:	9c 90       	ld	r9, X
    2036:	c9 cc       	rjmp	.-1646   	; 0x19ca <cluster_b_tail>
    2038:	d8 01       	movw	r26, r16
    203a:	ad 90       	ld	r10, X+
    203c:	bc 90       	ld	r11, X
    203e:	c5 cc       	rjmp	.-1654   	; 0x19ca <cluster_b_tail>
    2040:	d8 01       	movw	r26, r16
    2042:	cd 90       	ld	r12, X+
    2044:	dc 90       	ld	r13, X
    2046:	c1 cc       	rjmp	.-1662   	; 0x19ca <cluster_b_tail>
    2048:	d8 01       	movw	r26, r16
    204a:	ed 90       	ld	r14, X+
    204c:	fc 90       	ld	r15, X
    204e:	bd cc       	rjmp	.-1670   	; 0x19ca <cluster_b_tail>
    2050:	d9 01       	movw	r26, r18
    2052:	8d 90       	ld	r8, X+
    2054:	9c 90       	ld	r9, X
    2056:	b9 cc       	rjmp	.-1678   	; 0x19ca <cluster_b_tail>
    2058:	d9 01       	movw	r26, r18
    205a:	ad 90       	ld	r10, X+
    205c:	bc 90       	ld	r11, X
    205e:	b5 cc       	rjmp	.-1686   	; 0x19ca <cluster_b_tail>
    2060:	d9 01       	movw	r26, r18
    2062:	cd 90       	ld	r12, X+
    2064:	dc 90       	ld	r13, X
    2066:	b1 cc       	rjmp	.-1694   	; 0x19ca <cluster_b_tail>
    2068:	d9 01       	movw	r26, r18
    206a:	ed 90       	ld	r14, X+
    206c:	fc 90       	ld	r15, X
    206e:	ad cc       	rjmp	.-1702   	; 0x19ca <cluster_b_tail>
    2070:	da 01       	movw	r26, r20
    2072:	8d 90       	ld	r8, X+
    2074:	9c 90       	ld	r9, X
    2076:	a9 cc       	rjmp	.-1710   	; 0x19ca <cluster_b_tail>
    2078:	da 01       	movw	r26, r20
    207a:	ad 90       	ld	r10, X+
    207c:	bc 90       	ld	r11, X
    207e:	a5 cc       	rjmp	.-1718   	; 0x19ca <cluster_b_tail>
    2080:	da 01       	movw	r26, r20
    2082:	cd 90       	ld	r12, X+
    2084:	dc 90       	ld	r13, X
    2086:	a1 cc       	rjmp	.-1726   	; 0x19ca <cluster_b_tail>
    2088:	da 01       	movw	r26, r20
    208a:	ed 90       	ld	r14, X+
    208c:	fc 90       	ld	r15, X
    208e:	9d cc       	rjmp	.-1734   	; 0x19ca <cluster_b_tail>
    2090:	db 01       	movw	r26, r22
    2092:	8d 90       	ld	r8, X+
    2094:	9c 90       	ld	r9, X
    2096:	99 cc       	rjmp	.-1742   	; 0x19ca <cluster_b_tail>
    2098:	db 01       	movw	r26, r22
    209a:	ad 90       	ld	r10, X+
    209c:	bc 90       	ld	r11, X
    209e:	95 cc       	rjmp	.-1750   	; 0x19ca <cluster_b_tail>
    20a0:	db 01       	movw	r26, r22
    20a2:	cd 90       	ld	r12, X+
    20a4:	dc 90       	ld	r13, X
    20a6:	91 cc       	rjmp	.-1758   	; 0x19ca <cluster_b_tail>
    20a8:	db 01       	movw	r26, r22
    20aa:	ed 90       	ld	r14, X+
    20ac:	fc 90       	ld	r15, X
    20ae:	8d cc       	rjmp	.-1766   	; 0x19ca <cluster_b_tail>
    20b0:	d8 01       	movw	r26, r16
    20b2:	8d 92       	st	X+, r8
    20b4:	9c 92       	st	X, r9
    20b6:	89 cc       	rjmp	.-1774   	; 0x19ca <cluster_b_tail>
    20b8:	d8 01       	movw	r26, r16
    20ba:	ad 92       	st	X+, r10
    20bc:	bc 92       	st	X, r11
    20be:	85 cc       	rjmp	.-1782   	; 0x19ca <cluster_b_tail>
    20c0:	d8 01       	movw	r26, r16
    20c2:	cd 92       	st	X+, r12
    20c4:	dc 92       	st	X, r13
    20c6:	81 cc       	rjmp	.-1790   	; 0x19ca <cluster_b_tail>
    20c8:	d8 01       	movw	r26, r16
    20ca:	ed 92       	st	X+, r14
    20cc:	fc 92       	st	X, r15
    20ce:	7d cc       	rjmp	.-1798   	; 0x19ca <cluster_b_tail>
    20d0:	d9 01       	movw	r26, r18
    20d2:	8d 92       	st	X+, r8
    20d4:	9c 92       	st	X, r9
    20d6:	79 cc       	rjmp	.-1806   	; 0x19ca <cluster_b_tail>
    20d8:	d9 01       	movw	r26, r18
    20da:	ad 92       	st	X+, r10
    20dc:	bc 92       	st	X, r11
    20de:	75 cc       	rjmp	.-1814   	; 0x19ca <cluster_b_tail>
    20e0:	d9 01       	movw	r26, r18
    20e2:	cd 92       	st	X+, r12
    20e4:	dc 92       	st	X, r13
    20e6:	71 cc       	rjmp	.-1822   	; 0x19ca <cluster_b_tail>
    20e8:	d9 01       	movw	r26, r18
    20ea:	ed 92       	st	X+, r14
    20ec:	fc 92       	st	X, r15
    20ee:	6d cc       	rjmp	.-1830   	; 0x19ca <cluster_b_tail>
    20f0:	da 01       	movw	r26, r20
    20f2:	8d 92       	st	X+, r8
    20f4:	9c 92       	st	X, r9
    20f6:	69 cc       	rjmp	.-1838   	; 0x19ca <cluster_b_tail>
    20f8:	da 01       	movw	r26, r20
    20fa:	ad 92       	st	X+, r10
    20fc:	bc 92       	st	X, r11
    20fe:	65 cc       	rjmp	.-1846   	; 0x19ca <cluster_b_tail>
    2100:	da 01       	movw	r26, r20
    2102:	cd 92       	st	X+, r12
    2104:	dc 92       	st	X, r13
    2106:	61 cc       	rjmp	.-1854   	; 0x19ca <cluster_b_tail>
    2108:	da 01       	movw	r26, r20
    210a:	ed 92       	st	X+, r14
    210c:	fc 92       	st	X, r15
    210e:	5d cc       	rjmp	.-1862   	; 0x19ca <cluster_b_tail>
    2110:	db 01       	movw	r26, r22
    2112:	8d 92       	st	X+, r8
    2114:	9c 92       	st	X, r9
    2116:	59 cc       	rjmp	.-1870   	; 0x19ca <cluster_b_tail>
    2118:	db 01       	movw	r26, r22
    211a:	ad 92       	st	X+, r10
    211c:	bc 92       	st	X, r11
    211e:	55 cc       	rjmp	.-1878   	; 0x19ca <cluster_b_tail>
    2120:	db 01       	movw	r26, r22
    2122:	cd 92       	st	X+, r12
    2124:	dc 92       	st	X, r13
    2126:	51 cc       	rjmp	.-1886   	; 0x19ca <cluster_b_tail>
    2128:	db 01       	movw	r26, r22
    212a:	ed 92       	st	X+, r14
    212c:	fc 92       	st	X, r15
    212e:	4d cc       	rjmp	.-1894   	; 0x19ca <cluster_b_tail>

00002130 <f5_table_end>:
    2130:	d8 01       	movw	r26, r16
    2132:	8d 92       	st	X+, r8
    2134:	8d 01       	movw	r16, r26
    2136:	49 cc       	rjmp	.-1902   	; 0x19ca <cluster_b_tail>
    2138:	d8 01       	movw	r26, r16
    213a:	ad 92       	st	X+, r10
    213c:	8d 01       	movw	r16, r26
    213e:	45 cc       	rjmp	.-1910   	; 0x19ca <cluster_b_tail>
    2140:	d8 01       	movw	r26, r16
    2142:	cd 92       	st	X+, r12
    2144:	8d 01       	movw	r16, r26
    2146:	41 cc       	rjmp	.-1918   	; 0x19ca <cluster_b_tail>
    2148:	d8 01       	movw	r26, r16
    214a:	ed 92       	st	X+, r14
    214c:	8d 01       	movw	r16, r26
    214e:	3d cc       	rjmp	.-1926   	; 0x19ca <cluster_b_tail>
    2150:	d8 01       	movw	r26, r16
    2152:	0d 93       	st	X+, r16
    2154:	8d 01       	movw	r16, r26
    2156:	39 cc       	rjmp	.-1934   	; 0x19ca <cluster_b_tail>
    2158:	d8 01       	movw	r26, r16
    215a:	2d 93       	st	X+, r18
    215c:	8d 01       	movw	r16, r26
    215e:	35 cc       	rjmp	.-1942   	; 0x19ca <cluster_b_tail>
    2160:	d8 01       	movw	r26, r16
    2162:	4d 93       	st	X+, r20
    2164:	8d 01       	movw	r16, r26
    2166:	31 cc       	rjmp	.-1950   	; 0x19ca <cluster_b_tail>
    2168:	d8 01       	movw	r26, r16
    216a:	6d 93       	st	X+, r22
    216c:	8d 01       	movw	r16, r26
    216e:	2d cc       	rjmp	.-1958   	; 0x19ca <cluster_b_tail>
    2170:	d9 01       	movw	r26, r18
    2172:	8d 92       	st	X+, r8
    2174:	9d 01       	movw	r18, r26
    2176:	29 cc       	rjmp	.-1966   	; 0x19ca <cluster_b_tail>
    2178:	d9 01       	movw	r26, r18
    217a:	ad 92       	st	X+, r10
    217c:	9d 01       	movw	r18, r26
    217e:	25 cc       	rjmp	.-1974   	; 0x19ca <cluster_b_tail>
    2180:	d9 01       	movw	r26, r18
    2182:	cd 92       	st	X+, r12
    2184:	9d 01       	movw	r18, r26
    2186:	21 cc       	rjmp	.-1982   	; 0x19ca <cluster_b_tail>
    2188:	d9 01       	movw	r26, r18
    218a:	ed 92       	st	X+, r14
    218c:	9d 01       	movw	r18, r26
    218e:	1d cc       	rjmp	.-1990   	; 0x19ca <cluster_b_tail>
    2190:	d9 01       	movw	r26, r18
    2192:	0d 93       	st	X+, r16
    2194:	9d 01       	movw	r18, r26
    2196:	19 cc       	rjmp	.-1998   	; 0x19ca <cluster_b_tail>
    2198:	d9 01       	movw	r26, r18
    219a:	2d 93       	st	X+, r18
    219c:	9d 01       	movw	r18, r26
    219e:	15 cc       	rjmp	.-2006   	; 0x19ca <cluster_b_tail>
    21a0:	d9 01       	movw	r26, r18
    21a2:	4d 93       	st	X+, r20
    21a4:	9d 01       	movw	r18, r26
    21a6:	11 cc       	rjmp	.-2014   	; 0x19ca <cluster_b_tail>
    21a8:	d9 01       	movw	r26, r18
    21aa:	6d 93       	st	X+, r22
    21ac:	9d 01       	movw	r18, r26
    21ae:	0d cc       	rjmp	.-2022   	; 0x19ca <cluster_b_tail>
    21b0:	da 01       	movw	r26, r20
    21b2:	8d 92       	st	X+, r8
    21b4:	ad 01       	movw	r20, r26
    21b6:	09 cc       	rjmp	.-2030   	; 0x19ca <cluster_b_tail>
    21b8:	da 01       	movw	r26, r20
    21ba:	ad 92       	st	X+, r10
    21bc:	ad 01       	movw	r20, r26
    21be:	05 cc       	rjmp	.-2038   	; 0x19ca <cluster_b_tail>
    21c0:	da 01       	movw	r26, r20
    21c2:	cd 92       	st	X+, r12
    21c4:	ad 01       	movw	r20, r26
    21c6:	01 cc       	rjmp	.-2046   	; 0x19ca <cluster_b_tail>
    21c8:	da 01       	movw	r26, r20
    21ca:	ed 92       	st	X+, r14
    21cc:	ad 01       	movw	r20, r26
    21ce:	fd cb       	rjmp	.-2054   	; 0x19ca <cluster_b_tail>
    21d0:	da 01       	movw	r26, r20
    21d2:	0d 93       	st	X+, r16
    21d4:	ad 01       	movw	r20, r26
    21d6:	f9 cb       	rjmp	.-2062   	; 0x19ca <cluster_b_tail>
    21d8:	da 01       	movw	r26, r20
    21da:	2d 93       	st	X+, r18
    21dc:	ad 01       	movw	r20, r26
    21de:	f5 cb       	rjmp	.-2070   	; 0x19ca <cluster_b_tail>
    21e0:	da 01       	movw	r26, r20
    21e2:	4d 93       	st	X+, r20
    21e4:	ad 01       	movw	r20, r26
    21e6:	f1 cb       	rjmp	.-2078   	; 0x19ca <cluster_b_tail>
    21e8:	da 01       	movw	r26, r20
    21ea:	6d 93       	st	X+, r22
    21ec:	ad 01       	movw	r20, r26
    21ee:	ed cb       	rjmp	.-2086   	; 0x19ca <cluster_b_tail>
    21f0:	db 01       	movw	r26, r22
    21f2:	8d 92       	st	X+, r8
    21f4:	bd 01       	movw	r22, r26
    21f6:	e9 cb       	rjmp	.-2094   	; 0x19ca <cluster_b_tail>
    21f8:	db 01       	movw	r26, r22
    21fa:	ad 92       	st	X+, r10
    21fc:	bd 01       	movw	r22, r26
    21fe:	e5 cb       	rjmp	.-2102   	; 0x19ca <cluster_b_tail>
    2200:	db 01       	movw	r26, r22
    2202:	cd 92       	st	X+, r12
    2204:	bd 01       	movw	r22, r26
    2206:	e1 cb       	rjmp	.-2110   	; 0x19ca <cluster_b_tail>
    2208:	db 01       	movw	r26, r22
    220a:	ed 92       	st	X+, r14
    220c:	bd 01       	movw	r22, r26
    220e:	dd cb       	rjmp	.-2118   	; 0x19ca <cluster_b_tail>
    2210:	db 01       	movw	r26, r22
    2212:	0d 93       	st	X+, r16
    2214:	bd 01       	movw	r22, r26
    2216:	d9 cb       	rjmp	.-2126   	; 0x19ca <cluster_b_tail>
    2218:	db 01       	movw	r26, r22
    221a:	2d 93       	st	X+, r18
    221c:	bd 01       	movw	r22, r26
    221e:	d5 cb       	rjmp	.-2134   	; 0x19ca <cluster_b_tail>
    2220:	db 01       	movw	r26, r22
    2222:	4d 93       	st	X+, r20
    2224:	bd 01       	movw	r22, r26
    2226:	d1 cb       	rjmp	.-2142   	; 0x19ca <cluster_b_tail>
    2228:	db 01       	movw	r26, r22
    222a:	6d 93       	st	X+, r22
    222c:	bd 01       	movw	r22, r26
    222e:	cd cb       	rjmp	.-2150   	; 0x19ca <cluster_b_tail>
    2230:	88 2d       	mov	r24, r8
    2232:	89 2c       	mov	r8, r9
    2234:	98 2e       	mov	r9, r24
    2236:	c8 cb       	rjmp	.-2160   	; 0x19c8 <cluster_b_tail_18_delay_1>
    2238:	8a 2d       	mov	r24, r10
    223a:	ab 2c       	mov	r10, r11
    223c:	b8 2e       	mov	r11, r24
    223e:	c4 cb       	rjmp	.-2168   	; 0x19c8 <cluster_b_tail_18_delay_1>
    2240:	8c 2d       	mov	r24, r12
    2242:	cd 2c       	mov	r12, r13
    2244:	d8 2e       	mov	r13, r24
    2246:	c0 cb       	rjmp	.-2176   	; 0x19c8 <cluster_b_tail_18_delay_1>
    2248:	8e 2d       	mov	r24, r14
    224a:	ef 2c       	mov	r14, r15
    224c:	f8 2e       	mov	r15, r24
    224e:	bc cb       	rjmp	.-2184   	; 0x19c8 <cluster_b_tail_18_delay_1>
    2250:	80 2f       	mov	r24, r16
    2252:	01 2f       	mov	r16, r17
    2254:	18 2f       	mov	r17, r24
    2256:	b8 cb       	rjmp	.-2192   	; 0x19c8 <cluster_b_tail_18_delay_1>
    2258:	82 2f       	mov	r24, r18
    225a:	23 2f       	mov	r18, r19
    225c:	38 2f       	mov	r19, r24
    225e:	b4 cb       	rjmp	.-2200   	; 0x19c8 <cluster_b_tail_18_delay_1>
    2260:	84 2f       	mov	r24, r20
    2262:	45 2f       	mov	r20, r21
    2264:	58 2f       	mov	r21, r24
    2266:	b0 cb       	rjmp	.-2208   	; 0x19c8 <cluster_b_tail_18_delay_1>
    2268:	86 2f       	mov	r24, r22
    226a:	67 2f       	mov	r22, r23
    226c:	78 2f       	mov	r23, r24
    226e:	ac cb       	rjmp	.-2216   	; 0x19c8 <cluster_b_tail_18_delay_1>
    2270:	82 14       	cp	r8, r2
    2272:	92 04       	cpc	r9, r2
    2274:	8f b7       	in	r24, 0x3f	; 63
    2276:	a7 cb       	rjmp	.-2226   	; 0x19c6 <flags_commit_b_18_delay_1>
    2278:	a2 14       	cp	r10, r2
    227a:	b2 04       	cpc	r11, r2
    227c:	8f b7       	in	r24, 0x3f	; 63
    227e:	a3 cb       	rjmp	.-2234   	; 0x19c6 <flags_commit_b_18_delay_1>
    2280:	c2 14       	cp	r12, r2
    2282:	d2 04       	cpc	r13, r2
    2284:	8f b7       	in	r24, 0x3f	; 63
    2286:	9f cb       	rjmp	.-2242   	; 0x19c6 <flags_commit_b_18_delay_1>
    2288:	e2 14       	cp	r14, r2
    228a:	f2 04       	cpc	r15, r2
    228c:	8f b7       	in	r24, 0x3f	; 63
    228e:	9b cb       	rjmp	.-2250   	; 0x19c6 <flags_commit_b_18_delay_1>
    2290:	02 15       	cp	r16, r2
    2292:	12 05       	cpc	r17, r2
    2294:	8f b7       	in	r24, 0x3f	; 63
    2296:	97 cb       	rjmp	.-2258   	; 0x19c6 <flags_commit_b_18_delay_1>
    2298:	22 15       	cp	r18, r2
    229a:	32 05       	cpc	r19, r2
    229c:	8f b7       	in	r24, 0x3f	; 63
    229e:	93 cb       	rjmp	.-2266   	; 0x19c6 <flags_commit_b_18_delay_1>
    22a0:	42 15       	cp	r20, r2
    22a2:	52 05       	cpc	r21, r2
    22a4:	8f b7       	in	r24, 0x3f	; 63
    22a6:	8f cb       	rjmp	.-2274   	; 0x19c6 <flags_commit_b_18_delay_1>
    22a8:	62 15       	cp	r22, r2
    22aa:	72 05       	cpc	r23, r2
    22ac:	8f b7       	in	r24, 0x3f	; 63
    22ae:	8b cb       	rjmp	.-2282   	; 0x19c6 <flags_commit_b_18_delay_1>
    22b0:	00 9f       	mul	r16, r16
    22b2:	00 2d       	mov	r16, r0
    22b4:	11 27       	eor	r17, r17
    22b6:	89 cb       	rjmp	.-2286   	; 0x19ca <cluster_b_tail>
    22b8:	02 9f       	mul	r16, r18
    22ba:	00 2d       	mov	r16, r0
    22bc:	11 27       	eor	r17, r17
    22be:	85 cb       	rjmp	.-2294   	; 0x19ca <cluster_b_tail>
    22c0:	04 9f       	mul	r16, r20
    22c2:	00 2d       	mov	r16, r0
    22c4:	11 27       	eor	r17, r17
    22c6:	81 cb       	rjmp	.-2302   	; 0x19ca <cluster_b_tail>
    22c8:	06 9f       	mul	r16, r22
    22ca:	00 2d       	mov	r16, r0
    22cc:	11 27       	eor	r17, r17
    22ce:	7d cb       	rjmp	.-2310   	; 0x19ca <cluster_b_tail>
    22d0:	20 9f       	mul	r18, r16
    22d2:	20 2d       	mov	r18, r0
    22d4:	33 27       	eor	r19, r19
    22d6:	79 cb       	rjmp	.-2318   	; 0x19ca <cluster_b_tail>
    22d8:	22 9f       	mul	r18, r18
    22da:	20 2d       	mov	r18, r0
    22dc:	33 27       	eor	r19, r19
    22de:	75 cb       	rjmp	.-2326   	; 0x19ca <cluster_b_tail>
    22e0:	24 9f       	mul	r18, r20
    22e2:	20 2d       	mov	r18, r0
    22e4:	33 27       	eor	r19, r19
    22e6:	71 cb       	rjmp	.-2334   	; 0x19ca <cluster_b_tail>
    22e8:	26 9f       	mul	r18, r22
    22ea:	20 2d       	mov	r18, r0
    22ec:	33 27       	eor	r19, r19
    22ee:	6d cb       	rjmp	.-2342   	; 0x19ca <cluster_b_tail>
    22f0:	40 9f       	mul	r20, r16
    22f2:	40 2d       	mov	r20, r0
    22f4:	55 27       	eor	r21, r21
    22f6:	69 cb       	rjmp	.-2350   	; 0x19ca <cluster_b_tail>
    22f8:	42 9f       	mul	r20, r18
    22fa:	40 2d       	mov	r20, r0
    22fc:	55 27       	eor	r21, r21
    22fe:	65 cb       	rjmp	.-2358   	; 0x19ca <cluster_b_tail>
    2300:	44 9f       	mul	r20, r20
    2302:	40 2d       	mov	r20, r0
    2304:	55 27       	eor	r21, r21
    2306:	61 cb       	rjmp	.-2366   	; 0x19ca <cluster_b_tail>
    2308:	46 9f       	mul	r20, r22
    230a:	40 2d       	mov	r20, r0
    230c:	55 27       	eor	r21, r21
    230e:	5d cb       	rjmp	.-2374   	; 0x19ca <cluster_b_tail>
    2310:	60 9f       	mul	r22, r16
    2312:	60 2d       	mov	r22, r0
    2314:	77 27       	eor	r23, r23
    2316:	59 cb       	rjmp	.-2382   	; 0x19ca <cluster_b_tail>
    2318:	62 9f       	mul	r22, r18
    231a:	60 2d       	mov	r22, r0
    231c:	77 27       	eor	r23, r23
    231e:	55 cb       	rjmp	.-2390   	; 0x19ca <cluster_b_tail>
    2320:	64 9f       	mul	r22, r20
    2322:	60 2d       	mov	r22, r0
    2324:	77 27       	eor	r23, r23
    2326:	51 cb       	rjmp	.-2398   	; 0x19ca <cluster_b_tail>
    2328:	66 9f       	mul	r22, r22
    232a:	60 2d       	mov	r22, r0
    232c:	77 27       	eor	r23, r23
    232e:	4d cb       	rjmp	.-2406   	; 0x19ca <cluster_b_tail>
    2330:	99 24       	eor	r9, r9
    2332:	87 fc       	sbrc	r8, 7
    2334:	9a 94       	dec	r9
    2336:	48 cb       	rjmp	.-2416   	; 0x19c8 <cluster_b_tail_18_delay_1>
    2338:	bb 24       	eor	r11, r11
    233a:	a7 fc       	sbrc	r10, 7
    233c:	ba 94       	dec	r11
    233e:	44 cb       	rjmp	.-2424   	; 0x19c8 <cluster_b_tail_18_delay_1>
    2340:	dd 24       	eor	r13, r13
    2342:	c7 fc       	sbrc	r12, 7
    2344:	da 94       	dec	r13
    2346:	40 cb       	rjmp	.-2432   	; 0x19c8 <cluster_b_tail_18_delay_1>
    2348:	ff 24       	eor	r15, r15
    234a:	e7 fc       	sbrc	r14, 7
    234c:	fa 94       	dec	r15
    234e:	3c cb       	rjmp	.-2440   	; 0x19c8 <cluster_b_tail_18_delay_1>
    2350:	11 27       	eor	r17, r17
    2352:	07 fd       	sbrc	r16, 7
    2354:	1a 95       	dec	r17
    2356:	38 cb       	rjmp	.-2448   	; 0x19c8 <cluster_b_tail_18_delay_1>
    2358:	33 27       	eor	r19, r19
    235a:	27 fd       	sbrc	r18, 7
    235c:	3a 95       	dec	r19
    235e:	34 cb       	rjmp	.-2456   	; 0x19c8 <cluster_b_tail_18_delay_1>
    2360:	55 27       	eor	r21, r21
    2362:	47 fd       	sbrc	r20, 7
    2364:	5a 95       	dec	r21
    2366:	30 cb       	rjmp	.-2464   	; 0x19c8 <cluster_b_tail_18_delay_1>
    2368:	77 27       	eor	r23, r23
    236a:	67 fd       	sbrc	r22, 7
    236c:	7a 95       	dec	r23
    236e:	2c cb       	rjmp	.-2472   	; 0x19c8 <cluster_b_tail_18_delay_1>
    2370:	81 94       	neg	r8
    2372:	92 1c       	adc	r9, r2
    2374:	91 94       	neg	r9
    2376:	28 cb       	rjmp	.-2480   	; 0x19c8 <cluster_b_tail_18_delay_1>
    2378:	a1 94       	neg	r10
    237a:	b2 1c       	adc	r11, r2
    237c:	b1 94       	neg	r11
    237e:	24 cb       	rjmp	.-2488   	; 0x19c8 <cluster_b_tail_18_delay_1>
    2380:	c1 94       	neg	r12
    2382:	d2 1c       	adc	r13, r2
    2384:	d1 94       	neg	r13
    2386:	20 cb       	rjmp	.-2496   	; 0x19c8 <cluster_b_tail_18_delay_1>
    2388:	e1 94       	neg	r14
    238a:	f2 1c       	adc	r15, r2
    238c:	f1 94       	neg	r15
    238e:	1c cb       	rjmp	.-2504   	; 0x19c8 <cluster_b_tail_18_delay_1>
    2390:	01 95       	neg	r16
    2392:	12 1d       	adc	r17, r2
    2394:	11 95       	neg	r17
    2396:	18 cb       	rjmp	.-2512   	; 0x19c8 <cluster_b_tail_18_delay_1>
    2398:	21 95       	neg	r18
    239a:	32 1d       	adc	r19, r2
    239c:	31 95       	neg	r19
    239e:	14 cb       	rjmp	.-2520   	; 0x19c8 <cluster_b_tail_18_delay_1>
    23a0:	41 95       	neg	r20
    23a2:	52 1d       	adc	r21, r2
    23a4:	51 95       	neg	r21
    23a6:	10 cb       	rjmp	.-2528   	; 0x19c8 <cluster_b_tail_18_delay_1>
    23a8:	61 95       	neg	r22
    23aa:	72 1d       	adc	r23, r2
    23ac:	71 95       	neg	r23
    23ae:	0c cb       	rjmp	.-2536   	; 0x19c8 <cluster_b_tail_18_delay_1>

000023b0 <f6_table_end>:
    23b0:	d8 01       	movw	r26, r16
    23b2:	8d 90       	ld	r8, X+
    23b4:	8d 01       	movw	r16, r26
    23b6:	99 24       	eor	r9, r9
    23b8:	d9 c2       	rjmp	.+1458   	; 0x296c <cluster_c_tail>
    23ba:	d8 01       	movw	r26, r16
    23bc:	ad 90       	ld	r10, X+
    23be:	8d 01       	movw	r16, r26
    23c0:	bb 24       	eor	r11, r11
    23c2:	d4 c2       	rjmp	.+1448   	; 0x296c <cluster_c_tail>
    23c4:	d8 01       	movw	r26, r16
    23c6:	cd 90       	ld	r12, X+
    23c8:	8d 01       	movw	r16, r26
    23ca:	dd 24       	eor	r13, r13
    23cc:	cf c2       	rjmp	.+1438   	; 0x296c <cluster_c_tail>
    23ce:	d8 01       	movw	r26, r16
    23d0:	ed 90       	ld	r14, X+
    23d2:	8d 01       	movw	r16, r26
    23d4:	ff 24       	eor	r15, r15
    23d6:	ca c2       	rjmp	.+1428   	; 0x296c <cluster_c_tail>
    23d8:	02 cb       	rjmp	.-2556   	; 0x19de <secondary_invalid_b_func>
    23da:	00 00       	nop
    23dc:	00 00       	nop
    23de:	00 00       	nop
    23e0:	00 00       	nop
    23e2:	d8 01       	movw	r26, r16
    23e4:	2d 91       	ld	r18, X+
    23e6:	8d 01       	movw	r16, r26
    23e8:	33 27       	eor	r19, r19
    23ea:	c0 c2       	rjmp	.+1408   	; 0x296c <cluster_c_tail>
    23ec:	d8 01       	movw	r26, r16
    23ee:	4d 91       	ld	r20, X+
    23f0:	8d 01       	movw	r16, r26
    23f2:	55 27       	eor	r21, r21
    23f4:	bb c2       	rjmp	.+1398   	; 0x296c <cluster_c_tail>
    23f6:	d8 01       	movw	r26, r16
    23f8:	6d 91       	ld	r22, X+
    23fa:	8d 01       	movw	r16, r26
    23fc:	77 27       	eor	r23, r23
    23fe:	b6 c2       	rjmp	.+1388   	; 0x296c <cluster_c_tail>
    2400:	d9 01       	movw	r26, r18
    2402:	8d 90       	ld	r8, X+
    2404:	9d 01       	movw	r18, r26
    2406:	99 24       	eor	r9, r9
    2408:	b1 c2       	rjmp	.+1378   	; 0x296c <cluster_c_tail>
    240a:	d9 01       	movw	r26, r18
    240c:	ad 90       	ld	r10, X+
    240e:	9d 01       	movw	r18, r26
    2410:	bb 24       	eor	r11, r11
    2412:	ac c2       	rjmp	.+1368   	; 0x296c <cluster_c_tail>
    2414:	d9 01       	movw	r26, r18
    2416:	cd 90       	ld	r12, X+
    2418:	9d 01       	movw	r18, r26
    241a:	dd 24       	eor	r13, r13
    241c:	a7 c2       	rjmp	.+1358   	; 0x296c <cluster_c_tail>
    241e:	d9 01       	movw	r26, r18
    2420:	ed 90       	ld	r14, X+
    2422:	9d 01       	movw	r18, r26
    2424:	ff 24       	eor	r15, r15
    2426:	a2 c2       	rjmp	.+1348   	; 0x296c <cluster_c_tail>
    2428:	d9 01       	movw	r26, r18
    242a:	0d 91       	ld	r16, X+
    242c:	9d 01       	movw	r18, r26
    242e:	11 27       	eor	r17, r17
    2430:	9d c2       	rjmp	.+1338   	; 0x296c <cluster_c_tail>
    2432:	d5 ca       	rjmp	.-2646   	; 0x19de <secondary_invalid_b_func>
    2434:	00 00       	nop
    2436:	00 00       	nop
    2438:	00 00       	nop
    243a:	00 00       	nop
    243c:	d9 01       	movw	r26, r18
    243e:	4d 91       	ld	r20, X+
    2440:	9d 01       	movw	r18, r26
    2442:	55 27       	eor	r21, r21
    2444:	93 c2       	rjmp	.+1318   	; 0x296c <cluster_c_tail>
    2446:	d9 01       	movw	r26, r18
    2448:	6d 91       	ld	r22, X+
    244a:	9d 01       	movw	r18, r26
    244c:	77 27       	eor	r23, r23
    244e:	8e c2       	rjmp	.+1308   	; 0x296c <cluster_c_tail>
    2450:	da 01       	movw	r26, r20
    2452:	8d 90       	ld	r8, X+
    2454:	ad 01       	movw	r20, r26
    2456:	99 24       	eor	r9, r9
    2458:	89 c2       	rjmp	.+1298   	; 0x296c <cluster_c_tail>
    245a:	da 01       	movw	r26, r20
    245c:	ad 90       	ld	r10, X+
    245e:	ad 01       	movw	r20, r26
    2460:	bb 24       	eor	r11, r11
    2462:	84 c2       	rjmp	.+1288   	; 0x296c <cluster_c_tail>
    2464:	da 01       	movw	r26, r20
    2466:	cd 90       	ld	r12, X+
    2468:	ad 01       	movw	r20, r26
    246a:	dd 24       	eor	r13, r13
    246c:	7f c2       	rjmp	.+1278   	; 0x296c <cluster_c_tail>
    246e:	da 01       	movw	r26, r20
    2470:	ed 90       	ld	r14, X+
    2472:	ad 01       	movw	r20, r26
    2474:	ff 24       	eor	r15, r15
    2476:	7a c2       	rjmp	.+1268   	; 0x296c <cluster_c_tail>
    2478:	da 01       	movw	r26, r20
    247a:	0d 91       	ld	r16, X+
    247c:	ad 01       	movw	r20, r26
    247e:	11 27       	eor	r17, r17
    2480:	75 c2       	rjmp	.+1258   	; 0x296c <cluster_c_tail>
    2482:	da 01       	movw	r26, r20
    2484:	2d 91       	ld	r18, X+
    2486:	ad 01       	movw	r20, r26
    2488:	33 27       	eor	r19, r19
    248a:	70 c2       	rjmp	.+1248   	; 0x296c <cluster_c_tail>
    248c:	a8 ca       	rjmp	.-2736   	; 0x19de <secondary_invalid_b_func>
    248e:	00 00       	nop
    2490:	00 00       	nop
    2492:	00 00       	nop
    2494:	00 00       	nop
    2496:	da 01       	movw	r26, r20
    2498:	6d 91       	ld	r22, X+
    249a:	ad 01       	movw	r20, r26
    249c:	77 27       	eor	r23, r23
    249e:	66 c2       	rjmp	.+1228   	; 0x296c <cluster_c_tail>
    24a0:	db 01       	movw	r26, r22
    24a2:	8d 90       	ld	r8, X+
    24a4:	bd 01       	movw	r22, r26
    24a6:	99 24       	eor	r9, r9
    24a8:	61 c2       	rjmp	.+1218   	; 0x296c <cluster_c_tail>
    24aa:	db 01       	movw	r26, r22
    24ac:	ad 90       	ld	r10, X+
    24ae:	bd 01       	movw	r22, r26
    24b0:	bb 24       	eor	r11, r11
    24b2:	5c c2       	rjmp	.+1208   	; 0x296c <cluster_c_tail>
    24b4:	db 01       	movw	r26, r22
    24b6:	cd 90       	ld	r12, X+
    24b8:	bd 01       	movw	r22, r26
    24ba:	dd 24       	eor	r13, r13
    24bc:	57 c2       	rjmp	.+1198   	; 0x296c <cluster_c_tail>
    24be:	db 01       	movw	r26, r22
    24c0:	ed 90       	ld	r14, X+
    24c2:	bd 01       	movw	r22, r26
    24c4:	ff 24       	eor	r15, r15
    24c6:	52 c2       	rjmp	.+1188   	; 0x296c <cluster_c_tail>
    24c8:	db 01       	movw	r26, r22
    24ca:	0d 91       	ld	r16, X+
    24cc:	bd 01       	movw	r22, r26
    24ce:	11 27       	eor	r17, r17
    24d0:	4d c2       	rjmp	.+1178   	; 0x296c <cluster_c_tail>
    24d2:	db 01       	movw	r26, r22
    24d4:	2d 91       	ld	r18, X+
    24d6:	bd 01       	movw	r22, r26
    24d8:	33 27       	eor	r19, r19
    24da:	48 c2       	rjmp	.+1168   	; 0x296c <cluster_c_tail>
    24dc:	db 01       	movw	r26, r22
    24de:	4d 91       	ld	r20, X+
    24e0:	bd 01       	movw	r22, r26
    24e2:	55 27       	eor	r21, r21
    24e4:	43 c2       	rjmp	.+1158   	; 0x296c <cluster_c_tail>
    24e6:	7b ca       	rjmp	.-2826   	; 0x19de <secondary_invalid_b_func>
    24e8:	00 00       	nop
    24ea:	00 00       	nop
    24ec:	00 00       	nop
    24ee:	00 00       	nop
    24f0:	d8 01       	movw	r26, r16
    24f2:	8d 90       	ld	r8, X+
    24f4:	9d 90       	ld	r9, X+
    24f6:	8d 01       	movw	r16, r26
    24f8:	39 c2       	rjmp	.+1138   	; 0x296c <cluster_c_tail>
    24fa:	d8 01       	movw	r26, r16
    24fc:	ad 90       	ld	r10, X+
    24fe:	bd 90       	ld	r11, X+
    2500:	8d 01       	movw	r16, r26
    2502:	34 c2       	rjmp	.+1128   	; 0x296c <cluster_c_tail>
    2504:	d8 01       	movw	r26, r16
    2506:	cd 90       	ld	r12, X+
    2508:	dd 90       	ld	r13, X+
    250a:	8d 01       	movw	r16, r26
    250c:	2f c2       	rjmp	.+1118   	; 0x296c <cluster_c_tail>
    250e:	d8 01       	movw	r26, r16
    2510:	ed 90       	ld	r14, X+
    2512:	fd 90       	ld	r15, X+
    2514:	8d 01       	movw	r16, r26
    2516:	2a c2       	rjmp	.+1108   	; 0x296c <cluster_c_tail>
    2518:	62 ca       	rjmp	.-2876   	; 0x19de <secondary_invalid_b_func>
    251a:	00 00       	nop
    251c:	00 00       	nop
    251e:	00 00       	nop
    2520:	00 00       	nop
    2522:	d8 01       	movw	r26, r16
    2524:	2d 91       	ld	r18, X+
    2526:	3d 91       	ld	r19, X+
    2528:	8d 01       	movw	r16, r26
    252a:	20 c2       	rjmp	.+1088   	; 0x296c <cluster_c_tail>
    252c:	d8 01       	movw	r26, r16
    252e:	4d 91       	ld	r20, X+
    2530:	5d 91       	ld	r21, X+
    2532:	8d 01       	movw	r16, r26
    2534:	1b c2       	rjmp	.+1078   	; 0x296c <cluster_c_tail>
    2536:	d8 01       	movw	r26, r16
    2538:	6d 91       	ld	r22, X+
    253a:	7d 91       	ld	r23, X+
    253c:	8d 01       	movw	r16, r26
    253e:	16 c2       	rjmp	.+1068   	; 0x296c <cluster_c_tail>
    2540:	d9 01       	movw	r26, r18
    2542:	8d 90       	ld	r8, X+
    2544:	9d 90       	ld	r9, X+
    2546:	9d 01       	movw	r18, r26
    2548:	11 c2       	rjmp	.+1058   	; 0x296c <cluster_c_tail>
    254a:	d9 01       	movw	r26, r18
    254c:	ad 90       	ld	r10, X+
    254e:	bd 90       	ld	r11, X+
    2550:	9d 01       	movw	r18, r26
    2552:	0c c2       	rjmp	.+1048   	; 0x296c <cluster_c_tail>
    2554:	d9 01       	movw	r26, r18
    2556:	cd 90       	ld	r12, X+
    2558:	dd 90       	ld	r13, X+
    255a:	9d 01       	movw	r18, r26
    255c:	07 c2       	rjmp	.+1038   	; 0x296c <cluster_c_tail>
    255e:	d9 01       	movw	r26, r18
    2560:	ed 90       	ld	r14, X+
    2562:	fd 90       	ld	r15, X+
    2564:	9d 01       	movw	r18, r26
    2566:	02 c2       	rjmp	.+1028   	; 0x296c <cluster_c_tail>
    2568:	d9 01       	movw	r26, r18
    256a:	0d 91       	ld	r16, X+
    256c:	1d 91       	ld	r17, X+
    256e:	9d 01       	movw	r18, r26
    2570:	fd c1       	rjmp	.+1018   	; 0x296c <cluster_c_tail>
    2572:	35 ca       	rjmp	.-2966   	; 0x19de <secondary_invalid_b_func>
    2574:	00 00       	nop
    2576:	00 00       	nop
    2578:	00 00       	nop
    257a:	00 00       	nop
    257c:	d9 01       	movw	r26, r18
    257e:	4d 91       	ld	r20, X+
    2580:	5d 91       	ld	r21, X+
    2582:	9d 01       	movw	r18, r26
    2584:	f3 c1       	rjmp	.+998    	; 0x296c <cluster_c_tail>
    2586:	d9 01       	movw	r26, r18
    2588:	6d 91       	ld	r22, X+
    258a:	7d 91       	ld	r23, X+
    258c:	9d 01       	movw	r18, r26
    258e:	ee c1       	rjmp	.+988    	; 0x296c <cluster_c_tail>
    2590:	da 01       	movw	r26, r20
    2592:	8d 90       	ld	r8, X+
    2594:	9d 90       	ld	r9, X+
    2596:	ad 01       	movw	r20, r26
    2598:	e9 c1       	rjmp	.+978    	; 0x296c <cluster_c_tail>
    259a:	da 01       	movw	r26, r20
    259c:	ad 90       	ld	r10, X+
    259e:	bd 90       	ld	r11, X+
    25a0:	ad 01       	movw	r20, r26
    25a2:	e4 c1       	rjmp	.+968    	; 0x296c <cluster_c_tail>
    25a4:	da 01       	movw	r26, r20
    25a6:	cd 90       	ld	r12, X+
    25a8:	dd 90       	ld	r13, X+
    25aa:	ad 01       	movw	r20, r26
    25ac:	df c1       	rjmp	.+958    	; 0x296c <cluster_c_tail>
    25ae:	da 01       	movw	r26, r20
    25b0:	ed 90       	ld	r14, X+
    25b2:	fd 90       	ld	r15, X+
    25b4:	ad 01       	movw	r20, r26
    25b6:	da c1       	rjmp	.+948    	; 0x296c <cluster_c_tail>
    25b8:	da 01       	movw	r26, r20
    25ba:	0d 91       	ld	r16, X+
    25bc:	1d 91       	ld	r17, X+
    25be:	ad 01       	movw	r20, r26
    25c0:	d5 c1       	rjmp	.+938    	; 0x296c <cluster_c_tail>
    25c2:	da 01       	movw	r26, r20
    25c4:	2d 91       	ld	r18, X+
    25c6:	3d 91       	ld	r19, X+
    25c8:	ad 01       	movw	r20, r26
    25ca:	d0 c1       	rjmp	.+928    	; 0x296c <cluster_c_tail>
    25cc:	08 ca       	rjmp	.-3056   	; 0x19de <secondary_invalid_b_func>
    25ce:	00 00       	nop
    25d0:	00 00       	nop
    25d2:	00 00       	nop
    25d4:	00 00       	nop
    25d6:	da 01       	movw	r26, r20
    25d8:	6d 91       	ld	r22, X+
    25da:	7d 91       	ld	r23, X+
    25dc:	ad 01       	movw	r20, r26
    25de:	c6 c1       	rjmp	.+908    	; 0x296c <cluster_c_tail>
    25e0:	db 01       	movw	r26, r22
    25e2:	8d 90       	ld	r8, X+
    25e4:	9d 90       	ld	r9, X+
    25e6:	bd 01       	movw	r22, r26
    25e8:	c1 c1       	rjmp	.+898    	; 0x296c <cluster_c_tail>
    25ea:	db 01       	movw	r26, r22
    25ec:	ad 90       	ld	r10, X+
    25ee:	bd 90       	ld	r11, X+
    25f0:	bd 01       	movw	r22, r26
    25f2:	bc c1       	rjmp	.+888    	; 0x296c <cluster_c_tail>
    25f4:	db 01       	movw	r26, r22
    25f6:	cd 90       	ld	r12, X+
    25f8:	dd 90       	ld	r13, X+
    25fa:	bd 01       	movw	r22, r26
    25fc:	b7 c1       	rjmp	.+878    	; 0x296c <cluster_c_tail>
    25fe:	db 01       	movw	r26, r22
    2600:	ed 90       	ld	r14, X+
    2602:	fd 90       	ld	r15, X+
    2604:	bd 01       	movw	r22, r26
    2606:	b2 c1       	rjmp	.+868    	; 0x296c <cluster_c_tail>
    2608:	db 01       	movw	r26, r22
    260a:	0d 91       	ld	r16, X+
    260c:	1d 91       	ld	r17, X+
    260e:	bd 01       	movw	r22, r26
    2610:	ad c1       	rjmp	.+858    	; 0x296c <cluster_c_tail>
    2612:	db 01       	movw	r26, r22
    2614:	2d 91       	ld	r18, X+
    2616:	3d 91       	ld	r19, X+
    2618:	bd 01       	movw	r22, r26
    261a:	a8 c1       	rjmp	.+848    	; 0x296c <cluster_c_tail>
    261c:	db 01       	movw	r26, r22
    261e:	4d 91       	ld	r20, X+
    2620:	5d 91       	ld	r21, X+
    2622:	bd 01       	movw	r22, r26
    2624:	a3 c1       	rjmp	.+838    	; 0x296c <cluster_c_tail>
    2626:	db c9       	rjmp	.-3146   	; 0x19de <secondary_invalid_b_func>
    2628:	00 00       	nop
    262a:	00 00       	nop
    262c:	00 00       	nop
    262e:	00 00       	nop
    2630:	d8 01       	movw	r26, r16
    2632:	8d 92       	st	X+, r8
    2634:	9d 92       	st	X+, r9
    2636:	8d 01       	movw	r16, r26
    2638:	99 c1       	rjmp	.+818    	; 0x296c <cluster_c_tail>
    263a:	d8 01       	movw	r26, r16
    263c:	ad 92       	st	X+, r10
    263e:	bd 92       	st	X+, r11
    2640:	8d 01       	movw	r16, r26
    2642:	94 c1       	rjmp	.+808    	; 0x296c <cluster_c_tail>
    2644:	d8 01       	movw	r26, r16
    2646:	cd 92       	st	X+, r12
    2648:	dd 92       	st	X+, r13
    264a:	8d 01       	movw	r16, r26
    264c:	8f c1       	rjmp	.+798    	; 0x296c <cluster_c_tail>
    264e:	d8 01       	movw	r26, r16
    2650:	ed 92       	st	X+, r14
    2652:	fd 92       	st	X+, r15
    2654:	8d 01       	movw	r16, r26
    2656:	8a c1       	rjmp	.+788    	; 0x296c <cluster_c_tail>
    2658:	d8 01       	movw	r26, r16
    265a:	0d 93       	st	X+, r16
    265c:	1d 93       	st	X+, r17
    265e:	8d 01       	movw	r16, r26
    2660:	85 c1       	rjmp	.+778    	; 0x296c <cluster_c_tail>
    2662:	d8 01       	movw	r26, r16
    2664:	2d 93       	st	X+, r18
    2666:	3d 93       	st	X+, r19
    2668:	8d 01       	movw	r16, r26
    266a:	80 c1       	rjmp	.+768    	; 0x296c <cluster_c_tail>
    266c:	d8 01       	movw	r26, r16
    266e:	4d 93       	st	X+, r20
    2670:	5d 93       	st	X+, r21
    2672:	8d 01       	movw	r16, r26
    2674:	7b c1       	rjmp	.+758    	; 0x296c <cluster_c_tail>
    2676:	d8 01       	movw	r26, r16
    2678:	6d 93       	st	X+, r22
    267a:	7d 93       	st	X+, r23
    267c:	8d 01       	movw	r16, r26
    267e:	76 c1       	rjmp	.+748    	; 0x296c <cluster_c_tail>
    2680:	d9 01       	movw	r26, r18
    2682:	8d 92       	st	X+, r8
    2684:	9d 92       	st	X+, r9
    2686:	9d 01       	movw	r18, r26
    2688:	71 c1       	rjmp	.+738    	; 0x296c <cluster_c_tail>
    268a:	d9 01       	movw	r26, r18
    268c:	ad 92       	st	X+, r10
    268e:	bd 92       	st	X+, r11
    2690:	9d 01       	movw	r18, r26
    2692:	6c c1       	rjmp	.+728    	; 0x296c <cluster_c_tail>
    2694:	d9 01       	movw	r26, r18
    2696:	cd 92       	st	X+, r12
    2698:	dd 92       	st	X+, r13
    269a:	9d 01       	movw	r18, r26
    269c:	67 c1       	rjmp	.+718    	; 0x296c <cluster_c_tail>
    269e:	d9 01       	movw	r26, r18
    26a0:	ed 92       	st	X+, r14
    26a2:	fd 92       	st	X+, r15
    26a4:	9d 01       	movw	r18, r26
    26a6:	62 c1       	rjmp	.+708    	; 0x296c <cluster_c_tail>
    26a8:	d9 01       	movw	r26, r18
    26aa:	0d 93       	st	X+, r16
    26ac:	1d 93       	st	X+, r17
    26ae:	9d 01       	movw	r18, r26
    26b0:	5d c1       	rjmp	.+698    	; 0x296c <cluster_c_tail>
    26b2:	d9 01       	movw	r26, r18
    26b4:	2d 93       	st	X+, r18
    26b6:	3d 93       	st	X+, r19
    26b8:	9d 01       	movw	r18, r26
    26ba:	58 c1       	rjmp	.+688    	; 0x296c <cluster_c_tail>
    26bc:	d9 01       	movw	r26, r18
    26be:	4d 93       	st	X+, r20
    26c0:	5d 93       	st	X+, r21
    26c2:	9d 01       	movw	r18, r26
    26c4:	53 c1       	rjmp	.+678    	; 0x296c <cluster_c_tail>
    26c6:	d9 01       	movw	r26, r18
    26c8:	6d 93       	st	X+, r22
    26ca:	7d 93       	st	X+, r23
    26cc:	9d 01       	movw	r18, r26
    26ce:	4e c1       	rjmp	.+668    	; 0x296c <cluster_c_tail>
    26d0:	da 01       	movw	r26, r20
    26d2:	8d 92       	st	X+, r8
    26d4:	9d 92       	st	X+, r9
    26d6:	ad 01       	movw	r20, r26
    26d8:	49 c1       	rjmp	.+658    	; 0x296c <cluster_c_tail>
    26da:	da 01       	movw	r26, r20
    26dc:	ad 92       	st	X+, r10
    26de:	bd 92       	st	X+, r11
    26e0:	ad 01       	movw	r20, r26
    26e2:	44 c1       	rjmp	.+648    	; 0x296c <cluster_c_tail>
    26e4:	da 01       	movw	r26, r20
    26e6:	cd 92       	st	X+, r12
    26e8:	dd 92       	st	X+, r13
    26ea:	ad 01       	movw	r20, r26
    26ec:	3f c1       	rjmp	.+638    	; 0x296c <cluster_c_tail>
    26ee:	da 01       	movw	r26, r20
    26f0:	ed 92       	st	X+, r14
    26f2:	fd 92       	st	X+, r15
    26f4:	ad 01       	movw	r20, r26
    26f6:	3a c1       	rjmp	.+628    	; 0x296c <cluster_c_tail>
    26f8:	da 01       	movw	r26, r20
    26fa:	0d 93       	st	X+, r16
    26fc:	1d 93       	st	X+, r17
    26fe:	ad 01       	movw	r20, r26
    2700:	35 c1       	rjmp	.+618    	; 0x296c <cluster_c_tail>
    2702:	da 01       	movw	r26, r20
    2704:	2d 93       	st	X+, r18
    2706:	3d 93       	st	X+, r19
    2708:	ad 01       	movw	r20, r26
    270a:	30 c1       	rjmp	.+608    	; 0x296c <cluster_c_tail>
    270c:	da 01       	movw	r26, r20
    270e:	4d 93       	st	X+, r20
    2710:	5d 93       	st	X+, r21
    2712:	ad 01       	movw	r20, r26
    2714:	2b c1       	rjmp	.+598    	; 0x296c <cluster_c_tail>
    2716:	da 01       	movw	r26, r20
    2718:	6d 93       	st	X+, r22
    271a:	7d 93       	st	X+, r23
    271c:	ad 01       	movw	r20, r26
    271e:	26 c1       	rjmp	.+588    	; 0x296c <cluster_c_tail>
    2720:	db 01       	movw	r26, r22
    2722:	8d 92       	st	X+, r8
    2724:	9d 92       	st	X+, r9
    2726:	bd 01       	movw	r22, r26
    2728:	21 c1       	rjmp	.+578    	; 0x296c <cluster_c_tail>
    272a:	db 01       	movw	r26, r22
    272c:	ad 92       	st	X+, r10
    272e:	bd 92       	st	X+, r11
    2730:	bd 01       	movw	r22, r26
    2732:	1c c1       	rjmp	.+568    	; 0x296c <cluster_c_tail>
    2734:	db 01       	movw	r26, r22
    2736:	cd 92       	st	X+, r12
    2738:	dd 92       	st	X+, r13
    273a:	bd 01       	movw	r22, r26
    273c:	17 c1       	rjmp	.+558    	; 0x296c <cluster_c_tail>
    273e:	db 01       	movw	r26, r22
    2740:	ed 92       	st	X+, r14
    2742:	fd 92       	st	X+, r15
    2744:	bd 01       	movw	r22, r26
    2746:	12 c1       	rjmp	.+548    	; 0x296c <cluster_c_tail>
    2748:	db 01       	movw	r26, r22
    274a:	0d 93       	st	X+, r16
    274c:	1d 93       	st	X+, r17
    274e:	bd 01       	movw	r22, r26
    2750:	0d c1       	rjmp	.+538    	; 0x296c <cluster_c_tail>
    2752:	db 01       	movw	r26, r22
    2754:	2d 93       	st	X+, r18
    2756:	3d 93       	st	X+, r19
    2758:	bd 01       	movw	r22, r26
    275a:	08 c1       	rjmp	.+528    	; 0x296c <cluster_c_tail>
    275c:	db 01       	movw	r26, r22
    275e:	4d 93       	st	X+, r20
    2760:	5d 93       	st	X+, r21
    2762:	bd 01       	movw	r22, r26
    2764:	03 c1       	rjmp	.+518    	; 0x296c <cluster_c_tail>
    2766:	db 01       	movw	r26, r22
    2768:	6d 93       	st	X+, r22
    276a:	7d 93       	st	X+, r23
    276c:	bd 01       	movw	r22, r26
    276e:	fe c0       	rjmp	.+508    	; 0x296c <cluster_c_tail>
    2770:	88 0c       	add	r8, r8
    2772:	99 1c       	adc	r9, r9
    2774:	aa 1c       	adc	r10, r10
    2776:	bb 1c       	adc	r11, r11
    2778:	f9 c0       	rjmp	.+498    	; 0x296c <cluster_c_tail>
    277a:	8c 0c       	add	r8, r12
    277c:	9d 1c       	adc	r9, r13
    277e:	ae 1c       	adc	r10, r14
    2780:	bf 1c       	adc	r11, r15
    2782:	f4 c0       	rjmp	.+488    	; 0x296c <cluster_c_tail>
    2784:	80 0e       	add	r8, r16
    2786:	91 1e       	adc	r9, r17
    2788:	a2 1e       	adc	r10, r18
    278a:	b3 1e       	adc	r11, r19
    278c:	ef c0       	rjmp	.+478    	; 0x296c <cluster_c_tail>
    278e:	84 0e       	add	r8, r20
    2790:	95 1e       	adc	r9, r21
    2792:	a6 1e       	adc	r10, r22
    2794:	b7 1e       	adc	r11, r23
    2796:	ea c0       	rjmp	.+468    	; 0x296c <cluster_c_tail>
    2798:	c8 0c       	add	r12, r8
    279a:	d9 1c       	adc	r13, r9
    279c:	ea 1c       	adc	r14, r10
    279e:	fb 1c       	adc	r15, r11
    27a0:	e5 c0       	rjmp	.+458    	; 0x296c <cluster_c_tail>
    27a2:	cc 0c       	add	r12, r12
    27a4:	dd 1c       	adc	r13, r13
    27a6:	ee 1c       	adc	r14, r14
    27a8:	ff 1c       	adc	r15, r15
    27aa:	e0 c0       	rjmp	.+448    	; 0x296c <cluster_c_tail>
    27ac:	c0 0e       	add	r12, r16
    27ae:	d1 1e       	adc	r13, r17
    27b0:	e2 1e       	adc	r14, r18
    27b2:	f3 1e       	adc	r15, r19
    27b4:	db c0       	rjmp	.+438    	; 0x296c <cluster_c_tail>
    27b6:	c4 0e       	add	r12, r20
    27b8:	d5 1e       	adc	r13, r21
    27ba:	e6 1e       	adc	r14, r22
    27bc:	f7 1e       	adc	r15, r23
    27be:	d6 c0       	rjmp	.+428    	; 0x296c <cluster_c_tail>
    27c0:	08 0d       	add	r16, r8
    27c2:	19 1d       	adc	r17, r9
    27c4:	2a 1d       	adc	r18, r10
    27c6:	3b 1d       	adc	r19, r11
    27c8:	d1 c0       	rjmp	.+418    	; 0x296c <cluster_c_tail>
    27ca:	0c 0d       	add	r16, r12
    27cc:	1d 1d       	adc	r17, r13
    27ce:	2e 1d       	adc	r18, r14
    27d0:	3f 1d       	adc	r19, r15
    27d2:	cc c0       	rjmp	.+408    	; 0x296c <cluster_c_tail>
    27d4:	00 0f       	add	r16, r16
    27d6:	11 1f       	adc	r17, r17
    27d8:	22 1f       	adc	r18, r18
    27da:	33 1f       	adc	r19, r19
    27dc:	c7 c0       	rjmp	.+398    	; 0x296c <cluster_c_tail>
    27de:	04 0f       	add	r16, r20
    27e0:	15 1f       	adc	r17, r21
    27e2:	26 1f       	adc	r18, r22
    27e4:	37 1f       	adc	r19, r23
    27e6:	c2 c0       	rjmp	.+388    	; 0x296c <cluster_c_tail>
    27e8:	48 0d       	add	r20, r8
    27ea:	59 1d       	adc	r21, r9
    27ec:	6a 1d       	adc	r22, r10
    27ee:	7b 1d       	adc	r23, r11
    27f0:	bd c0       	rjmp	.+378    	; 0x296c <cluster_c_tail>
    27f2:	4c 0d       	add	r20, r12
    27f4:	5d 1d       	adc	r21, r13
    27f6:	6e 1d       	adc	r22, r14
    27f8:	7f 1d       	adc	r23, r15
    27fa:	b8 c0       	rjmp	.+368    	; 0x296c <cluster_c_tail>
    27fc:	40 0f       	add	r20, r16
    27fe:	51 1f       	adc	r21, r17
    2800:	62 1f       	adc	r22, r18
    2802:	73 1f       	adc	r23, r19
    2804:	b3 c0       	rjmp	.+358    	; 0x296c <cluster_c_tail>
    2806:	44 0f       	add	r20, r20
    2808:	55 1f       	adc	r21, r21
    280a:	66 1f       	adc	r22, r22
    280c:	77 1f       	adc	r23, r23
    280e:	ae c0       	rjmp	.+348    	; 0x296c <cluster_c_tail>
    2810:	88 18       	sub	r8, r8
    2812:	99 08       	sbc	r9, r9
    2814:	aa 08       	sbc	r10, r10
    2816:	bb 08       	sbc	r11, r11
    2818:	a9 c0       	rjmp	.+338    	; 0x296c <cluster_c_tail>
    281a:	8c 18       	sub	r8, r12
    281c:	9d 08       	sbc	r9, r13
    281e:	ae 08       	sbc	r10, r14
    2820:	bf 08       	sbc	r11, r15
    2822:	a4 c0       	rjmp	.+328    	; 0x296c <cluster_c_tail>
    2824:	80 1a       	sub	r8, r16
    2826:	91 0a       	sbc	r9, r17
    2828:	a2 0a       	sbc	r10, r18
    282a:	b3 0a       	sbc	r11, r19
    282c:	9f c0       	rjmp	.+318    	; 0x296c <cluster_c_tail>
    282e:	84 1a       	sub	r8, r20
    2830:	95 0a       	sbc	r9, r21
    2832:	a6 0a       	sbc	r10, r22
    2834:	b7 0a       	sbc	r11, r23
    2836:	9a c0       	rjmp	.+308    	; 0x296c <cluster_c_tail>
    2838:	c8 18       	sub	r12, r8
    283a:	d9 08       	sbc	r13, r9
    283c:	ea 08       	sbc	r14, r10
    283e:	fb 08       	sbc	r15, r11
    2840:	95 c0       	rjmp	.+298    	; 0x296c <cluster_c_tail>
    2842:	cc 18       	sub	r12, r12
    2844:	dd 08       	sbc	r13, r13
    2846:	ee 08       	sbc	r14, r14
    2848:	ff 08       	sbc	r15, r15
    284a:	90 c0       	rjmp	.+288    	; 0x296c <cluster_c_tail>
    284c:	c0 1a       	sub	r12, r16
    284e:	d1 0a       	sbc	r13, r17
    2850:	e2 0a       	sbc	r14, r18
    2852:	f3 0a       	sbc	r15, r19
    2854:	8b c0       	rjmp	.+278    	; 0x296c <cluster_c_tail>
    2856:	c4 1a       	sub	r12, r20
    2858:	d5 0a       	sbc	r13, r21
    285a:	e6 0a       	sbc	r14, r22
    285c:	f7 0a       	sbc	r15, r23
    285e:	86 c0       	rjmp	.+268    	; 0x296c <cluster_c_tail>
    2860:	08 19       	sub	r16, r8
    2862:	19 09       	sbc	r17, r9
    2864:	2a 09       	sbc	r18, r10
    2866:	3b 09       	sbc	r19, r11
    2868:	81 c0       	rjmp	.+258    	; 0x296c <cluster_c_tail>
    286a:	0c 19       	sub	r16, r12
    286c:	1d 09       	sbc	r17, r13
    286e:	2e 09       	sbc	r18, r14
    2870:	3f 09       	sbc	r19, r15
    2872:	7c c0       	rjmp	.+248    	; 0x296c <cluster_c_tail>
    2874:	00 1b       	sub	r16, r16
    2876:	11 0b       	sbc	r17, r17
    2878:	22 0b       	sbc	r18, r18
    287a:	33 0b       	sbc	r19, r19
    287c:	77 c0       	rjmp	.+238    	; 0x296c <cluster_c_tail>
    287e:	04 1b       	sub	r16, r20
    2880:	15 0b       	sbc	r17, r21
    2882:	26 0b       	sbc	r18, r22
    2884:	37 0b       	sbc	r19, r23
    2886:	72 c0       	rjmp	.+228    	; 0x296c <cluster_c_tail>
    2888:	48 19       	sub	r20, r8
    288a:	59 09       	sbc	r21, r9
    288c:	6a 09       	sbc	r22, r10
    288e:	7b 09       	sbc	r23, r11
    2890:	6d c0       	rjmp	.+218    	; 0x296c <cluster_c_tail>
    2892:	4c 19       	sub	r20, r12
    2894:	5d 09       	sbc	r21, r13
    2896:	6e 09       	sbc	r22, r14
    2898:	7f 09       	sbc	r23, r15
    289a:	68 c0       	rjmp	.+208    	; 0x296c <cluster_c_tail>
    289c:	40 1b       	sub	r20, r16
    289e:	51 0b       	sbc	r21, r17
    28a0:	62 0b       	sbc	r22, r18
    28a2:	73 0b       	sbc	r23, r19
    28a4:	63 c0       	rjmp	.+198    	; 0x296c <cluster_c_tail>
    28a6:	44 1b       	sub	r20, r20
    28a8:	55 0b       	sbc	r21, r21
    28aa:	66 0b       	sbc	r22, r22
    28ac:	77 0b       	sbc	r23, r23
    28ae:	5e c0       	rjmp	.+188    	; 0x296c <cluster_c_tail>
    28b0:	b6 94       	lsr	r11
    28b2:	a7 94       	ror	r10
    28b4:	97 94       	ror	r9
    28b6:	87 94       	ror	r8
    28b8:	59 c0       	rjmp	.+178    	; 0x296c <cluster_c_tail>
    28ba:	f6 94       	lsr	r15
    28bc:	e7 94       	ror	r14
    28be:	d7 94       	ror	r13
    28c0:	c7 94       	ror	r12
    28c2:	54 c0       	rjmp	.+168    	; 0x296c <cluster_c_tail>
    28c4:	36 95       	lsr	r19
    28c6:	27 95       	ror	r18
    28c8:	17 95       	ror	r17
    28ca:	07 95       	ror	r16
    28cc:	4f c0       	rjmp	.+158    	; 0x296c <cluster_c_tail>
    28ce:	76 95       	lsr	r23
    28d0:	67 95       	ror	r22
    28d2:	57 95       	ror	r21
    28d4:	47 95       	ror	r20
    28d6:	4a c0       	rjmp	.+148    	; 0x296c <cluster_c_tail>
    28d8:	b5 94       	asr	r11
    28da:	a7 94       	ror	r10
    28dc:	97 94       	ror	r9
    28de:	87 94       	ror	r8
    28e0:	45 c0       	rjmp	.+138    	; 0x296c <cluster_c_tail>
    28e2:	f5 94       	asr	r15
    28e4:	e7 94       	ror	r14
    28e6:	d7 94       	ror	r13
    28e8:	c7 94       	ror	r12
    28ea:	40 c0       	rjmp	.+128    	; 0x296c <cluster_c_tail>
    28ec:	35 95       	asr	r19
    28ee:	27 95       	ror	r18
    28f0:	17 95       	ror	r17
    28f2:	07 95       	ror	r16
    28f4:	3b c0       	rjmp	.+118    	; 0x296c <cluster_c_tail>
    28f6:	75 95       	asr	r23
    28f8:	67 95       	ror	r22
    28fa:	57 95       	ror	r21
    28fc:	47 95       	ror	r20
    28fe:	36 c0       	rjmp	.+108    	; 0x296c <cluster_c_tail>
    2900:	89 28       	or	r8, r9
    2902:	99 24       	eor	r9, r9
    2904:	82 10       	cpse	r8, r2
    2906:	83 2c       	mov	r8, r3
    2908:	31 c0       	rjmp	.+98     	; 0x296c <cluster_c_tail>
    290a:	ab 28       	or	r10, r11
    290c:	bb 24       	eor	r11, r11
    290e:	a2 10       	cpse	r10, r2
    2910:	a3 2c       	mov	r10, r3
    2912:	2c c0       	rjmp	.+88     	; 0x296c <cluster_c_tail>
    2914:	cd 28       	or	r12, r13
    2916:	dd 24       	eor	r13, r13
    2918:	c2 10       	cpse	r12, r2
    291a:	c3 2c       	mov	r12, r3
    291c:	27 c0       	rjmp	.+78     	; 0x296c <cluster_c_tail>
    291e:	ef 28       	or	r14, r15
    2920:	ff 24       	eor	r15, r15
    2922:	e2 10       	cpse	r14, r2
    2924:	e3 2c       	mov	r14, r3
    2926:	22 c0       	rjmp	.+68     	; 0x296c <cluster_c_tail>
    2928:	01 2b       	or	r16, r17
    292a:	11 27       	eor	r17, r17
    292c:	02 11       	cpse	r16, r2
    292e:	03 2d       	mov	r16, r3
    2930:	1d c0       	rjmp	.+58     	; 0x296c <cluster_c_tail>
    2932:	23 2b       	or	r18, r19
    2934:	33 27       	eor	r19, r19
    2936:	22 11       	cpse	r18, r2
    2938:	23 2d       	mov	r18, r3
    293a:	18 c0       	rjmp	.+48     	; 0x296c <cluster_c_tail>
    293c:	45 2b       	or	r20, r21
    293e:	55 27       	eor	r21, r21
    2940:	42 11       	cpse	r20, r2
    2942:	43 2d       	mov	r20, r3
    2944:	13 c0       	rjmp	.+38     	; 0x296c <cluster_c_tail>
    2946:	67 2b       	or	r22, r23
    2948:	77 27       	eor	r23, r23
    294a:	62 11       	cpse	r22, r2
    294c:	63 2d       	mov	r22, r3
    294e:	0e c0       	rjmp	.+28     	; 0x296c <cluster_c_tail>

00002950 <cluster_c_start>:
    2950:	00 00       	nop

00002952 <cluster_c_tail_17>:
    2952:	43 0c       	add	r4, r3
    2954:	52 1c       	adc	r5, r2
    2956:	62 1c       	adc	r6, r2
    2958:	f8 94       	cli
    295a:	2e bc       	out	0x2e, r2	; 46
    295c:	8e b5       	in	r24, 0x2e	; 46
    295e:	78 94       	sei
    2960:	87 9d       	mul	r24, r7
    2962:	f0 01       	movw	r30, r0
    2964:	ff 5f       	subi	r31, 0xFF	; 255
    2966:	09 94       	ijmp

00002968 <cluster_c_tail_18_delay_2>:
    2968:	01 c0       	rjmp	.+2      	; 0x296c <cluster_c_tail>

0000296a <cluster_c_tail_18_delay_1>:
    296a:	00 00       	nop

0000296c <cluster_c_tail>:
    296c:	43 0c       	add	r4, r3
    296e:	8e b5       	in	r24, 0x2e	; 46
    2970:	2e bc       	out	0x2e, r2	; 46
    2972:	52 1c       	adc	r5, r2
    2974:	62 1c       	adc	r6, r2
    2976:	87 9d       	mul	r24, r7
    2978:	f0 01       	movw	r30, r0
    297a:	ff 5f       	subi	r31, 0xFF	; 255
    297c:	09 94       	ijmp

0000297e <cluster_c_end>:
    297e:	88 24       	eor	r8, r8
    2980:	99 24       	eor	r9, r9
    2982:	f1 99       	sbic	0x1e, 1	; 30
    2984:	83 2c       	mov	r8, r3
    2986:	f2 cf       	rjmp	.-28     	; 0x296c <cluster_c_tail>
    2988:	aa 24       	eor	r10, r10
    298a:	bb 24       	eor	r11, r11
    298c:	f1 99       	sbic	0x1e, 1	; 30
    298e:	a3 2c       	mov	r10, r3
    2990:	ed cf       	rjmp	.-38     	; 0x296c <cluster_c_tail>
    2992:	cc 24       	eor	r12, r12
    2994:	dd 24       	eor	r13, r13
    2996:	f1 99       	sbic	0x1e, 1	; 30
    2998:	c3 2c       	mov	r12, r3
    299a:	e8 cf       	rjmp	.-48     	; 0x296c <cluster_c_tail>
    299c:	ee 24       	eor	r14, r14
    299e:	ff 24       	eor	r15, r15
    29a0:	f1 99       	sbic	0x1e, 1	; 30
    29a2:	e3 2c       	mov	r14, r3
    29a4:	e3 cf       	rjmp	.-58     	; 0x296c <cluster_c_tail>
    29a6:	00 27       	eor	r16, r16
    29a8:	11 27       	eor	r17, r17
    29aa:	f1 99       	sbic	0x1e, 1	; 30
    29ac:	03 2d       	mov	r16, r3
    29ae:	de cf       	rjmp	.-68     	; 0x296c <cluster_c_tail>
    29b0:	22 27       	eor	r18, r18
    29b2:	33 27       	eor	r19, r19
    29b4:	f1 99       	sbic	0x1e, 1	; 30
    29b6:	23 2d       	mov	r18, r3
    29b8:	d9 cf       	rjmp	.-78     	; 0x296c <cluster_c_tail>
    29ba:	44 27       	eor	r20, r20
    29bc:	55 27       	eor	r21, r21
    29be:	f1 99       	sbic	0x1e, 1	; 30
    29c0:	43 2d       	mov	r20, r3
    29c2:	d4 cf       	rjmp	.-88     	; 0x296c <cluster_c_tail>
    29c4:	66 27       	eor	r22, r22
    29c6:	77 27       	eor	r23, r23
    29c8:	f1 99       	sbic	0x1e, 1	; 30
    29ca:	63 2d       	mov	r22, r3
    29cc:	cf cf       	rjmp	.-98     	; 0x296c <cluster_c_tail>
    29ce:	88 24       	eor	r8, r8
    29d0:	99 24       	eor	r9, r9
    29d2:	f1 9b       	sbis	0x1e, 1	; 30
    29d4:	83 2c       	mov	r8, r3
    29d6:	ca cf       	rjmp	.-108    	; 0x296c <cluster_c_tail>
    29d8:	aa 24       	eor	r10, r10
    29da:	bb 24       	eor	r11, r11
    29dc:	f1 9b       	sbis	0x1e, 1	; 30
    29de:	a3 2c       	mov	r10, r3
    29e0:	c5 cf       	rjmp	.-118    	; 0x296c <cluster_c_tail>
    29e2:	cc 24       	eor	r12, r12
    29e4:	dd 24       	eor	r13, r13
    29e6:	f1 9b       	sbis	0x1e, 1	; 30
    29e8:	c3 2c       	mov	r12, r3
    29ea:	c0 cf       	rjmp	.-128    	; 0x296c <cluster_c_tail>
    29ec:	ee 24       	eor	r14, r14
    29ee:	ff 24       	eor	r15, r15
    29f0:	f1 9b       	sbis	0x1e, 1	; 30
    29f2:	e3 2c       	mov	r14, r3
    29f4:	bb cf       	rjmp	.-138    	; 0x296c <cluster_c_tail>
    29f6:	00 27       	eor	r16, r16
    29f8:	11 27       	eor	r17, r17
    29fa:	f1 9b       	sbis	0x1e, 1	; 30
    29fc:	03 2d       	mov	r16, r3
    29fe:	b6 cf       	rjmp	.-148    	; 0x296c <cluster_c_tail>
    2a00:	22 27       	eor	r18, r18
    2a02:	33 27       	eor	r19, r19
    2a04:	f1 9b       	sbis	0x1e, 1	; 30
    2a06:	23 2d       	mov	r18, r3
    2a08:	b1 cf       	rjmp	.-158    	; 0x296c <cluster_c_tail>
    2a0a:	44 27       	eor	r20, r20
    2a0c:	55 27       	eor	r21, r21
    2a0e:	f1 9b       	sbis	0x1e, 1	; 30
    2a10:	43 2d       	mov	r20, r3
    2a12:	ac cf       	rjmp	.-168    	; 0x296c <cluster_c_tail>
    2a14:	66 27       	eor	r22, r22
    2a16:	77 27       	eor	r23, r23
    2a18:	f1 9b       	sbis	0x1e, 1	; 30
    2a1a:	63 2d       	mov	r22, r3
    2a1c:	a7 cf       	rjmp	.-178    	; 0x296c <cluster_c_tail>
    2a1e:	88 24       	eor	r8, r8
    2a20:	99 24       	eor	r9, r9
    2a22:	f0 99       	sbic	0x1e, 0	; 30
    2a24:	83 2c       	mov	r8, r3
    2a26:	a2 cf       	rjmp	.-188    	; 0x296c <cluster_c_tail>
    2a28:	aa 24       	eor	r10, r10
    2a2a:	bb 24       	eor	r11, r11
    2a2c:	f0 99       	sbic	0x1e, 0	; 30
    2a2e:	a3 2c       	mov	r10, r3
    2a30:	9d cf       	rjmp	.-198    	; 0x296c <cluster_c_tail>
    2a32:	cc 24       	eor	r12, r12
    2a34:	dd 24       	eor	r13, r13
    2a36:	f0 99       	sbic	0x1e, 0	; 30
    2a38:	c3 2c       	mov	r12, r3
    2a3a:	98 cf       	rjmp	.-208    	; 0x296c <cluster_c_tail>
    2a3c:	ee 24       	eor	r14, r14
    2a3e:	ff 24       	eor	r15, r15
    2a40:	f0 99       	sbic	0x1e, 0	; 30
    2a42:	e3 2c       	mov	r14, r3
    2a44:	93 cf       	rjmp	.-218    	; 0x296c <cluster_c_tail>
    2a46:	00 27       	eor	r16, r16
    2a48:	11 27       	eor	r17, r17
    2a4a:	f0 99       	sbic	0x1e, 0	; 30
    2a4c:	03 2d       	mov	r16, r3
    2a4e:	8e cf       	rjmp	.-228    	; 0x296c <cluster_c_tail>
    2a50:	22 27       	eor	r18, r18
    2a52:	33 27       	eor	r19, r19
    2a54:	f0 99       	sbic	0x1e, 0	; 30
    2a56:	23 2d       	mov	r18, r3
    2a58:	89 cf       	rjmp	.-238    	; 0x296c <cluster_c_tail>
    2a5a:	44 27       	eor	r20, r20
    2a5c:	55 27       	eor	r21, r21
    2a5e:	f0 99       	sbic	0x1e, 0	; 30
    2a60:	43 2d       	mov	r20, r3
    2a62:	84 cf       	rjmp	.-248    	; 0x296c <cluster_c_tail>
    2a64:	66 27       	eor	r22, r22
    2a66:	77 27       	eor	r23, r23
    2a68:	f0 99       	sbic	0x1e, 0	; 30
    2a6a:	63 2d       	mov	r22, r3
    2a6c:	7f cf       	rjmp	.-258    	; 0x296c <cluster_c_tail>
    2a6e:	88 24       	eor	r8, r8
    2a70:	99 24       	eor	r9, r9
    2a72:	f0 9b       	sbis	0x1e, 0	; 30
    2a74:	83 2c       	mov	r8, r3
    2a76:	7a cf       	rjmp	.-268    	; 0x296c <cluster_c_tail>
    2a78:	aa 24       	eor	r10, r10
    2a7a:	bb 24       	eor	r11, r11
    2a7c:	f0 9b       	sbis	0x1e, 0	; 30
    2a7e:	a3 2c       	mov	r10, r3
    2a80:	75 cf       	rjmp	.-278    	; 0x296c <cluster_c_tail>
    2a82:	cc 24       	eor	r12, r12
    2a84:	dd 24       	eor	r13, r13
    2a86:	f0 9b       	sbis	0x1e, 0	; 30
    2a88:	c3 2c       	mov	r12, r3
    2a8a:	70 cf       	rjmp	.-288    	; 0x296c <cluster_c_tail>
    2a8c:	ee 24       	eor	r14, r14
    2a8e:	ff 24       	eor	r15, r15
    2a90:	f0 9b       	sbis	0x1e, 0	; 30
    2a92:	e3 2c       	mov	r14, r3
    2a94:	6b cf       	rjmp	.-298    	; 0x296c <cluster_c_tail>
    2a96:	00 27       	eor	r16, r16
    2a98:	11 27       	eor	r17, r17
    2a9a:	f0 9b       	sbis	0x1e, 0	; 30
    2a9c:	03 2d       	mov	r16, r3
    2a9e:	66 cf       	rjmp	.-308    	; 0x296c <cluster_c_tail>
    2aa0:	22 27       	eor	r18, r18
    2aa2:	33 27       	eor	r19, r19
    2aa4:	f0 9b       	sbis	0x1e, 0	; 30
    2aa6:	23 2d       	mov	r18, r3
    2aa8:	61 cf       	rjmp	.-318    	; 0x296c <cluster_c_tail>
    2aaa:	44 27       	eor	r20, r20
    2aac:	55 27       	eor	r21, r21
    2aae:	f0 9b       	sbis	0x1e, 0	; 30
    2ab0:	43 2d       	mov	r20, r3
    2ab2:	5c cf       	rjmp	.-328    	; 0x296c <cluster_c_tail>
    2ab4:	66 27       	eor	r22, r22
    2ab6:	77 27       	eor	r23, r23
    2ab8:	f0 9b       	sbis	0x1e, 0	; 30
    2aba:	63 2d       	mov	r22, r3
    2abc:	57 cf       	rjmp	.-338    	; 0x296c <cluster_c_tail>
    2abe:	88 24       	eor	r8, r8
    2ac0:	99 24       	eor	r9, r9
    2ac2:	f4 99       	sbic	0x1e, 4	; 30
    2ac4:	83 2c       	mov	r8, r3
    2ac6:	52 cf       	rjmp	.-348    	; 0x296c <cluster_c_tail>
    2ac8:	aa 24       	eor	r10, r10
    2aca:	bb 24       	eor	r11, r11
    2acc:	f4 99       	sbic	0x1e, 4	; 30
    2ace:	a3 2c       	mov	r10, r3
    2ad0:	4d cf       	rjmp	.-358    	; 0x296c <cluster_c_tail>
    2ad2:	cc 24       	eor	r12, r12
    2ad4:	dd 24       	eor	r13, r13
    2ad6:	f4 99       	sbic	0x1e, 4	; 30
    2ad8:	c3 2c       	mov	r12, r3
    2ada:	48 cf       	rjmp	.-368    	; 0x296c <cluster_c_tail>
    2adc:	ee 24       	eor	r14, r14
    2ade:	ff 24       	eor	r15, r15
    2ae0:	f4 99       	sbic	0x1e, 4	; 30
    2ae2:	e3 2c       	mov	r14, r3
    2ae4:	43 cf       	rjmp	.-378    	; 0x296c <cluster_c_tail>
    2ae6:	00 27       	eor	r16, r16
    2ae8:	11 27       	eor	r17, r17
    2aea:	f4 99       	sbic	0x1e, 4	; 30
    2aec:	03 2d       	mov	r16, r3
    2aee:	3e cf       	rjmp	.-388    	; 0x296c <cluster_c_tail>
    2af0:	22 27       	eor	r18, r18
    2af2:	33 27       	eor	r19, r19
    2af4:	f4 99       	sbic	0x1e, 4	; 30
    2af6:	23 2d       	mov	r18, r3
    2af8:	39 cf       	rjmp	.-398    	; 0x296c <cluster_c_tail>
    2afa:	44 27       	eor	r20, r20
    2afc:	55 27       	eor	r21, r21
    2afe:	f4 99       	sbic	0x1e, 4	; 30
    2b00:	43 2d       	mov	r20, r3
    2b02:	34 cf       	rjmp	.-408    	; 0x296c <cluster_c_tail>
    2b04:	66 27       	eor	r22, r22
    2b06:	77 27       	eor	r23, r23
    2b08:	f4 99       	sbic	0x1e, 4	; 30
    2b0a:	63 2d       	mov	r22, r3
    2b0c:	2f cf       	rjmp	.-418    	; 0x296c <cluster_c_tail>
    2b0e:	88 24       	eor	r8, r8
    2b10:	99 24       	eor	r9, r9
    2b12:	f4 9b       	sbis	0x1e, 4	; 30
    2b14:	83 2c       	mov	r8, r3
    2b16:	2a cf       	rjmp	.-428    	; 0x296c <cluster_c_tail>
    2b18:	aa 24       	eor	r10, r10
    2b1a:	bb 24       	eor	r11, r11
    2b1c:	f4 9b       	sbis	0x1e, 4	; 30
    2b1e:	a3 2c       	mov	r10, r3
    2b20:	25 cf       	rjmp	.-438    	; 0x296c <cluster_c_tail>
    2b22:	cc 24       	eor	r12, r12
    2b24:	dd 24       	eor	r13, r13
    2b26:	f4 9b       	sbis	0x1e, 4	; 30
    2b28:	c3 2c       	mov	r12, r3
    2b2a:	20 cf       	rjmp	.-448    	; 0x296c <cluster_c_tail>
    2b2c:	ee 24       	eor	r14, r14
    2b2e:	ff 24       	eor	r15, r15
    2b30:	f4 9b       	sbis	0x1e, 4	; 30
    2b32:	e3 2c       	mov	r14, r3
    2b34:	1b cf       	rjmp	.-458    	; 0x296c <cluster_c_tail>
    2b36:	00 27       	eor	r16, r16
    2b38:	11 27       	eor	r17, r17
    2b3a:	f4 9b       	sbis	0x1e, 4	; 30
    2b3c:	03 2d       	mov	r16, r3
    2b3e:	16 cf       	rjmp	.-468    	; 0x296c <cluster_c_tail>
    2b40:	22 27       	eor	r18, r18
    2b42:	33 27       	eor	r19, r19
    2b44:	f4 9b       	sbis	0x1e, 4	; 30
    2b46:	23 2d       	mov	r18, r3
    2b48:	11 cf       	rjmp	.-478    	; 0x296c <cluster_c_tail>
    2b4a:	44 27       	eor	r20, r20
    2b4c:	55 27       	eor	r21, r21
    2b4e:	f4 9b       	sbis	0x1e, 4	; 30
    2b50:	43 2d       	mov	r20, r3
    2b52:	0c cf       	rjmp	.-488    	; 0x296c <cluster_c_tail>
    2b54:	66 27       	eor	r22, r22
    2b56:	77 27       	eor	r23, r23
    2b58:	f4 9b       	sbis	0x1e, 4	; 30
    2b5a:	63 2d       	mov	r22, r3
    2b5c:	07 cf       	rjmp	.-498    	; 0x296c <cluster_c_tail>

00002b5e <f8_table_end>:
    2b5e:	6c c0       	rjmp	.+216    	; 0x2c38 <fa_forward_table_end>
    2b60:	77 c0       	rjmp	.+238    	; 0x2c50 <fa_shl_c1>
    2b62:	82 c0       	rjmp	.+260    	; 0x2c68 <fa_shl_c2>
    2b64:	8d c0       	rjmp	.+282    	; 0x2c80 <fa_shl_c3>
    2b66:	98 c0       	rjmp	.+304    	; 0x2c98 <fa_lsr_c0>
    2b68:	a3 c0       	rjmp	.+326    	; 0x2cb0 <fa_lsr_c1>
    2b6a:	ae c0       	rjmp	.+348    	; 0x2cc8 <fa_lsr_c2>
    2b6c:	b9 c0       	rjmp	.+370    	; 0x2ce0 <fa_lsr_c3>
    2b6e:	c4 c0       	rjmp	.+392    	; 0x2cf8 <fa_asr_c0>
    2b70:	d0 c0       	rjmp	.+416    	; 0x2d12 <fa_asr_c1>
    2b72:	dc c0       	rjmp	.+440    	; 0x2d2c <fa_asr_c2>
    2b74:	e8 c0       	rjmp	.+464    	; 0x2d46 <fa_asr_c3>

00002b76 <fa_immediate_invalid>:
    2b76:	ff cf       	rjmp	.-2      	; 0x2b76 <fa_immediate_invalid>

00002b78 <fa_forward_table>:
    2b78:	a0 2f       	mov	r26, r16
    2b7a:	5e c0       	rjmp	.+188    	; 0x2c38 <fa_forward_table_end>
    2b7c:	a2 2f       	mov	r26, r18
    2b7e:	5c c0       	rjmp	.+184    	; 0x2c38 <fa_forward_table_end>
    2b80:	a4 2f       	mov	r26, r20
    2b82:	5a c0       	rjmp	.+180    	; 0x2c38 <fa_forward_table_end>
    2b84:	a6 2f       	mov	r26, r22
    2b86:	58 c0       	rjmp	.+176    	; 0x2c38 <fa_forward_table_end>
    2b88:	a0 2f       	mov	r26, r16
    2b8a:	62 c0       	rjmp	.+196    	; 0x2c50 <fa_shl_c1>
    2b8c:	a2 2f       	mov	r26, r18
    2b8e:	60 c0       	rjmp	.+192    	; 0x2c50 <fa_shl_c1>
    2b90:	a4 2f       	mov	r26, r20
    2b92:	5e c0       	rjmp	.+188    	; 0x2c50 <fa_shl_c1>
    2b94:	a6 2f       	mov	r26, r22
    2b96:	5c c0       	rjmp	.+184    	; 0x2c50 <fa_shl_c1>
    2b98:	a0 2f       	mov	r26, r16
    2b9a:	66 c0       	rjmp	.+204    	; 0x2c68 <fa_shl_c2>
    2b9c:	a2 2f       	mov	r26, r18
    2b9e:	64 c0       	rjmp	.+200    	; 0x2c68 <fa_shl_c2>
    2ba0:	a4 2f       	mov	r26, r20
    2ba2:	62 c0       	rjmp	.+196    	; 0x2c68 <fa_shl_c2>
    2ba4:	a6 2f       	mov	r26, r22
    2ba6:	60 c0       	rjmp	.+192    	; 0x2c68 <fa_shl_c2>
    2ba8:	a0 2f       	mov	r26, r16
    2baa:	6a c0       	rjmp	.+212    	; 0x2c80 <fa_shl_c3>
    2bac:	a2 2f       	mov	r26, r18
    2bae:	68 c0       	rjmp	.+208    	; 0x2c80 <fa_shl_c3>
    2bb0:	a4 2f       	mov	r26, r20
    2bb2:	66 c0       	rjmp	.+204    	; 0x2c80 <fa_shl_c3>
    2bb4:	a6 2f       	mov	r26, r22
    2bb6:	64 c0       	rjmp	.+200    	; 0x2c80 <fa_shl_c3>
    2bb8:	a0 2f       	mov	r26, r16
    2bba:	6e c0       	rjmp	.+220    	; 0x2c98 <fa_lsr_c0>
    2bbc:	a2 2f       	mov	r26, r18
    2bbe:	6c c0       	rjmp	.+216    	; 0x2c98 <fa_lsr_c0>
    2bc0:	a4 2f       	mov	r26, r20
    2bc2:	6a c0       	rjmp	.+212    	; 0x2c98 <fa_lsr_c0>
    2bc4:	a6 2f       	mov	r26, r22
    2bc6:	68 c0       	rjmp	.+208    	; 0x2c98 <fa_lsr_c0>
    2bc8:	a0 2f       	mov	r26, r16
    2bca:	72 c0       	rjmp	.+228    	; 0x2cb0 <fa_lsr_c1>
    2bcc:	a2 2f       	mov	r26, r18
    2bce:	70 c0       	rjmp	.+224    	; 0x2cb0 <fa_lsr_c1>
    2bd0:	a4 2f       	mov	r26, r20
    2bd2:	6e c0       	rjmp	.+220    	; 0x2cb0 <fa_lsr_c1>
    2bd4:	a6 2f       	mov	r26, r22
    2bd6:	6c c0       	rjmp	.+216    	; 0x2cb0 <fa_lsr_c1>
    2bd8:	a0 2f       	mov	r26, r16
    2bda:	76 c0       	rjmp	.+236    	; 0x2cc8 <fa_lsr_c2>
    2bdc:	a2 2f       	mov	r26, r18
    2bde:	74 c0       	rjmp	.+232    	; 0x2cc8 <fa_lsr_c2>
    2be0:	a4 2f       	mov	r26, r20
    2be2:	72 c0       	rjmp	.+228    	; 0x2cc8 <fa_lsr_c2>
    2be4:	a6 2f       	mov	r26, r22
    2be6:	70 c0       	rjmp	.+224    	; 0x2cc8 <fa_lsr_c2>
    2be8:	a0 2f       	mov	r26, r16
    2bea:	7a c0       	rjmp	.+244    	; 0x2ce0 <fa_lsr_c3>
    2bec:	a2 2f       	mov	r26, r18
    2bee:	78 c0       	rjmp	.+240    	; 0x2ce0 <fa_lsr_c3>
    2bf0:	a4 2f       	mov	r26, r20
    2bf2:	76 c0       	rjmp	.+236    	; 0x2ce0 <fa_lsr_c3>
    2bf4:	a6 2f       	mov	r26, r22
    2bf6:	74 c0       	rjmp	.+232    	; 0x2ce0 <fa_lsr_c3>
    2bf8:	a0 2f       	mov	r26, r16
    2bfa:	7e c0       	rjmp	.+252    	; 0x2cf8 <fa_asr_c0>
    2bfc:	a2 2f       	mov	r26, r18
    2bfe:	7c c0       	rjmp	.+248    	; 0x2cf8 <fa_asr_c0>
    2c00:	a4 2f       	mov	r26, r20
    2c02:	7a c0       	rjmp	.+244    	; 0x2cf8 <fa_asr_c0>
    2c04:	a6 2f       	mov	r26, r22
    2c06:	78 c0       	rjmp	.+240    	; 0x2cf8 <fa_asr_c0>
    2c08:	a0 2f       	mov	r26, r16
    2c0a:	83 c0       	rjmp	.+262    	; 0x2d12 <fa_asr_c1>
    2c0c:	a2 2f       	mov	r26, r18
    2c0e:	81 c0       	rjmp	.+258    	; 0x2d12 <fa_asr_c1>
    2c10:	a4 2f       	mov	r26, r20
    2c12:	7f c0       	rjmp	.+254    	; 0x2d12 <fa_asr_c1>
    2c14:	a6 2f       	mov	r26, r22
    2c16:	7d c0       	rjmp	.+250    	; 0x2d12 <fa_asr_c1>
    2c18:	a0 2f       	mov	r26, r16
    2c1a:	88 c0       	rjmp	.+272    	; 0x2d2c <fa_asr_c2>
    2c1c:	a2 2f       	mov	r26, r18
    2c1e:	86 c0       	rjmp	.+268    	; 0x2d2c <fa_asr_c2>
    2c20:	a4 2f       	mov	r26, r20
    2c22:	84 c0       	rjmp	.+264    	; 0x2d2c <fa_asr_c2>
    2c24:	a6 2f       	mov	r26, r22
    2c26:	82 c0       	rjmp	.+260    	; 0x2d2c <fa_asr_c2>
    2c28:	a0 2f       	mov	r26, r16
    2c2a:	8d c0       	rjmp	.+282    	; 0x2d46 <fa_asr_c3>
    2c2c:	a2 2f       	mov	r26, r18
    2c2e:	8b c0       	rjmp	.+278    	; 0x2d46 <fa_asr_c3>
    2c30:	a4 2f       	mov	r26, r20
    2c32:	89 c0       	rjmp	.+274    	; 0x2d46 <fa_asr_c3>
    2c34:	a6 2f       	mov	r26, r22
    2c36:	87 c0       	rjmp	.+270    	; 0x2d46 <fa_asr_c3>

00002c38 <fa_forward_table_end>:
    2c38:	af 70       	andi	r26, 0x0F	; 15
    2c3a:	a3 ff       	sbrs	r26, 3
    2c3c:	03 c0       	rjmp	.+6      	; 0x2c44 <.Lfa_shl_no8_1562>
    2c3e:	10 2f       	mov	r17, r16
    2c40:	00 27       	eor	r16, r16
    2c42:	a7 70       	andi	r26, 0x07	; 7

00002c44 <.Lfa_shl_no8_1562>:
    2c44:	21 f0       	breq	.+8      	; 0x2c4e <.Lfa_shl_done_1562>

00002c46 <.Lfa_shl_loop_1562>:
    2c46:	00 0f       	add	r16, r16
    2c48:	11 1f       	adc	r17, r17
    2c4a:	aa 95       	dec	r26
    2c4c:	e1 f7       	brne	.-8      	; 0x2c46 <.Lfa_shl_loop_1562>

00002c4e <.Lfa_shl_done_1562>:
    2c4e:	8e ce       	rjmp	.-740    	; 0x296c <cluster_c_tail>

00002c50 <fa_shl_c1>:
    2c50:	af 70       	andi	r26, 0x0F	; 15
    2c52:	a3 ff       	sbrs	r26, 3
    2c54:	03 c0       	rjmp	.+6      	; 0x2c5c <.Lfa_shl_no8_1563>
    2c56:	32 2f       	mov	r19, r18
    2c58:	22 27       	eor	r18, r18
    2c5a:	a7 70       	andi	r26, 0x07	; 7

00002c5c <.Lfa_shl_no8_1563>:
    2c5c:	21 f0       	breq	.+8      	; 0x2c66 <.Lfa_shl_done_1563>

00002c5e <.Lfa_shl_loop_1563>:
    2c5e:	22 0f       	add	r18, r18
    2c60:	33 1f       	adc	r19, r19
    2c62:	aa 95       	dec	r26
    2c64:	e1 f7       	brne	.-8      	; 0x2c5e <.Lfa_shl_loop_1563>

00002c66 <.Lfa_shl_done_1563>:
    2c66:	82 ce       	rjmp	.-764    	; 0x296c <cluster_c_tail>

00002c68 <fa_shl_c2>:
    2c68:	af 70       	andi	r26, 0x0F	; 15
    2c6a:	a3 ff       	sbrs	r26, 3
    2c6c:	03 c0       	rjmp	.+6      	; 0x2c74 <.Lfa_shl_no8_1564>
    2c6e:	54 2f       	mov	r21, r20
    2c70:	44 27       	eor	r20, r20
    2c72:	a7 70       	andi	r26, 0x07	; 7

00002c74 <.Lfa_shl_no8_1564>:
    2c74:	21 f0       	breq	.+8      	; 0x2c7e <.Lfa_shl_done_1564>

00002c76 <.Lfa_shl_loop_1564>:
    2c76:	44 0f       	add	r20, r20
    2c78:	55 1f       	adc	r21, r21
    2c7a:	aa 95       	dec	r26
    2c7c:	e1 f7       	brne	.-8      	; 0x2c76 <.Lfa_shl_loop_1564>

00002c7e <.Lfa_shl_done_1564>:
    2c7e:	76 ce       	rjmp	.-788    	; 0x296c <cluster_c_tail>

00002c80 <fa_shl_c3>:
    2c80:	af 70       	andi	r26, 0x0F	; 15
    2c82:	a3 ff       	sbrs	r26, 3
    2c84:	03 c0       	rjmp	.+6      	; 0x2c8c <.Lfa_shl_no8_1565>
    2c86:	76 2f       	mov	r23, r22
    2c88:	66 27       	eor	r22, r22
    2c8a:	a7 70       	andi	r26, 0x07	; 7

00002c8c <.Lfa_shl_no8_1565>:
    2c8c:	21 f0       	breq	.+8      	; 0x2c96 <.Lfa_shl_done_1565>

00002c8e <.Lfa_shl_loop_1565>:
    2c8e:	66 0f       	add	r22, r22
    2c90:	77 1f       	adc	r23, r23
    2c92:	aa 95       	dec	r26
    2c94:	e1 f7       	brne	.-8      	; 0x2c8e <.Lfa_shl_loop_1565>

00002c96 <.Lfa_shl_done_1565>:
    2c96:	6a ce       	rjmp	.-812    	; 0x296c <cluster_c_tail>

00002c98 <fa_lsr_c0>:
    2c98:	af 70       	andi	r26, 0x0F	; 15
    2c9a:	a3 ff       	sbrs	r26, 3
    2c9c:	03 c0       	rjmp	.+6      	; 0x2ca4 <.Lfa_lsr_no8_1566>
    2c9e:	01 2f       	mov	r16, r17
    2ca0:	11 27       	eor	r17, r17
    2ca2:	a7 70       	andi	r26, 0x07	; 7

00002ca4 <.Lfa_lsr_no8_1566>:
    2ca4:	21 f0       	breq	.+8      	; 0x2cae <.Lfa_lsr_done_1566>

00002ca6 <.Lfa_lsr_loop_1566>:
    2ca6:	16 95       	lsr	r17
    2ca8:	07 95       	ror	r16
    2caa:	aa 95       	dec	r26
    2cac:	e1 f7       	brne	.-8      	; 0x2ca6 <.Lfa_lsr_loop_1566>

00002cae <.Lfa_lsr_done_1566>:
    2cae:	5e ce       	rjmp	.-836    	; 0x296c <cluster_c_tail>

00002cb0 <fa_lsr_c1>:
    2cb0:	af 70       	andi	r26, 0x0F	; 15
    2cb2:	a3 ff       	sbrs	r26, 3
    2cb4:	03 c0       	rjmp	.+6      	; 0x2cbc <.Lfa_lsr_no8_1567>
    2cb6:	23 2f       	mov	r18, r19
    2cb8:	33 27       	eor	r19, r19
    2cba:	a7 70       	andi	r26, 0x07	; 7

00002cbc <.Lfa_lsr_no8_1567>:
    2cbc:	21 f0       	breq	.+8      	; 0x2cc6 <.Lfa_lsr_done_1567>

00002cbe <.Lfa_lsr_loop_1567>:
    2cbe:	36 95       	lsr	r19
    2cc0:	27 95       	ror	r18
    2cc2:	aa 95       	dec	r26
    2cc4:	e1 f7       	brne	.-8      	; 0x2cbe <.Lfa_lsr_loop_1567>

00002cc6 <.Lfa_lsr_done_1567>:
    2cc6:	52 ce       	rjmp	.-860    	; 0x296c <cluster_c_tail>

00002cc8 <fa_lsr_c2>:
    2cc8:	af 70       	andi	r26, 0x0F	; 15
    2cca:	a3 ff       	sbrs	r26, 3
    2ccc:	03 c0       	rjmp	.+6      	; 0x2cd4 <.Lfa_lsr_no8_1568>
    2cce:	45 2f       	mov	r20, r21
    2cd0:	55 27       	eor	r21, r21
    2cd2:	a7 70       	andi	r26, 0x07	; 7

00002cd4 <.Lfa_lsr_no8_1568>:
    2cd4:	21 f0       	breq	.+8      	; 0x2cde <.Lfa_lsr_done_1568>

00002cd6 <.Lfa_lsr_loop_1568>:
    2cd6:	56 95       	lsr	r21
    2cd8:	47 95       	ror	r20
    2cda:	aa 95       	dec	r26
    2cdc:	e1 f7       	brne	.-8      	; 0x2cd6 <.Lfa_lsr_loop_1568>

00002cde <.Lfa_lsr_done_1568>:
    2cde:	46 ce       	rjmp	.-884    	; 0x296c <cluster_c_tail>

00002ce0 <fa_lsr_c3>:
    2ce0:	af 70       	andi	r26, 0x0F	; 15
    2ce2:	a3 ff       	sbrs	r26, 3
    2ce4:	03 c0       	rjmp	.+6      	; 0x2cec <.Lfa_lsr_no8_1569>
    2ce6:	67 2f       	mov	r22, r23
    2ce8:	77 27       	eor	r23, r23
    2cea:	a7 70       	andi	r26, 0x07	; 7

00002cec <.Lfa_lsr_no8_1569>:
    2cec:	21 f0       	breq	.+8      	; 0x2cf6 <.Lfa_lsr_done_1569>

00002cee <.Lfa_lsr_loop_1569>:
    2cee:	76 95       	lsr	r23
    2cf0:	67 95       	ror	r22
    2cf2:	aa 95       	dec	r26
    2cf4:	e1 f7       	brne	.-8      	; 0x2cee <.Lfa_lsr_loop_1569>

00002cf6 <.Lfa_lsr_done_1569>:
    2cf6:	3a ce       	rjmp	.-908    	; 0x296c <cluster_c_tail>

00002cf8 <fa_asr_c0>:
    2cf8:	af 70       	andi	r26, 0x0F	; 15
    2cfa:	a3 ff       	sbrs	r26, 3
    2cfc:	04 c0       	rjmp	.+8      	; 0x2d06 <.Lfa_asr_no8_1570>
    2cfe:	01 2f       	mov	r16, r17
    2d00:	11 0f       	add	r17, r17
    2d02:	11 0b       	sbc	r17, r17
    2d04:	a7 70       	andi	r26, 0x07	; 7

00002d06 <.Lfa_asr_no8_1570>:
    2d06:	21 f0       	breq	.+8      	; 0x2d10 <.Lfa_asr_done_1570>

00002d08 <.Lfa_asr_loop_1570>:
    2d08:	15 95       	asr	r17
    2d0a:	07 95       	ror	r16
    2d0c:	aa 95       	dec	r26
    2d0e:	e1 f7       	brne	.-8      	; 0x2d08 <.Lfa_asr_loop_1570>

00002d10 <.Lfa_asr_done_1570>:
    2d10:	2d ce       	rjmp	.-934    	; 0x296c <cluster_c_tail>

00002d12 <fa_asr_c1>:
    2d12:	af 70       	andi	r26, 0x0F	; 15
    2d14:	a3 ff       	sbrs	r26, 3
    2d16:	04 c0       	rjmp	.+8      	; 0x2d20 <.Lfa_asr_no8_1571>
    2d18:	23 2f       	mov	r18, r19
    2d1a:	33 0f       	add	r19, r19
    2d1c:	33 0b       	sbc	r19, r19
    2d1e:	a7 70       	andi	r26, 0x07	; 7

00002d20 <.Lfa_asr_no8_1571>:
    2d20:	21 f0       	breq	.+8      	; 0x2d2a <.Lfa_asr_done_1571>

00002d22 <.Lfa_asr_loop_1571>:
    2d22:	35 95       	asr	r19
    2d24:	27 95       	ror	r18
    2d26:	aa 95       	dec	r26
    2d28:	e1 f7       	brne	.-8      	; 0x2d22 <.Lfa_asr_loop_1571>

00002d2a <.Lfa_asr_done_1571>:
    2d2a:	20 ce       	rjmp	.-960    	; 0x296c <cluster_c_tail>

00002d2c <fa_asr_c2>:
    2d2c:	af 70       	andi	r26, 0x0F	; 15
    2d2e:	a3 ff       	sbrs	r26, 3
    2d30:	04 c0       	rjmp	.+8      	; 0x2d3a <.Lfa_asr_no8_1572>
    2d32:	45 2f       	mov	r20, r21
    2d34:	55 0f       	add	r21, r21
    2d36:	55 0b       	sbc	r21, r21
    2d38:	a7 70       	andi	r26, 0x07	; 7

00002d3a <.Lfa_asr_no8_1572>:
    2d3a:	21 f0       	breq	.+8      	; 0x2d44 <.Lfa_asr_done_1572>

00002d3c <.Lfa_asr_loop_1572>:
    2d3c:	55 95       	asr	r21
    2d3e:	47 95       	ror	r20
    2d40:	aa 95       	dec	r26
    2d42:	e1 f7       	brne	.-8      	; 0x2d3c <.Lfa_asr_loop_1572>

00002d44 <.Lfa_asr_done_1572>:
    2d44:	13 ce       	rjmp	.-986    	; 0x296c <cluster_c_tail>

00002d46 <fa_asr_c3>:
    2d46:	af 70       	andi	r26, 0x0F	; 15
    2d48:	a3 ff       	sbrs	r26, 3
    2d4a:	04 c0       	rjmp	.+8      	; 0x2d54 <.Lfa_asr_no8_1573>
    2d4c:	67 2f       	mov	r22, r23
    2d4e:	77 0f       	add	r23, r23
    2d50:	77 0b       	sbc	r23, r23
    2d52:	a7 70       	andi	r26, 0x07	; 7

00002d54 <.Lfa_asr_no8_1573>:
    2d54:	21 f0       	breq	.+8      	; 0x2d5e <.Lfa_asr_done_1573>

00002d56 <.Lfa_asr_loop_1573>:
    2d56:	75 95       	asr	r23
    2d58:	67 95       	ror	r22
    2d5a:	aa 95       	dec	r26
    2d5c:	e1 f7       	brne	.-8      	; 0x2d56 <.Lfa_asr_loop_1573>

00002d5e <.Lfa_asr_done_1573>:
    2d5e:	06 ce       	rjmp	.-1012   	; 0x296c <cluster_c_tail>

00002d60 <cmov_table>:
    2d60:	44 01       	movw	r8, r8
    2d62:	04 ce       	rjmp	.-1016   	; 0x296c <cluster_c_tail>
    2d64:	45 01       	movw	r8, r10
    2d66:	02 ce       	rjmp	.-1020   	; 0x296c <cluster_c_tail>
    2d68:	46 01       	movw	r8, r12
    2d6a:	00 ce       	rjmp	.-1024   	; 0x296c <cluster_c_tail>
    2d6c:	47 01       	movw	r8, r14
    2d6e:	fe cd       	rjmp	.-1028   	; 0x296c <cluster_c_tail>
    2d70:	48 01       	movw	r8, r16
    2d72:	fc cd       	rjmp	.-1032   	; 0x296c <cluster_c_tail>
    2d74:	49 01       	movw	r8, r18
    2d76:	fa cd       	rjmp	.-1036   	; 0x296c <cluster_c_tail>
    2d78:	4a 01       	movw	r8, r20
    2d7a:	f8 cd       	rjmp	.-1040   	; 0x296c <cluster_c_tail>
    2d7c:	4b 01       	movw	r8, r22
    2d7e:	f6 cd       	rjmp	.-1044   	; 0x296c <cluster_c_tail>
    2d80:	54 01       	movw	r10, r8
    2d82:	f4 cd       	rjmp	.-1048   	; 0x296c <cluster_c_tail>
    2d84:	55 01       	movw	r10, r10
    2d86:	f2 cd       	rjmp	.-1052   	; 0x296c <cluster_c_tail>
    2d88:	56 01       	movw	r10, r12
    2d8a:	f0 cd       	rjmp	.-1056   	; 0x296c <cluster_c_tail>
    2d8c:	57 01       	movw	r10, r14
    2d8e:	ee cd       	rjmp	.-1060   	; 0x296c <cluster_c_tail>
    2d90:	58 01       	movw	r10, r16
    2d92:	ec cd       	rjmp	.-1064   	; 0x296c <cluster_c_tail>
    2d94:	59 01       	movw	r10, r18
    2d96:	ea cd       	rjmp	.-1068   	; 0x296c <cluster_c_tail>
    2d98:	5a 01       	movw	r10, r20
    2d9a:	e8 cd       	rjmp	.-1072   	; 0x296c <cluster_c_tail>
    2d9c:	5b 01       	movw	r10, r22
    2d9e:	e6 cd       	rjmp	.-1076   	; 0x296c <cluster_c_tail>
    2da0:	64 01       	movw	r12, r8
    2da2:	e4 cd       	rjmp	.-1080   	; 0x296c <cluster_c_tail>
    2da4:	65 01       	movw	r12, r10
    2da6:	e2 cd       	rjmp	.-1084   	; 0x296c <cluster_c_tail>
    2da8:	66 01       	movw	r12, r12
    2daa:	e0 cd       	rjmp	.-1088   	; 0x296c <cluster_c_tail>
    2dac:	67 01       	movw	r12, r14
    2dae:	de cd       	rjmp	.-1092   	; 0x296c <cluster_c_tail>
    2db0:	68 01       	movw	r12, r16
    2db2:	dc cd       	rjmp	.-1096   	; 0x296c <cluster_c_tail>
    2db4:	69 01       	movw	r12, r18
    2db6:	da cd       	rjmp	.-1100   	; 0x296c <cluster_c_tail>
    2db8:	6a 01       	movw	r12, r20
    2dba:	d8 cd       	rjmp	.-1104   	; 0x296c <cluster_c_tail>
    2dbc:	6b 01       	movw	r12, r22
    2dbe:	d6 cd       	rjmp	.-1108   	; 0x296c <cluster_c_tail>
    2dc0:	74 01       	movw	r14, r8
    2dc2:	d4 cd       	rjmp	.-1112   	; 0x296c <cluster_c_tail>
    2dc4:	75 01       	movw	r14, r10
    2dc6:	d2 cd       	rjmp	.-1116   	; 0x296c <cluster_c_tail>
    2dc8:	76 01       	movw	r14, r12
    2dca:	d0 cd       	rjmp	.-1120   	; 0x296c <cluster_c_tail>
    2dcc:	77 01       	movw	r14, r14
    2dce:	ce cd       	rjmp	.-1124   	; 0x296c <cluster_c_tail>
    2dd0:	78 01       	movw	r14, r16
    2dd2:	cc cd       	rjmp	.-1128   	; 0x296c <cluster_c_tail>
    2dd4:	79 01       	movw	r14, r18
    2dd6:	ca cd       	rjmp	.-1132   	; 0x296c <cluster_c_tail>
    2dd8:	7a 01       	movw	r14, r20
    2dda:	c8 cd       	rjmp	.-1136   	; 0x296c <cluster_c_tail>
    2ddc:	7b 01       	movw	r14, r22
    2dde:	c6 cd       	rjmp	.-1140   	; 0x296c <cluster_c_tail>
    2de0:	84 01       	movw	r16, r8
    2de2:	c4 cd       	rjmp	.-1144   	; 0x296c <cluster_c_tail>
    2de4:	85 01       	movw	r16, r10
    2de6:	c2 cd       	rjmp	.-1148   	; 0x296c <cluster_c_tail>
    2de8:	86 01       	movw	r16, r12
    2dea:	c0 cd       	rjmp	.-1152   	; 0x296c <cluster_c_tail>
    2dec:	87 01       	movw	r16, r14
    2dee:	be cd       	rjmp	.-1156   	; 0x296c <cluster_c_tail>
    2df0:	88 01       	movw	r16, r16
    2df2:	bc cd       	rjmp	.-1160   	; 0x296c <cluster_c_tail>
    2df4:	89 01       	movw	r16, r18
    2df6:	ba cd       	rjmp	.-1164   	; 0x296c <cluster_c_tail>
    2df8:	8a 01       	movw	r16, r20
    2dfa:	b8 cd       	rjmp	.-1168   	; 0x296c <cluster_c_tail>
    2dfc:	8b 01       	movw	r16, r22
    2dfe:	b6 cd       	rjmp	.-1172   	; 0x296c <cluster_c_tail>
    2e00:	94 01       	movw	r18, r8
    2e02:	b4 cd       	rjmp	.-1176   	; 0x296c <cluster_c_tail>
    2e04:	95 01       	movw	r18, r10
    2e06:	b2 cd       	rjmp	.-1180   	; 0x296c <cluster_c_tail>
    2e08:	96 01       	movw	r18, r12
    2e0a:	b0 cd       	rjmp	.-1184   	; 0x296c <cluster_c_tail>
    2e0c:	97 01       	movw	r18, r14
    2e0e:	ae cd       	rjmp	.-1188   	; 0x296c <cluster_c_tail>
    2e10:	98 01       	movw	r18, r16
    2e12:	ac cd       	rjmp	.-1192   	; 0x296c <cluster_c_tail>
    2e14:	99 01       	movw	r18, r18
    2e16:	aa cd       	rjmp	.-1196   	; 0x296c <cluster_c_tail>
    2e18:	9a 01       	movw	r18, r20
    2e1a:	a8 cd       	rjmp	.-1200   	; 0x296c <cluster_c_tail>
    2e1c:	9b 01       	movw	r18, r22
    2e1e:	a6 cd       	rjmp	.-1204   	; 0x296c <cluster_c_tail>
    2e20:	a4 01       	movw	r20, r8
    2e22:	a4 cd       	rjmp	.-1208   	; 0x296c <cluster_c_tail>
    2e24:	a5 01       	movw	r20, r10
    2e26:	a2 cd       	rjmp	.-1212   	; 0x296c <cluster_c_tail>
    2e28:	a6 01       	movw	r20, r12
    2e2a:	a0 cd       	rjmp	.-1216   	; 0x296c <cluster_c_tail>
    2e2c:	a7 01       	movw	r20, r14
    2e2e:	9e cd       	rjmp	.-1220   	; 0x296c <cluster_c_tail>
    2e30:	a8 01       	movw	r20, r16
    2e32:	9c cd       	rjmp	.-1224   	; 0x296c <cluster_c_tail>
    2e34:	a9 01       	movw	r20, r18
    2e36:	9a cd       	rjmp	.-1228   	; 0x296c <cluster_c_tail>
    2e38:	aa 01       	movw	r20, r20
    2e3a:	98 cd       	rjmp	.-1232   	; 0x296c <cluster_c_tail>
    2e3c:	ab 01       	movw	r20, r22
    2e3e:	96 cd       	rjmp	.-1236   	; 0x296c <cluster_c_tail>
    2e40:	b4 01       	movw	r22, r8
    2e42:	94 cd       	rjmp	.-1240   	; 0x296c <cluster_c_tail>
    2e44:	b5 01       	movw	r22, r10
    2e46:	92 cd       	rjmp	.-1244   	; 0x296c <cluster_c_tail>
    2e48:	b6 01       	movw	r22, r12
    2e4a:	90 cd       	rjmp	.-1248   	; 0x296c <cluster_c_tail>
    2e4c:	b7 01       	movw	r22, r14
    2e4e:	8e cd       	rjmp	.-1252   	; 0x296c <cluster_c_tail>
    2e50:	b8 01       	movw	r22, r16
    2e52:	8c cd       	rjmp	.-1256   	; 0x296c <cluster_c_tail>
    2e54:	b9 01       	movw	r22, r18
    2e56:	8a cd       	rjmp	.-1260   	; 0x296c <cluster_c_tail>
    2e58:	ba 01       	movw	r22, r20
    2e5a:	88 cd       	rjmp	.-1264   	; 0x296c <cluster_c_tail>
    2e5c:	bb 01       	movw	r22, r22
    2e5e:	86 cd       	rjmp	.-1268   	; 0x296c <cluster_c_tail>

00002e60 <cmov_table_end>:
    2e60:	d4 01       	movw	r26, r8
    2e62:	7e c0       	rjmp	.+252    	; 0x2f60 <fe_forward_table_end>
    2e64:	d5 01       	movw	r26, r10
    2e66:	7c c0       	rjmp	.+248    	; 0x2f60 <fe_forward_table_end>
    2e68:	d6 01       	movw	r26, r12
    2e6a:	7a c0       	rjmp	.+244    	; 0x2f60 <fe_forward_table_end>
    2e6c:	d7 01       	movw	r26, r14
    2e6e:	78 c0       	rjmp	.+240    	; 0x2f60 <fe_forward_table_end>
    2e70:	d8 01       	movw	r26, r16
    2e72:	76 c0       	rjmp	.+236    	; 0x2f60 <fe_forward_table_end>
    2e74:	d9 01       	movw	r26, r18
    2e76:	74 c0       	rjmp	.+232    	; 0x2f60 <fe_forward_table_end>
    2e78:	da 01       	movw	r26, r20
    2e7a:	72 c0       	rjmp	.+228    	; 0x2f60 <fe_forward_table_end>
    2e7c:	db 01       	movw	r26, r22
    2e7e:	70 c0       	rjmp	.+224    	; 0x2f60 <fe_forward_table_end>
    2e80:	d4 01       	movw	r26, r8
    2e82:	76 c0       	rjmp	.+236    	; 0x2f70 <fe_mul16_r1>
    2e84:	d5 01       	movw	r26, r10
    2e86:	74 c0       	rjmp	.+232    	; 0x2f70 <fe_mul16_r1>
    2e88:	d6 01       	movw	r26, r12
    2e8a:	72 c0       	rjmp	.+228    	; 0x2f70 <fe_mul16_r1>
    2e8c:	d7 01       	movw	r26, r14
    2e8e:	70 c0       	rjmp	.+224    	; 0x2f70 <fe_mul16_r1>
    2e90:	d8 01       	movw	r26, r16
    2e92:	6e c0       	rjmp	.+220    	; 0x2f70 <fe_mul16_r1>
    2e94:	d9 01       	movw	r26, r18
    2e96:	6c c0       	rjmp	.+216    	; 0x2f70 <fe_mul16_r1>
    2e98:	da 01       	movw	r26, r20
    2e9a:	6a c0       	rjmp	.+212    	; 0x2f70 <fe_mul16_r1>
    2e9c:	db 01       	movw	r26, r22
    2e9e:	68 c0       	rjmp	.+208    	; 0x2f70 <fe_mul16_r1>
    2ea0:	d4 01       	movw	r26, r8
    2ea2:	6e c0       	rjmp	.+220    	; 0x2f80 <fe_mul16_r2>
    2ea4:	d5 01       	movw	r26, r10
    2ea6:	6c c0       	rjmp	.+216    	; 0x2f80 <fe_mul16_r2>
    2ea8:	d6 01       	movw	r26, r12
    2eaa:	6a c0       	rjmp	.+212    	; 0x2f80 <fe_mul16_r2>
    2eac:	d7 01       	movw	r26, r14
    2eae:	68 c0       	rjmp	.+208    	; 0x2f80 <fe_mul16_r2>
    2eb0:	d8 01       	movw	r26, r16
    2eb2:	66 c0       	rjmp	.+204    	; 0x2f80 <fe_mul16_r2>
    2eb4:	d9 01       	movw	r26, r18
    2eb6:	64 c0       	rjmp	.+200    	; 0x2f80 <fe_mul16_r2>
    2eb8:	da 01       	movw	r26, r20
    2eba:	62 c0       	rjmp	.+196    	; 0x2f80 <fe_mul16_r2>
    2ebc:	db 01       	movw	r26, r22
    2ebe:	60 c0       	rjmp	.+192    	; 0x2f80 <fe_mul16_r2>
    2ec0:	d4 01       	movw	r26, r8
    2ec2:	66 c0       	rjmp	.+204    	; 0x2f90 <fe_mul16_r3>
    2ec4:	d5 01       	movw	r26, r10
    2ec6:	64 c0       	rjmp	.+200    	; 0x2f90 <fe_mul16_r3>
    2ec8:	d6 01       	movw	r26, r12
    2eca:	62 c0       	rjmp	.+196    	; 0x2f90 <fe_mul16_r3>
    2ecc:	d7 01       	movw	r26, r14
    2ece:	60 c0       	rjmp	.+192    	; 0x2f90 <fe_mul16_r3>
    2ed0:	d8 01       	movw	r26, r16
    2ed2:	5e c0       	rjmp	.+188    	; 0x2f90 <fe_mul16_r3>
    2ed4:	d9 01       	movw	r26, r18
    2ed6:	5c c0       	rjmp	.+184    	; 0x2f90 <fe_mul16_r3>
    2ed8:	da 01       	movw	r26, r20
    2eda:	5a c0       	rjmp	.+180    	; 0x2f90 <fe_mul16_r3>
    2edc:	db 01       	movw	r26, r22
    2ede:	58 c0       	rjmp	.+176    	; 0x2f90 <fe_mul16_r3>
    2ee0:	d4 01       	movw	r26, r8
    2ee2:	5e c0       	rjmp	.+188    	; 0x2fa0 <fe_mul16_r4>
    2ee4:	d5 01       	movw	r26, r10
    2ee6:	5c c0       	rjmp	.+184    	; 0x2fa0 <fe_mul16_r4>
    2ee8:	d6 01       	movw	r26, r12
    2eea:	5a c0       	rjmp	.+180    	; 0x2fa0 <fe_mul16_r4>
    2eec:	d7 01       	movw	r26, r14
    2eee:	58 c0       	rjmp	.+176    	; 0x2fa0 <fe_mul16_r4>
    2ef0:	d8 01       	movw	r26, r16
    2ef2:	56 c0       	rjmp	.+172    	; 0x2fa0 <fe_mul16_r4>
    2ef4:	d9 01       	movw	r26, r18
    2ef6:	54 c0       	rjmp	.+168    	; 0x2fa0 <fe_mul16_r4>
    2ef8:	da 01       	movw	r26, r20
    2efa:	52 c0       	rjmp	.+164    	; 0x2fa0 <fe_mul16_r4>
    2efc:	db 01       	movw	r26, r22
    2efe:	50 c0       	rjmp	.+160    	; 0x2fa0 <fe_mul16_r4>
    2f00:	d4 01       	movw	r26, r8
    2f02:	56 c0       	rjmp	.+172    	; 0x2fb0 <fe_mul16_r5>
    2f04:	d5 01       	movw	r26, r10
    2f06:	54 c0       	rjmp	.+168    	; 0x2fb0 <fe_mul16_r5>
    2f08:	d6 01       	movw	r26, r12
    2f0a:	52 c0       	rjmp	.+164    	; 0x2fb0 <fe_mul16_r5>
    2f0c:	d7 01       	movw	r26, r14
    2f0e:	50 c0       	rjmp	.+160    	; 0x2fb0 <fe_mul16_r5>
    2f10:	d8 01       	movw	r26, r16
    2f12:	4e c0       	rjmp	.+156    	; 0x2fb0 <fe_mul16_r5>
    2f14:	d9 01       	movw	r26, r18
    2f16:	4c c0       	rjmp	.+152    	; 0x2fb0 <fe_mul16_r5>
    2f18:	da 01       	movw	r26, r20
    2f1a:	4a c0       	rjmp	.+148    	; 0x2fb0 <fe_mul16_r5>
    2f1c:	db 01       	movw	r26, r22
    2f1e:	48 c0       	rjmp	.+144    	; 0x2fb0 <fe_mul16_r5>
    2f20:	d4 01       	movw	r26, r8
    2f22:	4e c0       	rjmp	.+156    	; 0x2fc0 <fe_mul16_r6>
    2f24:	d5 01       	movw	r26, r10
    2f26:	4c c0       	rjmp	.+152    	; 0x2fc0 <fe_mul16_r6>
    2f28:	d6 01       	movw	r26, r12
    2f2a:	4a c0       	rjmp	.+148    	; 0x2fc0 <fe_mul16_r6>
    2f2c:	d7 01       	movw	r26, r14
    2f2e:	48 c0       	rjmp	.+144    	; 0x2fc0 <fe_mul16_r6>
    2f30:	d8 01       	movw	r26, r16
    2f32:	46 c0       	rjmp	.+140    	; 0x2fc0 <fe_mul16_r6>
    2f34:	d9 01       	movw	r26, r18
    2f36:	44 c0       	rjmp	.+136    	; 0x2fc0 <fe_mul16_r6>
    2f38:	da 01       	movw	r26, r20
    2f3a:	42 c0       	rjmp	.+132    	; 0x2fc0 <fe_mul16_r6>
    2f3c:	db 01       	movw	r26, r22
    2f3e:	40 c0       	rjmp	.+128    	; 0x2fc0 <fe_mul16_r6>
    2f40:	d4 01       	movw	r26, r8
    2f42:	46 c0       	rjmp	.+140    	; 0x2fd0 <fe_mul16_r7>
    2f44:	d5 01       	movw	r26, r10
    2f46:	44 c0       	rjmp	.+136    	; 0x2fd0 <fe_mul16_r7>
    2f48:	d6 01       	movw	r26, r12
    2f4a:	42 c0       	rjmp	.+132    	; 0x2fd0 <fe_mul16_r7>
    2f4c:	d7 01       	movw	r26, r14
    2f4e:	40 c0       	rjmp	.+128    	; 0x2fd0 <fe_mul16_r7>
    2f50:	d8 01       	movw	r26, r16
    2f52:	3e c0       	rjmp	.+124    	; 0x2fd0 <fe_mul16_r7>
    2f54:	d9 01       	movw	r26, r18
    2f56:	3c c0       	rjmp	.+120    	; 0x2fd0 <fe_mul16_r7>
    2f58:	da 01       	movw	r26, r20
    2f5a:	3a c0       	rjmp	.+116    	; 0x2fd0 <fe_mul16_r7>
    2f5c:	db 01       	movw	r26, r22
    2f5e:	38 c0       	rjmp	.+112    	; 0x2fd0 <fe_mul16_r7>

00002f60 <fe_forward_table_end>:
    2f60:	f4 01       	movw	r30, r8
    2f62:	ea 9f       	mul	r30, r26
    2f64:	40 01       	movw	r8, r0
    2f66:	fa 9f       	mul	r31, r26
    2f68:	90 0c       	add	r9, r0
    2f6a:	eb 9f       	mul	r30, r27
    2f6c:	90 0c       	add	r9, r0
    2f6e:	fe cc       	rjmp	.-1540   	; 0x296c <cluster_c_tail>

00002f70 <fe_mul16_r1>:
    2f70:	f5 01       	movw	r30, r10
    2f72:	ea 9f       	mul	r30, r26
    2f74:	50 01       	movw	r10, r0
    2f76:	fa 9f       	mul	r31, r26
    2f78:	b0 0c       	add	r11, r0
    2f7a:	eb 9f       	mul	r30, r27
    2f7c:	b0 0c       	add	r11, r0
    2f7e:	f6 cc       	rjmp	.-1556   	; 0x296c <cluster_c_tail>

00002f80 <fe_mul16_r2>:
    2f80:	f6 01       	movw	r30, r12
    2f82:	ea 9f       	mul	r30, r26
    2f84:	60 01       	movw	r12, r0
    2f86:	fa 9f       	mul	r31, r26
    2f88:	d0 0c       	add	r13, r0
    2f8a:	eb 9f       	mul	r30, r27
    2f8c:	d0 0c       	add	r13, r0
    2f8e:	ee cc       	rjmp	.-1572   	; 0x296c <cluster_c_tail>

00002f90 <fe_mul16_r3>:
    2f90:	f7 01       	movw	r30, r14
    2f92:	ea 9f       	mul	r30, r26
    2f94:	70 01       	movw	r14, r0
    2f96:	fa 9f       	mul	r31, r26
    2f98:	f0 0c       	add	r15, r0
    2f9a:	eb 9f       	mul	r30, r27
    2f9c:	f0 0c       	add	r15, r0
    2f9e:	e6 cc       	rjmp	.-1588   	; 0x296c <cluster_c_tail>

00002fa0 <fe_mul16_r4>:
    2fa0:	f8 01       	movw	r30, r16
    2fa2:	ea 9f       	mul	r30, r26
    2fa4:	80 01       	movw	r16, r0
    2fa6:	fa 9f       	mul	r31, r26
    2fa8:	10 0d       	add	r17, r0
    2faa:	eb 9f       	mul	r30, r27
    2fac:	10 0d       	add	r17, r0
    2fae:	de cc       	rjmp	.-1604   	; 0x296c <cluster_c_tail>

00002fb0 <fe_mul16_r5>:
    2fb0:	f9 01       	movw	r30, r18
    2fb2:	ea 9f       	mul	r30, r26
    2fb4:	90 01       	movw	r18, r0
    2fb6:	fa 9f       	mul	r31, r26
    2fb8:	30 0d       	add	r19, r0
    2fba:	eb 9f       	mul	r30, r27
    2fbc:	30 0d       	add	r19, r0
    2fbe:	d6 cc       	rjmp	.-1620   	; 0x296c <cluster_c_tail>

00002fc0 <fe_mul16_r6>:
    2fc0:	fa 01       	movw	r30, r20
    2fc2:	ea 9f       	mul	r30, r26
    2fc4:	a0 01       	movw	r20, r0
    2fc6:	fa 9f       	mul	r31, r26
    2fc8:	50 0d       	add	r21, r0
    2fca:	eb 9f       	mul	r30, r27
    2fcc:	50 0d       	add	r21, r0
    2fce:	ce cc       	rjmp	.-1636   	; 0x296c <cluster_c_tail>

00002fd0 <fe_mul16_r7>:
    2fd0:	fb 01       	movw	r30, r22
    2fd2:	ea 9f       	mul	r30, r26
    2fd4:	b0 01       	movw	r22, r0
    2fd6:	fa 9f       	mul	r31, r26
    2fd8:	70 0d       	add	r23, r0
    2fda:	eb 9f       	mul	r30, r27
    2fdc:	70 0d       	add	r23, r0
    2fde:	c6 cc       	rjmp	.-1652   	; 0x296c <cluster_c_tail>

00002fe0 <fe_mul16_bodies_end>:
    2fe0:	59 9a       	sbi	0x0b, 1	; 11
    2fe2:	e3 e0       	ldi	r30, 0x03	; 3
    2fe4:	59 98       	cbi	0x0b, 1	; 11
    2fe6:	ee bd       	out	0x2e, r30	; 46
    2fe8:	a0 91 00 0a 	lds	r26, 0x0A00	; 0x800a00 <_end+0x900>
    2fec:	a5 0d       	add	r26, r5
    2fee:	b0 91 01 0a 	lds	r27, 0x0A01	; 0x800a01 <_end+0x901>
    2ff2:	b6 1d       	adc	r27, r6
    2ff4:	10 d0       	rcall	.+32     	; 0x3016 <fx_seek_delay_10>
    2ff6:	be bd       	out	0x2e, r27	; 46
    2ff8:	08 d0       	rcall	.+16     	; 0x300a <fx_seek_delay_17>
    2ffa:	ae bd       	out	0x2e, r26	; 46
    2ffc:	06 d0       	rcall	.+12     	; 0x300a <fx_seek_delay_17>
    2ffe:	4e bc       	out	0x2e, r4	; 46
    3000:	04 d0       	rcall	.+8      	; 0x300a <fx_seek_delay_17>
    3002:	2e bc       	out	0x2e, r2	; 46
    3004:	00 c0       	rjmp	.+0      	; 0x3006 <fe_mul16_bodies_end+0x26>
    3006:	07 d0       	rcall	.+14     	; 0x3016 <fx_seek_delay_10>
    3008:	08 95       	ret

0000300a <fx_seek_delay_17>:
    300a:	00 00       	nop

0000300c <fx_seek_delay_16>:
    300c:	00 c0       	rjmp	.+0      	; 0x300e <fx_seek_delay_14>

0000300e <fx_seek_delay_14>:
    300e:	00 00       	nop

00003010 <fx_seek_delay_13>:
    3010:	00 00       	nop

00003012 <fx_seek_delay_12>:
    3012:	00 00       	nop

00003014 <fx_seek_delay_11>:
    3014:	00 00       	nop

00003016 <fx_seek_delay_10>:
    3016:	00 00       	nop

00003018 <fx_seek_delay_9>:
    3018:	00 c0       	rjmp	.+0      	; 0x301a <fx_seek_delay_7>

0000301a <fx_seek_delay_7>:
    301a:	08 95       	ret

0000301c <startup_func>:
    301c:	f8 94       	cli
    301e:	af ef       	ldi	r26, 0xFF	; 255
    3020:	ad bf       	out	0x3d, r26	; 61
    3022:	aa e0       	ldi	r26, 0x0A	; 10
    3024:	ae bf       	out	0x3e, r26	; 62
    3026:	22 24       	eor	r2, r2
    3028:	a1 e0       	ldi	r26, 0x01	; 1
    302a:	3a 2e       	mov	r3, r26
    302c:	a4 e0       	ldi	r26, 0x04	; 4
    302e:	7a 2e       	mov	r7, r26
    3030:	20 92 06 0a 	sts	0x0A06, r2	; 0x800a06 <_end+0x906>
    3034:	20 92 07 0a 	sts	0x0A07, r2	; 0x800a07 <_end+0x907>
    3038:	20 92 08 0a 	sts	0x0A08, r2	; 0x800a08 <_end+0x908>
    303c:	20 92 09 0a 	sts	0x0A09, r2	; 0x800a09 <_end+0x909>
    3040:	20 92 0a 0a 	sts	0x0A0A, r2	; 0x800a0a <_end+0x90a>
    3044:	c0 e0       	ldi	r28, 0x00	; 0
    3046:	da e0       	ldi	r29, 0x0A	; 10
    3048:	2e ba       	out	0x1e, r2	; 30
    304a:	e9 d0       	rcall	.+466    	; 0x321e <hardware_init_pins_func>
    304c:	a0 e5       	ldi	r26, 0x50	; 80
    304e:	ac bd       	out	0x2c, r26	; 44
    3050:	a1 e0       	ldi	r26, 0x01	; 1
    3052:	ad bd       	out	0x2d, r26	; 45
    3054:	1b d1       	rcall	.+566    	; 0x328c <oled_startup_init_func>
    3056:	59 98       	cbi	0x0b, 1	; 11
    3058:	eb ea       	ldi	r30, 0xAB	; 171
    305a:	d7 d0       	rcall	.+430    	; 0x320a <fx_spi_transfer_blocking>
    305c:	59 9a       	sbi	0x0b, 1	; 11
    305e:	db d0       	rcall	.+438    	; 0x3216 <fx_startup_wake_delay>
    3060:	e4 e1       	ldi	r30, 0x14	; 20
    3062:	f0 e0       	ldi	r31, 0x00	; 0
    3064:	45 91       	lpm	r20, Z+
    3066:	55 91       	lpm	r21, Z+
    3068:	48 31       	cpi	r20, 0x18	; 24
    306a:	c1 f4       	brne	.+48     	; 0x309c <startup_find_development_image>
    306c:	55 39       	cpi	r21, 0x95	; 149
    306e:	b1 f4       	brne	.+44     	; 0x309c <startup_find_development_image>
    3070:	b5 91       	lpm	r27, Z+
    3072:	a5 91       	lpm	r26, Z+
    3074:	a0 93 00 0a 	sts	0x0A00, r26	; 0x800a00 <_end+0x900>
    3078:	b0 93 01 0a 	sts	0x0A01, r27	; 0x800a01 <_end+0x901>
    307c:	45 91       	lpm	r20, Z+
    307e:	55 91       	lpm	r21, Z+
    3080:	48 31       	cpi	r20, 0x18	; 24
    3082:	21 f5       	brne	.+72     	; 0x30cc <startup_read_header>
    3084:	55 39       	cpi	r21, 0x95	; 149
    3086:	11 f5       	brne	.+68     	; 0x30cc <startup_read_header>
    3088:	b5 91       	lpm	r27, Z+
    308a:	a5 91       	lpm	r26, Z+
    308c:	a0 93 02 0a 	sts	0x0A02, r26	; 0x800a02 <_end+0x902>
    3090:	b0 93 03 0a 	sts	0x0A03, r27	; 0x800a03 <_end+0x903>
    3094:	a1 e0       	ldi	r26, 0x01	; 1
    3096:	a0 93 06 0a 	sts	0x0A06, r26	; 0x800a06 <_end+0x906>
    309a:	18 c0       	rjmp	.+48     	; 0x30cc <startup_read_header>

0000309c <startup_find_development_image>:
    309c:	6f ef       	ldi	r22, 0xFF	; 255
    309e:	bf ef       	ldi	r27, 0xFF	; 255
    30a0:	a8 ef       	ldi	r26, 0xF8	; 248
    30a2:	44 27       	eor	r20, r20
    30a4:	55 27       	eor	r21, r21
    30a6:	82 d0       	rcall	.+260    	; 0x31ac <startup_try_tail>
    30a8:	88 f0       	brcs	.+34     	; 0x30cc <startup_read_header>
    30aa:	6f ef       	ldi	r22, 0xFF	; 255
    30ac:	bf ee       	ldi	r27, 0xEF	; 239
    30ae:	a8 ef       	ldi	r26, 0xF8	; 248
    30b0:	40 ef       	ldi	r20, 0xF0	; 240
    30b2:	5f ef       	ldi	r21, 0xFF	; 255
    30b4:	7b d0       	rcall	.+246    	; 0x31ac <startup_try_tail>
    30b6:	08 f0       	brcs	.+2      	; 0x30ba <.L1^B1>
    30b8:	66 c0       	rjmp	.+204    	; 0x3186 <startup_invalid_image>

000030ba <.L1^B1>:
    30ba:	a0 ef       	ldi	r26, 0xF0	; 240
    30bc:	bf ef       	ldi	r27, 0xFF	; 255
    30be:	a0 93 02 0a 	sts	0x0A02, r26	; 0x800a02 <_end+0x902>
    30c2:	b0 93 03 0a 	sts	0x0A03, r27	; 0x800a03 <_end+0x903>
    30c6:	a1 e0       	ldi	r26, 0x01	; 1
    30c8:	a0 93 06 0a 	sts	0x0A06, r26	; 0x800a06 <_end+0x906>

000030cc <startup_read_header>:
    30cc:	aa 27       	eor	r26, r26
    30ce:	b0 91 00 0a 	lds	r27, 0x0A00	; 0x800a00 <_end+0x900>
    30d2:	60 91 01 0a 	lds	r22, 0x0A01	; 0x800a01 <_end+0x901>
    30d6:	8c d0       	rcall	.+280    	; 0x31f0 <fx_startup_begin_read>
    30d8:	96 d0       	rcall	.+300    	; 0x3206 <fx_startup_read_byte>
    30da:	e1 34       	cpi	r30, 0x41	; 65
    30dc:	09 f0       	breq	.+2      	; 0x30e0 <.L1^B2>
    30de:	53 c0       	rjmp	.+166    	; 0x3186 <startup_invalid_image>

000030e0 <.L1^B2>:
    30e0:	92 d0       	rcall	.+292    	; 0x3206 <fx_startup_read_byte>
    30e2:	e6 35       	cpi	r30, 0x56	; 86
    30e4:	09 f0       	breq	.+2      	; 0x30e8 <.L1^B3>
    30e6:	4f c0       	rjmp	.+158    	; 0x3186 <startup_invalid_image>

000030e8 <.L1^B3>:
    30e8:	8e d0       	rcall	.+284    	; 0x3206 <fx_startup_read_byte>
    30ea:	ed 34       	cpi	r30, 0x4D	; 77
    30ec:	09 f0       	breq	.+2      	; 0x30f0 <.L1^B4>
    30ee:	4b c0       	rjmp	.+150    	; 0x3186 <startup_invalid_image>

000030f0 <.L1^B4>:
    30f0:	8a d0       	rcall	.+276    	; 0x3206 <fx_startup_read_byte>
    30f2:	e1 30       	cpi	r30, 0x01	; 1
    30f4:	09 f0       	breq	.+2      	; 0x30f8 <.L1^B5>
    30f6:	47 c0       	rjmp	.+142    	; 0x3186 <startup_invalid_image>

000030f8 <.L1^B5>:
    30f8:	86 d0       	rcall	.+268    	; 0x3206 <fx_startup_read_byte>
    30fa:	e1 30       	cpi	r30, 0x01	; 1
    30fc:	09 f0       	breq	.+2      	; 0x3100 <.L1^B6>
    30fe:	43 c0       	rjmp	.+134    	; 0x3186 <startup_invalid_image>

00003100 <.L1^B6>:
    3100:	82 d0       	rcall	.+260    	; 0x3206 <fx_startup_read_byte>
    3102:	4e 2e       	mov	r4, r30
    3104:	80 d0       	rcall	.+256    	; 0x3206 <fx_startup_read_byte>
    3106:	5e 2e       	mov	r5, r30
    3108:	7e d0       	rcall	.+252    	; 0x3206 <fx_startup_read_byte>
    310a:	6e 2e       	mov	r6, r30
    310c:	7c d0       	rcall	.+248    	; 0x3206 <fx_startup_read_byte>
    310e:	0e 2f       	mov	r16, r30
    3110:	7a d0       	rcall	.+244    	; 0x3206 <fx_startup_read_byte>
    3112:	1e 2f       	mov	r17, r30
    3114:	78 d0       	rcall	.+240    	; 0x3206 <fx_startup_read_byte>
    3116:	4e 2f       	mov	r20, r30
    3118:	e0 93 04 0a 	sts	0x0A04, r30	; 0x800a04 <_end+0x904>
    311c:	74 d0       	rcall	.+232    	; 0x3206 <fx_startup_read_byte>
    311e:	5e 2f       	mov	r21, r30
    3120:	e0 93 05 0a 	sts	0x0A05, r30	; 0x800a05 <_end+0x905>
    3124:	59 9a       	sbi	0x0b, 1	; 11
    3126:	04 17       	cp	r16, r20
    3128:	15 07       	cpc	r17, r21
    312a:	08 f4       	brcc	.+2      	; 0x312e <.L1^B7>
    312c:	2c c0       	rjmp	.+88     	; 0x3186 <startup_invalid_image>

0000312e <.L1^B7>:
    312e:	14 30       	cpi	r17, 0x04	; 4
    3130:	28 f0       	brcs	.+10     	; 0x313c <.L1^B8>
    3132:	09 f0       	breq	.+2      	; 0x3136 <.L2^B1>
    3134:	28 c0       	rjmp	.+80     	; 0x3186 <startup_invalid_image>

00003136 <.L2^B1>:
    3136:	00 23       	and	r16, r16
    3138:	09 f0       	breq	.+2      	; 0x313c <.L1^B8>
    313a:	25 c0       	rjmp	.+74     	; 0x3186 <startup_invalid_image>

0000313c <.L1^B8>:
    313c:	42 15       	cp	r20, r2
    313e:	52 05       	cpc	r21, r2
    3140:	21 f0       	breq	.+8      	; 0x314a <startup_copy_data>
    3142:	a0 91 06 0a 	lds	r26, 0x0A06	; 0x800a06 <_end+0x906>
    3146:	a0 ff       	sbrs	r26, 0
    3148:	1e c0       	rjmp	.+60     	; 0x3186 <startup_invalid_image>

0000314a <startup_copy_data>:
    314a:	02 15       	cp	r16, r2
    314c:	12 05       	cpc	r17, r2
    314e:	89 f0       	breq	.+34     	; 0x3172 <startup_enter_image>
    3150:	b0 91 00 0a 	lds	r27, 0x0A00	; 0x800a00 <_end+0x900>
    3154:	60 91 01 0a 	lds	r22, 0x0A01	; 0x800a01 <_end+0x901>
    3158:	b3 95       	inc	r27
    315a:	09 f4       	brne	.+2      	; 0x315e <.L4^B1>
    315c:	63 95       	inc	r22

0000315e <.L4^B1>:
    315e:	aa 27       	eor	r26, r26
    3160:	47 d0       	rcall	.+142    	; 0x31f0 <fx_startup_begin_read>
    3162:	a0 e0       	ldi	r26, 0x00	; 0
    3164:	b1 e0       	ldi	r27, 0x01	; 1

00003166 <startup_copy_data_loop>:
    3166:	4f d0       	rcall	.+158    	; 0x3206 <fx_startup_read_byte>
    3168:	ed 93       	st	X+, r30
    316a:	01 50       	subi	r16, 0x01	; 1
    316c:	10 40       	sbci	r17, 0x00	; 0
    316e:	d9 f7       	brne	.-10     	; 0x3166 <startup_copy_data_loop>
    3170:	59 9a       	sbi	0x0b, 1	; 11

00003172 <startup_enter_image>:
    3172:	0c d0       	rcall	.+24     	; 0x318c <timer0_init_func>
    3174:	35 df       	rcall	.-406    	; 0x2fe0 <fe_mul16_bodies_end>
    3176:	8e b5       	in	r24, 0x2e	; 46
    3178:	2e bc       	out	0x2e, r2	; 46
    317a:	78 94       	sei
    317c:	00 00       	nop
    317e:	87 9d       	mul	r24, r7
    3180:	f0 01       	movw	r30, r0
    3182:	ff 5f       	subi	r31, 0xFF	; 255
    3184:	09 94       	ijmp

00003186 <startup_invalid_image>:
    3186:	f8 94       	cli
    3188:	59 9a       	sbi	0x0b, 1	; 11

0000318a <startup_invalid_image_loop>:
    318a:	ff cf       	rjmp	.-2      	; 0x318a <startup_invalid_image_loop>

0000318c <timer0_init_func>:
    318c:	25 bc       	out	0x25, r2	; 37
    318e:	20 92 6e 00 	sts	0x006E, r2	; 0x80006e <__DATA_REGION_ORIGIN__+0xe>
    3192:	a2 e0       	ldi	r26, 0x02	; 2
    3194:	a4 bd       	out	0x24, r26	; 36
    3196:	26 bc       	out	0x26, r2	; 38
    3198:	a9 ef       	ldi	r26, 0xF9	; 249
    319a:	a7 bd       	out	0x27, r26	; 39
    319c:	a2 e0       	ldi	r26, 0x02	; 2
    319e:	a5 bb       	out	0x15, r26	; 21
    31a0:	a2 e0       	ldi	r26, 0x02	; 2
    31a2:	a0 93 6e 00 	sts	0x006E, r26	; 0x80006e <__DATA_REGION_ORIGIN__+0xe>
    31a6:	a3 e0       	ldi	r26, 0x03	; 3
    31a8:	a5 bd       	out	0x25, r26	; 37
    31aa:	08 95       	ret

000031ac <startup_try_tail>:
    31ac:	21 d0       	rcall	.+66     	; 0x31f0 <fx_startup_begin_read>
    31ae:	2b d0       	rcall	.+86     	; 0x3206 <fx_startup_read_byte>
    31b0:	e1 34       	cpi	r30, 0x41	; 65
    31b2:	d9 f4       	brne	.+54     	; 0x31ea <startup_try_tail_fail>
    31b4:	28 d0       	rcall	.+80     	; 0x3206 <fx_startup_read_byte>
    31b6:	e6 35       	cpi	r30, 0x56	; 86
    31b8:	c1 f4       	brne	.+48     	; 0x31ea <startup_try_tail_fail>
    31ba:	25 d0       	rcall	.+74     	; 0x3206 <fx_startup_read_byte>
    31bc:	e4 35       	cpi	r30, 0x54	; 84
    31be:	a9 f4       	brne	.+42     	; 0x31ea <startup_try_tail_fail>
    31c0:	22 d0       	rcall	.+68     	; 0x3206 <fx_startup_read_byte>
    31c2:	e1 30       	cpi	r30, 0x01	; 1
    31c4:	91 f4       	brne	.+36     	; 0x31ea <startup_try_tail_fail>
    31c6:	1f d0       	rcall	.+62     	; 0x3206 <fx_startup_read_byte>
    31c8:	0e 2e       	mov	r0, r30
    31ca:	1d d0       	rcall	.+58     	; 0x3206 <fx_startup_read_byte>
    31cc:	1e 2e       	mov	r1, r30
    31ce:	59 9a       	sbi	0x0b, 1	; 11
    31d0:	02 14       	cp	r0, r2
    31d2:	12 04       	cpc	r1, r2
    31d4:	59 f0       	breq	.+22     	; 0x31ec <startup_try_tail_fail_disabled>
    31d6:	a4 2f       	mov	r26, r20
    31d8:	b5 2f       	mov	r27, r21
    31da:	a0 19       	sub	r26, r0
    31dc:	b1 09       	sbc	r27, r1
    31de:	a0 93 00 0a 	sts	0x0A00, r26	; 0x800a00 <_end+0x900>
    31e2:	b0 93 01 0a 	sts	0x0A01, r27	; 0x800a01 <_end+0x901>
    31e6:	08 94       	sec
    31e8:	08 95       	ret

000031ea <startup_try_tail_fail>:
    31ea:	59 9a       	sbi	0x0b, 1	; 11

000031ec <startup_try_tail_fail_disabled>:
    31ec:	88 94       	clc
    31ee:	08 95       	ret

000031f0 <fx_startup_begin_read>:
    31f0:	59 9a       	sbi	0x0b, 1	; 11
    31f2:	59 98       	cbi	0x0b, 1	; 11
    31f4:	e3 e0       	ldi	r30, 0x03	; 3
    31f6:	09 d0       	rcall	.+18     	; 0x320a <fx_spi_transfer_blocking>
    31f8:	e6 2f       	mov	r30, r22
    31fa:	07 d0       	rcall	.+14     	; 0x320a <fx_spi_transfer_blocking>
    31fc:	eb 2f       	mov	r30, r27
    31fe:	05 d0       	rcall	.+10     	; 0x320a <fx_spi_transfer_blocking>
    3200:	ea 2f       	mov	r30, r26
    3202:	03 d0       	rcall	.+6      	; 0x320a <fx_spi_transfer_blocking>
    3204:	08 95       	ret

00003206 <fx_startup_read_byte>:
    3206:	e2 2d       	mov	r30, r2
    3208:	00 c0       	rjmp	.+0      	; 0x320a <fx_spi_transfer_blocking>

0000320a <fx_spi_transfer_blocking>:
    320a:	ee bd       	out	0x2e, r30	; 46

0000320c <.L1^B9>:
    320c:	fd b5       	in	r31, 0x2d	; 45
    320e:	f7 ff       	sbrs	r31, 7
    3210:	fd cf       	rjmp	.-6      	; 0x320c <.L1^B9>
    3212:	ee b5       	in	r30, 0x2e	; 46
    3214:	08 95       	ret

00003216 <fx_startup_wake_delay>:
    3216:	a0 e2       	ldi	r26, 0x20	; 32

00003218 <.L1^B10>:
    3218:	aa 95       	dec	r26
    321a:	f1 f7       	brne	.-4      	; 0x3218 <.L1^B10>
    321c:	08 95       	ret

0000321e <hardware_init_pins_func>:
    321e:	29 98       	cbi	0x05, 1	; 5
    3220:	21 9a       	sbi	0x04, 1	; 4
    3222:	2a 98       	cbi	0x05, 2	; 5
    3224:	22 9a       	sbi	0x04, 2	; 4
    3226:	23 98       	cbi	0x04, 3	; 4
    3228:	2b 98       	cbi	0x05, 3	; 5
    322a:	59 9a       	sbi	0x0b, 1	; 11
    322c:	51 9a       	sbi	0x0a, 1	; 10
    322e:	5e 98       	cbi	0x0b, 6	; 11
    3230:	56 9a       	sbi	0x0a, 6	; 10
    3232:	5c 9a       	sbi	0x0b, 4	; 11
    3234:	54 9a       	sbi	0x0a, 4	; 10
    3236:	5f 98       	cbi	0x0b, 7	; 11
    3238:	57 9a       	sbi	0x0a, 7	; 10
    323a:	2e 9a       	sbi	0x05, 6	; 5
    323c:	26 9a       	sbi	0x04, 6	; 4
    323e:	2f 9a       	sbi	0x05, 7	; 5
    3240:	27 9a       	sbi	0x04, 7	; 4
    3242:	2d 9a       	sbi	0x05, 5	; 5
    3244:	25 9a       	sbi	0x04, 5	; 4
    3246:	5d 9a       	sbi	0x0b, 5	; 11
    3248:	55 9a       	sbi	0x0a, 5	; 10
    324a:	28 9a       	sbi	0x05, 0	; 5
    324c:	20 9a       	sbi	0x04, 0	; 4
    324e:	85 98       	cbi	0x10, 5	; 16
    3250:	8d 9a       	sbi	0x11, 5	; 17
    3252:	86 98       	cbi	0x10, 6	; 16
    3254:	8e 9a       	sbi	0x11, 6	; 17
    3256:	87 98       	cbi	0x10, 7	; 16
    3258:	8f 9a       	sbi	0x11, 7	; 17
    325a:	84 98       	cbi	0x10, 4	; 16
    325c:	8c 9a       	sbi	0x11, 4	; 17
    325e:	6e 98       	cbi	0x0d, 6	; 13
    3260:	76 9a       	sbi	0x0e, 6	; 14
    3262:	24 98       	cbi	0x04, 4	; 4
    3264:	2c 9a       	sbi	0x05, 4	; 5
    3266:	81 98       	cbi	0x10, 1	; 16
    3268:	89 98       	cbi	0x11, 1	; 17
    326a:	a1 ec       	ldi	r26, 0xC1	; 193
    326c:	a0 93 7c 00 	sts	0x007C, r26	; 0x80007c <__DATA_REGION_ORIGIN__+0x1c>
    3270:	08 95       	ret

00003272 <oled_reset_delay_5ms_func>:
    3272:	88 e6       	ldi	r24, 0x68	; 104

00003274 <.L1^B11>:
    3274:	99 27       	eor	r25, r25

00003276 <.L2^B2>:
    3276:	9a 95       	dec	r25
    3278:	f1 f7       	brne	.-4      	; 0x3276 <.L2^B2>
    327a:	8a 95       	dec	r24
    327c:	d9 f7       	brne	.-10     	; 0x3274 <.L1^B11>
    327e:	08 95       	ret

00003280 <oled_spi_transfer_blocking_func>:
    3280:	ae bd       	out	0x2e, r26	; 46

00003282 <.L1^B12>:
    3282:	bd b5       	in	r27, 0x2d	; 45
    3284:	b7 ff       	sbrs	r27, 7
    3286:	fd cf       	rjmp	.-6      	; 0x3282 <.L1^B12>
    3288:	ae b5       	in	r26, 0x2e	; 46
    328a:	08 95       	ret

0000328c <oled_startup_init_func>:
    328c:	f2 df       	rcall	.-28     	; 0x3272 <oled_reset_delay_5ms_func>
    328e:	5f 9a       	sbi	0x0b, 7	; 11
    3290:	f0 df       	rcall	.-32     	; 0x3272 <oled_reset_delay_5ms_func>
    3292:	5e 98       	cbi	0x0b, 6	; 11
    3294:	5c 98       	cbi	0x0b, 4	; 11
    3296:	ec ea       	ldi	r30, 0xAC	; 172
    3298:	f2 e3       	ldi	r31, 0x32	; 50
    329a:	8d e0       	ldi	r24, 0x0D	; 13

0000329c <.L1^B13>:
    329c:	a5 91       	lpm	r26, Z+
    329e:	f0 df       	rcall	.-32     	; 0x3280 <oled_spi_transfer_blocking_func>
    32a0:	8a 95       	dec	r24
    32a2:	e1 f7       	brne	.-8      	; 0x329c <.L1^B13>
    32a4:	5c 9a       	sbi	0x0b, 4	; 11
    32a6:	5e 9a       	sbi	0x0b, 6	; 11
    32a8:	59 9a       	sbi	0x0b, 1	; 11
    32aa:	08 95       	ret

000032ac <oled_boot_program>:
    32ac:	d5 f0       	brhs	.+52     	; 0x32e2 <_etext+0x28>
    32ae:	8d 14       	cp	r8, r13
    32b0:	a1 c8       	rjmp	.-3774   	; 0x23f4 <f6_table_end+0x44>
    32b2:	81 cf       	rjmp	.-254    	; 0x31b6 <startup_try_tail+0xa>
    32b4:	d9 f1       	breq	.+118    	; 0x332c <_etext+0x72>
    32b6:	af 20       	and	r10, r15
    32b8:	00        	nop

000032b9 <oled_boot_program_end>:
    32b9:	Address 0x32b9 is out of bounds.

