
build\interp.elf:     file format elf32-avr

SYMBOL TABLE:
00000000 l    d  .text	00000000 .text
000000ae l       .text	00000000 reset_handler
000000ac l       .text	00000000 default_isr
00000108 l       .text	00000000 fx_init_delay_17
00000106 l       .text	00000000 reset_loop
0000010a l       .text	00000000 fx_init_delay_14
0000010c l       .text	00000000 fx_init_delay_7
00000200 l       .text	00000000 I_00__CLR_c0
00000220 l       .text	00000000 I_01__MOV_c0_c1
00000240 l       .text	00000000 I_02__MOV_c0_c2
00000260 l       .text	00000000 I_03__MOV_c0_c3
00000280 l       .text	00000000 I_04__MOV_c1_c0
000002a0 l       .text	00000000 I_05__CLR_c1
000002c0 l       .text	00000000 I_06__MOV_c1_c2
000002e0 l       .text	00000000 I_07__MOV_c1_c3
00000300 l       .text	00000000 I_08__MOV_c2_c0
00000320 l       .text	00000000 I_09__MOV_c2_c1
00000340 l       .text	00000000 I_0A__CLR_c2
00000360 l       .text	00000000 I_0B__MOV_c2_c3
00000380 l       .text	00000000 I_0C__MOV_c3_c0
000003a0 l       .text	00000000 I_0D__MOV_c3_c1
000003c0 l       .text	00000000 I_0E__MOV_c3_c2
000003e0 l       .text	00000000 I_0F__CLR_c3
00000400 l       .text	00000000 I_10__LD8_c0_c0
00000420 l       .text	00000000 I_11__LD8_c0_c1
00000440 l       .text	00000000 I_12__LD8_c0_c2
00000460 l       .text	00000000 I_13__LD8_c0_c3
00000480 l       .text	00000000 I_14__LD8_c1_c0
000004a0 l       .text	00000000 I_15__LD8_c1_c1
000004c0 l       .text	00000000 I_16__LD8_c1_c2
000004e0 l       .text	00000000 I_17__LD8_c1_c3
00000500 l       .text	00000000 I_18__LD8_c2_c0
00000520 l       .text	00000000 I_19__LD8_c2_c1
00000540 l       .text	00000000 I_1A__LD8_c2_c2
00000560 l       .text	00000000 I_1B__LD8_c2_c3
00000580 l       .text	00000000 I_1C__LD8_c3_c0
000005a0 l       .text	00000000 I_1D__LD8_c3_c1
000005c0 l       .text	00000000 I_1E__LD8_c3_c2
000005e0 l       .text	00000000 I_1F__LD8_c3_c3
00000600 l       .text	00000000 I_20__ST8_c0_c0
00000620 l       .text	00000000 I_21__ST8_c0_c1
00000640 l       .text	00000000 I_22__ST8_c0_c2
00000660 l       .text	00000000 I_23__ST8_c0_c3
00000680 l       .text	00000000 I_24__ST8_c1_c0
000006a0 l       .text	00000000 I_25__ST8_c1_c1
000006c0 l       .text	00000000 I_26__ST8_c1_c2
000006e0 l       .text	00000000 I_27__ST8_c1_c3
00000700 l       .text	00000000 I_28__ST8_c2_c0
00000720 l       .text	00000000 I_29__ST8_c2_c1
00000740 l       .text	00000000 I_2A__ST8_c2_c2
00000760 l       .text	00000000 I_2B__ST8_c2_c3
00000780 l       .text	00000000 I_2C__ST8_c3_c0
000007a0 l       .text	00000000 I_2D__ST8_c3_c1
000007c0 l       .text	00000000 I_2E__ST8_c3_c2
000007e0 l       .text	00000000 I_2F__ST8_c3_c3
00000800 l       .text	00000000 I_30__LD16_c0_c0
00000820 l       .text	00000000 I_31__LD16_c0_c1
00000840 l       .text	00000000 I_32__LD16_c0_c2
00000860 l       .text	00000000 I_33__LD16_c0_c3
00000880 l       .text	00000000 I_34__LD16_c1_c0
000008a0 l       .text	00000000 I_35__LD16_c1_c1
000008c0 l       .text	00000000 I_36__LD16_c1_c2
000008e0 l       .text	00000000 I_37__LD16_c1_c3
00000900 l       .text	00000000 I_38__LD16_c2_c0
00000920 l       .text	00000000 I_39__LD16_c2_c1
00000940 l       .text	00000000 I_3A__LD16_c2_c2
00000960 l       .text	00000000 I_3B__LD16_c2_c3
00000980 l       .text	00000000 I_3C__LD16_c3_c0
000009a0 l       .text	00000000 I_3D__LD16_c3_c1
000009c0 l       .text	00000000 I_3E__LD16_c3_c2
000009e0 l       .text	00000000 I_3F__LD16_c3_c3
00000a00 l       .text	00000000 I_40__ST16_c0_c0
00000a20 l       .text	00000000 I_41__ST16_c0_c1
00000a40 l       .text	00000000 I_42__ST16_c0_c2
00000a60 l       .text	00000000 I_43__ST16_c0_c3
00000a80 l       .text	00000000 I_44__ST16_c1_c0
00000aa0 l       .text	00000000 I_45__ST16_c1_c1
00000ac0 l       .text	00000000 I_46__ST16_c1_c2
00000ae0 l       .text	00000000 I_47__ST16_c1_c3
00000b00 l       .text	00000000 I_48__ST16_c2_c0
00000b20 l       .text	00000000 I_49__ST16_c2_c1
00000b40 l       .text	00000000 I_4A__ST16_c2_c2
00000b60 l       .text	00000000 I_4B__ST16_c2_c3
00000b80 l       .text	00000000 I_4C__ST16_c3_c0
00000ba0 l       .text	00000000 I_4D__ST16_c3_c1
00000bc0 l       .text	00000000 I_4E__ST16_c3_c2
00000be0 l       .text	00000000 I_4F__ST16_c3_c3
00000c00 l       .text	00000000 I_50__LDI1_c0
00000c20 l       .text	00000000 I_51__LD8_POST_c0_c1
00000c40 l       .text	00000000 I_52__LD8_POST_c0_c2
00000c60 l       .text	00000000 I_53__LD8_POST_c0_c3
00000c80 l       .text	00000000 I_54__LD8_POST_c1_c0
00000ca0 l       .text	00000000 I_55__LDI1_c1
00000cc0 l       .text	00000000 I_56__LD8_POST_c1_c2
00000ce0 l       .text	00000000 I_57__LD8_POST_c1_c3
00000d00 l       .text	00000000 I_58__LD8_POST_c2_c0
00000d20 l       .text	00000000 I_59__LD8_POST_c2_c1
00000d40 l       .text	00000000 I_5A__LDI1_c2
00000d60 l       .text	00000000 I_5B__LD8_POST_c2_c3
00000d80 l       .text	00000000 I_5C__LD8_POST_c3_c0
00000da0 l       .text	00000000 I_5D__LD8_POST_c3_c1
00000dc0 l       .text	00000000 I_5E__LD8_POST_c3_c2
00000de0 l       .text	00000000 I_5F__LDI1_c3
00000e00 l       .text	00000000 I_60__ST8_POST_c0_c0
00000e20 l       .text	00000000 I_61__ST8_POST_c0_c1
00000e40 l       .text	00000000 I_62__ST8_POST_c0_c2
00000e60 l       .text	00000000 I_63__ST8_POST_c0_c3
00000e80 l       .text	00000000 I_64__ST8_POST_c1_c0
00000ea0 l       .text	00000000 I_65__ST8_POST_c1_c1
00000ec0 l       .text	00000000 I_66__ST8_POST_c1_c2
00000ee0 l       .text	00000000 I_67__ST8_POST_c1_c3
00000f00 l       .text	00000000 I_68__ST8_POST_c2_c0
00000f20 l       .text	00000000 I_69__ST8_POST_c2_c1
00000f40 l       .text	00000000 I_6A__ST8_POST_c2_c2
00000f60 l       .text	00000000 I_6B__ST8_POST_c2_c3
00000f80 l       .text	00000000 I_6C__ST8_POST_c3_c0
00000fa0 l       .text	00000000 I_6D__ST8_POST_c3_c1
00000fc0 l       .text	00000000 I_6E__ST8_POST_c3_c2
00000fe0 l       .text	00000000 I_6F__ST8_POST_c3_c3
00001000 l       .text	00000000 I_70__PUSH16_r0
00001020 l       .text	00000000 I_71__PUSH16_r1
00001040 l       .text	00000000 I_72__PUSH16_r2
00001060 l       .text	00000000 I_73__PUSH16_r3
00001080 l       .text	00000000 I_74__PUSH16_r4
000010a0 l       .text	00000000 I_75__PUSH16_r5
000010c0 l       .text	00000000 I_76__PUSH16_r6
000010e0 l       .text	00000000 I_77__PUSH16_r7
00001100 l       .text	00000000 I_78__POP16_r0
00001120 l       .text	00000000 I_79__POP16_r1
00001140 l       .text	00000000 I_7A__POP16_r2
00001160 l       .text	00000000 I_7B__POP16_r3
00001180 l       .text	00000000 I_7C__POP16_r4
000011a0 l       .text	00000000 I_7D__POP16_r5
000011c0 l       .text	00000000 I_7E__POP16_r6
000011e0 l       .text	00000000 I_7F__POP16_r7
00001200 l       .text	00000000 I_80__ADD_c0_c0
00001220 l       .text	00000000 I_81__ADD_c0_c1
00001240 l       .text	00000000 I_82__ADD_c0_c2
00001260 l       .text	00000000 I_83__ADD_c0_c3
00001280 l       .text	00000000 I_84__ADD_c1_c0
000012a0 l       .text	00000000 I_85__ADD_c1_c1
000012c0 l       .text	00000000 I_86__ADD_c1_c2
000012e0 l       .text	00000000 I_87__ADD_c1_c3
00001300 l       .text	00000000 I_88__ADD_c2_c0
00001320 l       .text	00000000 I_89__ADD_c2_c1
00001340 l       .text	00000000 I_8A__ADD_c2_c2
00001360 l       .text	00000000 I_8B__ADD_c2_c3
00001380 l       .text	00000000 I_8C__ADD_c3_c0
000013a0 l       .text	00000000 I_8D__ADD_c3_c1
000013c0 l       .text	00000000 I_8E__ADD_c3_c2
000013e0 l       .text	00000000 I_8F__ADD_c3_c3
00001400 l       .text	00000000 I_90__SUB_c0_c0
00001420 l       .text	00000000 I_91__SUB_c0_c1
00001440 l       .text	00000000 I_92__SUB_c0_c2
00001460 l       .text	00000000 I_93__SUB_c0_c3
00001480 l       .text	00000000 I_94__SUB_c1_c0
000014a0 l       .text	00000000 I_95__SUB_c1_c1
000014c0 l       .text	00000000 I_96__SUB_c1_c2
000014e0 l       .text	00000000 I_97__SUB_c1_c3
00001500 l       .text	00000000 I_98__SUB_c2_c0
00001520 l       .text	00000000 I_99__SUB_c2_c1
00001540 l       .text	00000000 I_9A__SUB_c2_c2
00001560 l       .text	00000000 I_9B__SUB_c2_c3
00001580 l       .text	00000000 I_9C__SUB_c3_c0
000015a0 l       .text	00000000 I_9D__SUB_c3_c1
000015c0 l       .text	00000000 I_9E__SUB_c3_c2
000015e0 l       .text	00000000 I_9F__SUB_c3_c3
00001600 l       .text	00000000 I_A0__TST16_c0
00001620 l       .text	00000000 I_A1__CMP16_c0_c1
00001640 l       .text	00000000 I_A2__CMP16_c0_c2
00001660 l       .text	00000000 I_A3__CMP16_c0_c3
00001680 l       .text	00000000 I_A4__CMP16_c1_c0
000016a0 l       .text	00000000 I_A5__TST16_c1
000016c0 l       .text	00000000 I_A6__CMP16_c1_c2
000016e0 l       .text	00000000 I_A7__CMP16_c1_c3
00001700 l       .text	00000000 I_A8__CMP16_c2_c0
00001720 l       .text	00000000 I_A9__CMP16_c2_c1
00001740 l       .text	00000000 I_AA__TST16_c2
00001760 l       .text	00000000 I_AB__CMP16_c2_c3
00001780 l       .text	00000000 I_AC__CMP16_c3_c0
000017a0 l       .text	00000000 I_AD__CMP16_c3_c1
000017c0 l       .text	00000000 I_AE__CMP16_c3_c2
000017e0 l       .text	00000000 I_AF__TST16_c3
00001800 l       .text	00000000 I_B0__TST8_c0
00001820 l       .text	00000000 I_B1__CMP8_c0_c1
00001840 l       .text	00000000 I_B2__CMP8_c0_c2
00001860 l       .text	00000000 I_B3__CMP8_c0_c3
00001880 l       .text	00000000 I_B4__CMP8_c1_c0
000018a0 l       .text	00000000 I_B5__TST8_c1
000018c0 l       .text	00000000 I_B6__CMP8_c1_c2
000018e0 l       .text	00000000 I_B7__CMP8_c1_c3
00001900 l       .text	00000000 I_B8__CMP8_c2_c0
00001920 l       .text	00000000 I_B9__CMP8_c2_c1
00001940 l       .text	00000000 I_BA__TST8_c2
00001960 l       .text	00000000 I_BB__CMP8_c2_c3
00001980 l       .text	00000000 I_BC__CMP8_c3_c0
000019a0 l       .text	00000000 I_BD__CMP8_c3_c1
000019c0 l       .text	00000000 I_BE__CMP8_c3_c2
000019e0 l       .text	00000000 I_BF__TST8_c3
00001a00 l       .text	00000000 I_C0__BEQ_S_m8
00001e00 l       .text	00000000 branch_short_dispatch_reverse_func
00001e14 l       .text	00000000 fx_seek_to_pc
00001a20 l       .text	00000000 I_C1__BEQ_S_m7
00001a40 l       .text	00000000 I_C2__BEQ_S_m6
00001a60 l       .text	00000000 I_C3__BEQ_S_m5
00001a80 l       .text	00000000 I_C4__BEQ_S_m4
00001aa0 l       .text	00000000 I_C5__BEQ_S_m3
00001ac0 l       .text	00000000 I_C6__BEQ_S_m2
00001ae0 l       .text	00000000 I_C7__BEQ_S_m1
00001b00 l       .text	00000000 I_C8__BEQ_S_p1
00001b20 l       .text	00000000 I_C9__BEQ_S_p2
00001b40 l       .text	00000000 I_CA__BEQ_S_p3
00001b60 l       .text	00000000 I_CB__BEQ_S_p4
00001b80 l       .text	00000000 I_CC__BEQ_S_p5
00001ba0 l       .text	00000000 I_CD__BEQ_S_p6
00001bc0 l       .text	00000000 I_CE__BEQ_S_p7
00001be0 l       .text	00000000 I_CF__BEQ_S_p8
00001c00 l       .text	00000000 I_D0__BNE_S_m8
00001c20 l       .text	00000000 I_D1__BNE_S_m7
00001c40 l       .text	00000000 I_D2__BNE_S_m6
00001c60 l       .text	00000000 I_D3__BNE_S_m5
00001c80 l       .text	00000000 I_D4__BNE_S_m4
00001ca0 l       .text	00000000 I_D5__BNE_S_m3
00001cc0 l       .text	00000000 I_D6__BNE_S_m2
00001ce0 l       .text	00000000 I_D7__BNE_S_m1
00001d00 l       .text	00000000 I_D8__BNE_S_p1
00001d20 l       .text	00000000 I_D9__BNE_S_p2
00001d40 l       .text	00000000 I_DA__BNE_S_p3
00001d60 l       .text	00000000 I_DB__BNE_S_p4
00001d80 l       .text	00000000 I_DC__BNE_S_p5
00001da0 l       .text	00000000 I_DD__BNE_S_p6
00001dc0 l       .text	00000000 I_DE__BNE_S_p7
00001de0 l       .text	00000000 I_DF__BNE_S_p8
00001e42 l       .text	00000000 fx_seek_delay_10
00001e40 l       .text	00000000 fx_seek_delay_17
00001e44 l       .text	00000000 fx_seek_delay_7
000000e4 l       .text	00000000 .L11
000000ea l       .text	00000000 .L21
00000000 g       .text	00000000 __trampolines_start
00001e46 g       .text	00000000 _etext
00000000 g       .text	00000000 __trampolines_end
00000000 g       .text	00000000 __dtors_end
00000000 g       .text	000000ac __vectors
00000000 g       .text	00000000 __ctors_start
00000000 g       .text	00000000 __dtors_start
00000000 g       .text	00000000 __ctors_end
00000200 g       .text	00000000 abvm_interp



Disassembly of section .text:

00000000 <__vectors>:
       0:	0c 94 57 00 	jmp	0xae	; 0xae <reset_handler>
       4:	0c 94 56 00 	jmp	0xac	; 0xac <default_isr>
       8:	0c 94 56 00 	jmp	0xac	; 0xac <default_isr>
       c:	0c 94 56 00 	jmp	0xac	; 0xac <default_isr>
      10:	0c 94 56 00 	jmp	0xac	; 0xac <default_isr>
      14:	0c 94 56 00 	jmp	0xac	; 0xac <default_isr>
      18:	0c 94 56 00 	jmp	0xac	; 0xac <default_isr>
      1c:	0c 94 56 00 	jmp	0xac	; 0xac <default_isr>
      20:	0c 94 56 00 	jmp	0xac	; 0xac <default_isr>
      24:	0c 94 56 00 	jmp	0xac	; 0xac <default_isr>
      28:	0c 94 56 00 	jmp	0xac	; 0xac <default_isr>
      2c:	0c 94 56 00 	jmp	0xac	; 0xac <default_isr>
      30:	0c 94 56 00 	jmp	0xac	; 0xac <default_isr>
      34:	0c 94 56 00 	jmp	0xac	; 0xac <default_isr>
      38:	0c 94 56 00 	jmp	0xac	; 0xac <default_isr>
      3c:	0c 94 56 00 	jmp	0xac	; 0xac <default_isr>
      40:	0c 94 56 00 	jmp	0xac	; 0xac <default_isr>
      44:	0c 94 56 00 	jmp	0xac	; 0xac <default_isr>
      48:	0c 94 56 00 	jmp	0xac	; 0xac <default_isr>
      4c:	0c 94 56 00 	jmp	0xac	; 0xac <default_isr>
      50:	0c 94 56 00 	jmp	0xac	; 0xac <default_isr>
      54:	0c 94 56 00 	jmp	0xac	; 0xac <default_isr>
      58:	0c 94 56 00 	jmp	0xac	; 0xac <default_isr>
      5c:	0c 94 56 00 	jmp	0xac	; 0xac <default_isr>
      60:	0c 94 56 00 	jmp	0xac	; 0xac <default_isr>
      64:	0c 94 56 00 	jmp	0xac	; 0xac <default_isr>
      68:	0c 94 56 00 	jmp	0xac	; 0xac <default_isr>
      6c:	0c 94 56 00 	jmp	0xac	; 0xac <default_isr>
      70:	0c 94 56 00 	jmp	0xac	; 0xac <default_isr>
      74:	0c 94 56 00 	jmp	0xac	; 0xac <default_isr>
      78:	0c 94 56 00 	jmp	0xac	; 0xac <default_isr>
      7c:	0c 94 56 00 	jmp	0xac	; 0xac <default_isr>
      80:	0c 94 56 00 	jmp	0xac	; 0xac <default_isr>
      84:	0c 94 56 00 	jmp	0xac	; 0xac <default_isr>
      88:	0c 94 56 00 	jmp	0xac	; 0xac <default_isr>
      8c:	0c 94 56 00 	jmp	0xac	; 0xac <default_isr>
      90:	0c 94 56 00 	jmp	0xac	; 0xac <default_isr>
      94:	0c 94 56 00 	jmp	0xac	; 0xac <default_isr>
      98:	0c 94 56 00 	jmp	0xac	; 0xac <default_isr>
      9c:	0c 94 56 00 	jmp	0xac	; 0xac <default_isr>
      a0:	0c 94 56 00 	jmp	0xac	; 0xac <default_isr>
      a4:	0c 94 56 00 	jmp	0xac	; 0xac <default_isr>
      a8:	0c 94 56 00 	jmp	0xac	; 0xac <default_isr>

000000ac <default_isr>:
      ac:	ff cf       	rjmp	.-2      	; 0xac <default_isr>

000000ae <reset_handler>:
      ae:	22 24       	eor	r2, r2
      b0:	a0 e1       	ldi	r26, 0x10	; 16
      b2:	7a 2e       	mov	r7, r26
      b4:	c0 e0       	ldi	r28, 0x00	; 0
      b6:	da e0       	ldi	r29, 0x0A	; 10
      b8:	33 24       	eor	r3, r3
      ba:	2a bc       	out	0x2a, r2	; 42
      bc:	2b bc       	out	0x2b, r2	; 43
      be:	a0 e5       	ldi	r26, 0x50	; 80
      c0:	ac bd       	out	0x2c, r26	; 44
      c2:	a1 e0       	ldi	r26, 0x01	; 1
      c4:	ad bd       	out	0x2d, r26	; 45
      c6:	5e 9a       	sbi	0x0b, 6	; 11
      c8:	e4 e1       	ldi	r30, 0x14	; 20
      ca:	f0 e0       	ldi	r31, 0x00	; 0
      cc:	a5 91       	lpm	r26, Z+
      ce:	b5 91       	lpm	r27, Z+
      d0:	05 90       	lpm	r0, Z+
      d2:	15 90       	lpm	r1, Z+
      d4:	a8 51       	subi	r26, 0x18	; 24
      d6:	b5 49       	sbci	r27, 0x95	; 149
      d8:	29 f4       	brne	.+10     	; 0xe4 <.L1^B1>
      da:	aa 27       	eor	r26, r26
      dc:	bb 27       	eor	r27, r27
      de:	44 24       	eor	r4, r4
      e0:	55 24       	eor	r5, r5
      e2:	03 c0       	rjmp	.+6      	; 0xea <.L2^B1>

000000e4 <.L1^B1>:
      e4:	32 96       	adiw	r30, 0x02	; 2
      e6:	45 90       	lpm	r4, Z+
      e8:	55 90       	lpm	r5, Z+

000000ea <.L2^B1>:
      ea:	a0 93 00 0a 	sts	0x0A00, r26	; 0x800a00 <_edata+0x900>
      ee:	b0 93 01 0a 	sts	0x0A01, r27	; 0x800a01 <_edata+0x901>
      f2:	40 92 02 0a 	sts	0x0A02, r4	; 0x800a02 <_edata+0x902>
      f6:	50 92 03 0a 	sts	0x0A03, r5	; 0x800a03 <_edata+0x903>
      fa:	5a 98       	cbi	0x0b, 2	; 11
      fc:	ab ea       	ldi	r26, 0xAB	; 171
      fe:	ae bd       	out	0x2e, r26	; 46
     100:	03 d0       	rcall	.+6      	; 0x108 <fx_init_delay_17>
     102:	5a 9a       	sbi	0x0b, 2	; 11
     104:	78 94       	sei

00000106 <reset_loop>:
     106:	ff cf       	rjmp	.-2      	; 0x106 <reset_loop>

00000108 <fx_init_delay_17>:
     108:	c8 95       	lpm

0000010a <fx_init_delay_14>:
     10a:	00 d0       	rcall	.+0      	; 0x10c <fx_init_delay_7>

0000010c <fx_init_delay_7>:
     10c:	08 95       	ret
     10e:	00 00       	nop
     110:	00 00       	nop
     112:	00 00       	nop
     114:	00 00       	nop
     116:	00 00       	nop
     118:	00 00       	nop
     11a:	00 00       	nop
     11c:	00 00       	nop
     11e:	00 00       	nop
     120:	00 00       	nop
     122:	00 00       	nop
     124:	00 00       	nop
     126:	00 00       	nop
     128:	00 00       	nop
     12a:	00 00       	nop
     12c:	00 00       	nop
     12e:	00 00       	nop
     130:	00 00       	nop
     132:	00 00       	nop
     134:	00 00       	nop
     136:	00 00       	nop
     138:	00 00       	nop
     13a:	00 00       	nop
     13c:	00 00       	nop
     13e:	00 00       	nop
     140:	00 00       	nop
     142:	00 00       	nop
     144:	00 00       	nop
     146:	00 00       	nop
     148:	00 00       	nop
     14a:	00 00       	nop
     14c:	00 00       	nop
     14e:	00 00       	nop
     150:	00 00       	nop
     152:	00 00       	nop
     154:	00 00       	nop
     156:	00 00       	nop
     158:	00 00       	nop
     15a:	00 00       	nop
     15c:	00 00       	nop
     15e:	00 00       	nop
     160:	00 00       	nop
     162:	00 00       	nop
     164:	00 00       	nop
     166:	00 00       	nop
     168:	00 00       	nop
     16a:	00 00       	nop
     16c:	00 00       	nop
     16e:	00 00       	nop
     170:	00 00       	nop
     172:	00 00       	nop
     174:	00 00       	nop
     176:	00 00       	nop
     178:	00 00       	nop
     17a:	00 00       	nop
     17c:	00 00       	nop
     17e:	00 00       	nop
     180:	00 00       	nop
     182:	00 00       	nop
     184:	00 00       	nop
     186:	00 00       	nop
     188:	00 00       	nop
     18a:	00 00       	nop
     18c:	00 00       	nop
     18e:	00 00       	nop
     190:	00 00       	nop
     192:	00 00       	nop
     194:	00 00       	nop
     196:	00 00       	nop
     198:	00 00       	nop
     19a:	00 00       	nop
     19c:	00 00       	nop
     19e:	00 00       	nop
     1a0:	00 00       	nop
     1a2:	00 00       	nop
     1a4:	00 00       	nop
     1a6:	00 00       	nop
     1a8:	00 00       	nop
     1aa:	00 00       	nop
     1ac:	00 00       	nop
     1ae:	00 00       	nop
     1b0:	00 00       	nop
     1b2:	00 00       	nop
     1b4:	00 00       	nop
     1b6:	00 00       	nop
     1b8:	00 00       	nop
     1ba:	00 00       	nop
     1bc:	00 00       	nop
     1be:	00 00       	nop
     1c0:	00 00       	nop
     1c2:	00 00       	nop
     1c4:	00 00       	nop
     1c6:	00 00       	nop
     1c8:	00 00       	nop
     1ca:	00 00       	nop
     1cc:	00 00       	nop
     1ce:	00 00       	nop
     1d0:	00 00       	nop
     1d2:	00 00       	nop
     1d4:	00 00       	nop
     1d6:	00 00       	nop
     1d8:	00 00       	nop
     1da:	00 00       	nop
     1dc:	00 00       	nop
     1de:	00 00       	nop
     1e0:	00 00       	nop
     1e2:	00 00       	nop
     1e4:	00 00       	nop
     1e6:	00 00       	nop
     1e8:	00 00       	nop
     1ea:	00 00       	nop
     1ec:	00 00       	nop
     1ee:	00 00       	nop
     1f0:	00 00       	nop
     1f2:	00 00       	nop
     1f4:	00 00       	nop
     1f6:	00 00       	nop
     1f8:	00 00       	nop
     1fa:	00 00       	nop
     1fc:	00 00       	nop
     1fe:	00 00       	nop

00000200 <abvm_interp>:
     200:	c8 95       	lpm
     202:	00 27       	eor	r16, r16
     204:	11 27       	eor	r17, r17
     206:	01 96       	adiw	r24, 0x01	; 1
     208:	f8 94       	cli
     20a:	2e bc       	out	0x2e, r2	; 46
     20c:	6e b4       	in	r6, 0x2e	; 46
     20e:	78 94       	sei
     210:	67 9c       	mul	r6, r7
     212:	f0 01       	movw	r30, r0
     214:	fe 5f       	subi	r31, 0xFE	; 254
     216:	09 94       	ijmp
     218:	00 00       	nop
     21a:	00 00       	nop
     21c:	00 00       	nop
     21e:	00 00       	nop

00000220 <I_01__MOV_c0_c1>:
     220:	00 c0       	rjmp	.+0      	; 0x222 <I_01__MOV_c0_c1+0x2>
     222:	00 c0       	rjmp	.+0      	; 0x224 <I_01__MOV_c0_c1+0x4>
     224:	89 01       	movw	r16, r18
     226:	01 96       	adiw	r24, 0x01	; 1
     228:	f8 94       	cli
     22a:	2e bc       	out	0x2e, r2	; 46
     22c:	6e b4       	in	r6, 0x2e	; 46
     22e:	78 94       	sei
     230:	67 9c       	mul	r6, r7
     232:	f0 01       	movw	r30, r0
     234:	fe 5f       	subi	r31, 0xFE	; 254
     236:	09 94       	ijmp
     238:	00 00       	nop
     23a:	00 00       	nop
     23c:	00 00       	nop
     23e:	00 00       	nop

00000240 <I_02__MOV_c0_c2>:
     240:	00 c0       	rjmp	.+0      	; 0x242 <I_02__MOV_c0_c2+0x2>
     242:	00 c0       	rjmp	.+0      	; 0x244 <I_02__MOV_c0_c2+0x4>
     244:	8a 01       	movw	r16, r20
     246:	01 96       	adiw	r24, 0x01	; 1
     248:	f8 94       	cli
     24a:	2e bc       	out	0x2e, r2	; 46
     24c:	6e b4       	in	r6, 0x2e	; 46
     24e:	78 94       	sei
     250:	67 9c       	mul	r6, r7
     252:	f0 01       	movw	r30, r0
     254:	fe 5f       	subi	r31, 0xFE	; 254
     256:	09 94       	ijmp
     258:	00 00       	nop
     25a:	00 00       	nop
     25c:	00 00       	nop
     25e:	00 00       	nop

00000260 <I_03__MOV_c0_c3>:
     260:	00 c0       	rjmp	.+0      	; 0x262 <I_03__MOV_c0_c3+0x2>
     262:	00 c0       	rjmp	.+0      	; 0x264 <I_03__MOV_c0_c3+0x4>
     264:	8b 01       	movw	r16, r22
     266:	01 96       	adiw	r24, 0x01	; 1
     268:	f8 94       	cli
     26a:	2e bc       	out	0x2e, r2	; 46
     26c:	6e b4       	in	r6, 0x2e	; 46
     26e:	78 94       	sei
     270:	67 9c       	mul	r6, r7
     272:	f0 01       	movw	r30, r0
     274:	fe 5f       	subi	r31, 0xFE	; 254
     276:	09 94       	ijmp
     278:	00 00       	nop
     27a:	00 00       	nop
     27c:	00 00       	nop
     27e:	00 00       	nop

00000280 <I_04__MOV_c1_c0>:
     280:	00 c0       	rjmp	.+0      	; 0x282 <I_04__MOV_c1_c0+0x2>
     282:	00 c0       	rjmp	.+0      	; 0x284 <I_04__MOV_c1_c0+0x4>
     284:	98 01       	movw	r18, r16
     286:	01 96       	adiw	r24, 0x01	; 1
     288:	f8 94       	cli
     28a:	2e bc       	out	0x2e, r2	; 46
     28c:	6e b4       	in	r6, 0x2e	; 46
     28e:	78 94       	sei
     290:	67 9c       	mul	r6, r7
     292:	f0 01       	movw	r30, r0
     294:	fe 5f       	subi	r31, 0xFE	; 254
     296:	09 94       	ijmp
     298:	00 00       	nop
     29a:	00 00       	nop
     29c:	00 00       	nop
     29e:	00 00       	nop

000002a0 <I_05__CLR_c1>:
     2a0:	c8 95       	lpm
     2a2:	22 27       	eor	r18, r18
     2a4:	33 27       	eor	r19, r19
     2a6:	01 96       	adiw	r24, 0x01	; 1
     2a8:	f8 94       	cli
     2aa:	2e bc       	out	0x2e, r2	; 46
     2ac:	6e b4       	in	r6, 0x2e	; 46
     2ae:	78 94       	sei
     2b0:	67 9c       	mul	r6, r7
     2b2:	f0 01       	movw	r30, r0
     2b4:	fe 5f       	subi	r31, 0xFE	; 254
     2b6:	09 94       	ijmp
     2b8:	00 00       	nop
     2ba:	00 00       	nop
     2bc:	00 00       	nop
     2be:	00 00       	nop

000002c0 <I_06__MOV_c1_c2>:
     2c0:	00 c0       	rjmp	.+0      	; 0x2c2 <I_06__MOV_c1_c2+0x2>
     2c2:	00 c0       	rjmp	.+0      	; 0x2c4 <I_06__MOV_c1_c2+0x4>
     2c4:	9a 01       	movw	r18, r20
     2c6:	01 96       	adiw	r24, 0x01	; 1
     2c8:	f8 94       	cli
     2ca:	2e bc       	out	0x2e, r2	; 46
     2cc:	6e b4       	in	r6, 0x2e	; 46
     2ce:	78 94       	sei
     2d0:	67 9c       	mul	r6, r7
     2d2:	f0 01       	movw	r30, r0
     2d4:	fe 5f       	subi	r31, 0xFE	; 254
     2d6:	09 94       	ijmp
     2d8:	00 00       	nop
     2da:	00 00       	nop
     2dc:	00 00       	nop
     2de:	00 00       	nop

000002e0 <I_07__MOV_c1_c3>:
     2e0:	00 c0       	rjmp	.+0      	; 0x2e2 <I_07__MOV_c1_c3+0x2>
     2e2:	00 c0       	rjmp	.+0      	; 0x2e4 <I_07__MOV_c1_c3+0x4>
     2e4:	9b 01       	movw	r18, r22
     2e6:	01 96       	adiw	r24, 0x01	; 1
     2e8:	f8 94       	cli
     2ea:	2e bc       	out	0x2e, r2	; 46
     2ec:	6e b4       	in	r6, 0x2e	; 46
     2ee:	78 94       	sei
     2f0:	67 9c       	mul	r6, r7
     2f2:	f0 01       	movw	r30, r0
     2f4:	fe 5f       	subi	r31, 0xFE	; 254
     2f6:	09 94       	ijmp
     2f8:	00 00       	nop
     2fa:	00 00       	nop
     2fc:	00 00       	nop
     2fe:	00 00       	nop

00000300 <I_08__MOV_c2_c0>:
     300:	00 c0       	rjmp	.+0      	; 0x302 <I_08__MOV_c2_c0+0x2>
     302:	00 c0       	rjmp	.+0      	; 0x304 <I_08__MOV_c2_c0+0x4>
     304:	a8 01       	movw	r20, r16
     306:	01 96       	adiw	r24, 0x01	; 1
     308:	f8 94       	cli
     30a:	2e bc       	out	0x2e, r2	; 46
     30c:	6e b4       	in	r6, 0x2e	; 46
     30e:	78 94       	sei
     310:	67 9c       	mul	r6, r7
     312:	f0 01       	movw	r30, r0
     314:	fe 5f       	subi	r31, 0xFE	; 254
     316:	09 94       	ijmp
     318:	00 00       	nop
     31a:	00 00       	nop
     31c:	00 00       	nop
     31e:	00 00       	nop

00000320 <I_09__MOV_c2_c1>:
     320:	00 c0       	rjmp	.+0      	; 0x322 <I_09__MOV_c2_c1+0x2>
     322:	00 c0       	rjmp	.+0      	; 0x324 <I_09__MOV_c2_c1+0x4>
     324:	a9 01       	movw	r20, r18
     326:	01 96       	adiw	r24, 0x01	; 1
     328:	f8 94       	cli
     32a:	2e bc       	out	0x2e, r2	; 46
     32c:	6e b4       	in	r6, 0x2e	; 46
     32e:	78 94       	sei
     330:	67 9c       	mul	r6, r7
     332:	f0 01       	movw	r30, r0
     334:	fe 5f       	subi	r31, 0xFE	; 254
     336:	09 94       	ijmp
     338:	00 00       	nop
     33a:	00 00       	nop
     33c:	00 00       	nop
     33e:	00 00       	nop

00000340 <I_0A__CLR_c2>:
     340:	c8 95       	lpm
     342:	44 27       	eor	r20, r20
     344:	55 27       	eor	r21, r21
     346:	01 96       	adiw	r24, 0x01	; 1
     348:	f8 94       	cli
     34a:	2e bc       	out	0x2e, r2	; 46
     34c:	6e b4       	in	r6, 0x2e	; 46
     34e:	78 94       	sei
     350:	67 9c       	mul	r6, r7
     352:	f0 01       	movw	r30, r0
     354:	fe 5f       	subi	r31, 0xFE	; 254
     356:	09 94       	ijmp
     358:	00 00       	nop
     35a:	00 00       	nop
     35c:	00 00       	nop
     35e:	00 00       	nop

00000360 <I_0B__MOV_c2_c3>:
     360:	00 c0       	rjmp	.+0      	; 0x362 <I_0B__MOV_c2_c3+0x2>
     362:	00 c0       	rjmp	.+0      	; 0x364 <I_0B__MOV_c2_c3+0x4>
     364:	ab 01       	movw	r20, r22
     366:	01 96       	adiw	r24, 0x01	; 1
     368:	f8 94       	cli
     36a:	2e bc       	out	0x2e, r2	; 46
     36c:	6e b4       	in	r6, 0x2e	; 46
     36e:	78 94       	sei
     370:	67 9c       	mul	r6, r7
     372:	f0 01       	movw	r30, r0
     374:	fe 5f       	subi	r31, 0xFE	; 254
     376:	09 94       	ijmp
     378:	00 00       	nop
     37a:	00 00       	nop
     37c:	00 00       	nop
     37e:	00 00       	nop

00000380 <I_0C__MOV_c3_c0>:
     380:	00 c0       	rjmp	.+0      	; 0x382 <I_0C__MOV_c3_c0+0x2>
     382:	00 c0       	rjmp	.+0      	; 0x384 <I_0C__MOV_c3_c0+0x4>
     384:	b8 01       	movw	r22, r16
     386:	01 96       	adiw	r24, 0x01	; 1
     388:	f8 94       	cli
     38a:	2e bc       	out	0x2e, r2	; 46
     38c:	6e b4       	in	r6, 0x2e	; 46
     38e:	78 94       	sei
     390:	67 9c       	mul	r6, r7
     392:	f0 01       	movw	r30, r0
     394:	fe 5f       	subi	r31, 0xFE	; 254
     396:	09 94       	ijmp
     398:	00 00       	nop
     39a:	00 00       	nop
     39c:	00 00       	nop
     39e:	00 00       	nop

000003a0 <I_0D__MOV_c3_c1>:
     3a0:	00 c0       	rjmp	.+0      	; 0x3a2 <I_0D__MOV_c3_c1+0x2>
     3a2:	00 c0       	rjmp	.+0      	; 0x3a4 <I_0D__MOV_c3_c1+0x4>
     3a4:	b9 01       	movw	r22, r18
     3a6:	01 96       	adiw	r24, 0x01	; 1
     3a8:	f8 94       	cli
     3aa:	2e bc       	out	0x2e, r2	; 46
     3ac:	6e b4       	in	r6, 0x2e	; 46
     3ae:	78 94       	sei
     3b0:	67 9c       	mul	r6, r7
     3b2:	f0 01       	movw	r30, r0
     3b4:	fe 5f       	subi	r31, 0xFE	; 254
     3b6:	09 94       	ijmp
     3b8:	00 00       	nop
     3ba:	00 00       	nop
     3bc:	00 00       	nop
     3be:	00 00       	nop

000003c0 <I_0E__MOV_c3_c2>:
     3c0:	00 c0       	rjmp	.+0      	; 0x3c2 <I_0E__MOV_c3_c2+0x2>
     3c2:	00 c0       	rjmp	.+0      	; 0x3c4 <I_0E__MOV_c3_c2+0x4>
     3c4:	ba 01       	movw	r22, r20
     3c6:	01 96       	adiw	r24, 0x01	; 1
     3c8:	f8 94       	cli
     3ca:	2e bc       	out	0x2e, r2	; 46
     3cc:	6e b4       	in	r6, 0x2e	; 46
     3ce:	78 94       	sei
     3d0:	67 9c       	mul	r6, r7
     3d2:	f0 01       	movw	r30, r0
     3d4:	fe 5f       	subi	r31, 0xFE	; 254
     3d6:	09 94       	ijmp
     3d8:	00 00       	nop
     3da:	00 00       	nop
     3dc:	00 00       	nop
     3de:	00 00       	nop

000003e0 <I_0F__CLR_c3>:
     3e0:	c8 95       	lpm
     3e2:	66 27       	eor	r22, r22
     3e4:	77 27       	eor	r23, r23
     3e6:	01 96       	adiw	r24, 0x01	; 1
     3e8:	f8 94       	cli
     3ea:	2e bc       	out	0x2e, r2	; 46
     3ec:	6e b4       	in	r6, 0x2e	; 46
     3ee:	78 94       	sei
     3f0:	67 9c       	mul	r6, r7
     3f2:	f0 01       	movw	r30, r0
     3f4:	fe 5f       	subi	r31, 0xFE	; 254
     3f6:	09 94       	ijmp
     3f8:	00 00       	nop
     3fa:	00 00       	nop
     3fc:	00 00       	nop
     3fe:	00 00       	nop

00000400 <I_10__LD8_c0_c0>:
     400:	00 00       	nop
     402:	d8 01       	movw	r26, r16
     404:	0c 91       	ld	r16, X
     406:	11 27       	eor	r17, r17
     408:	01 96       	adiw	r24, 0x01	; 1
     40a:	f8 94       	cli
     40c:	2e bc       	out	0x2e, r2	; 46
     40e:	6e b4       	in	r6, 0x2e	; 46
     410:	78 94       	sei
     412:	67 9c       	mul	r6, r7
     414:	f0 01       	movw	r30, r0
     416:	fe 5f       	subi	r31, 0xFE	; 254
     418:	09 94       	ijmp
     41a:	00 00       	nop
     41c:	00 00       	nop
     41e:	00 00       	nop

00000420 <I_11__LD8_c0_c1>:
     420:	00 00       	nop
     422:	d9 01       	movw	r26, r18
     424:	0c 91       	ld	r16, X
     426:	11 27       	eor	r17, r17
     428:	01 96       	adiw	r24, 0x01	; 1
     42a:	f8 94       	cli
     42c:	2e bc       	out	0x2e, r2	; 46
     42e:	6e b4       	in	r6, 0x2e	; 46
     430:	78 94       	sei
     432:	67 9c       	mul	r6, r7
     434:	f0 01       	movw	r30, r0
     436:	fe 5f       	subi	r31, 0xFE	; 254
     438:	09 94       	ijmp
     43a:	00 00       	nop
     43c:	00 00       	nop
     43e:	00 00       	nop

00000440 <I_12__LD8_c0_c2>:
     440:	00 00       	nop
     442:	da 01       	movw	r26, r20
     444:	0c 91       	ld	r16, X
     446:	11 27       	eor	r17, r17
     448:	01 96       	adiw	r24, 0x01	; 1
     44a:	f8 94       	cli
     44c:	2e bc       	out	0x2e, r2	; 46
     44e:	6e b4       	in	r6, 0x2e	; 46
     450:	78 94       	sei
     452:	67 9c       	mul	r6, r7
     454:	f0 01       	movw	r30, r0
     456:	fe 5f       	subi	r31, 0xFE	; 254
     458:	09 94       	ijmp
     45a:	00 00       	nop
     45c:	00 00       	nop
     45e:	00 00       	nop

00000460 <I_13__LD8_c0_c3>:
     460:	00 00       	nop
     462:	db 01       	movw	r26, r22
     464:	0c 91       	ld	r16, X
     466:	11 27       	eor	r17, r17
     468:	01 96       	adiw	r24, 0x01	; 1
     46a:	f8 94       	cli
     46c:	2e bc       	out	0x2e, r2	; 46
     46e:	6e b4       	in	r6, 0x2e	; 46
     470:	78 94       	sei
     472:	67 9c       	mul	r6, r7
     474:	f0 01       	movw	r30, r0
     476:	fe 5f       	subi	r31, 0xFE	; 254
     478:	09 94       	ijmp
     47a:	00 00       	nop
     47c:	00 00       	nop
     47e:	00 00       	nop

00000480 <I_14__LD8_c1_c0>:
     480:	00 00       	nop
     482:	d8 01       	movw	r26, r16
     484:	2c 91       	ld	r18, X
     486:	33 27       	eor	r19, r19
     488:	01 96       	adiw	r24, 0x01	; 1
     48a:	f8 94       	cli
     48c:	2e bc       	out	0x2e, r2	; 46
     48e:	6e b4       	in	r6, 0x2e	; 46
     490:	78 94       	sei
     492:	67 9c       	mul	r6, r7
     494:	f0 01       	movw	r30, r0
     496:	fe 5f       	subi	r31, 0xFE	; 254
     498:	09 94       	ijmp
     49a:	00 00       	nop
     49c:	00 00       	nop
     49e:	00 00       	nop

000004a0 <I_15__LD8_c1_c1>:
     4a0:	00 00       	nop
     4a2:	d9 01       	movw	r26, r18
     4a4:	2c 91       	ld	r18, X
     4a6:	33 27       	eor	r19, r19
     4a8:	01 96       	adiw	r24, 0x01	; 1
     4aa:	f8 94       	cli
     4ac:	2e bc       	out	0x2e, r2	; 46
     4ae:	6e b4       	in	r6, 0x2e	; 46
     4b0:	78 94       	sei
     4b2:	67 9c       	mul	r6, r7
     4b4:	f0 01       	movw	r30, r0
     4b6:	fe 5f       	subi	r31, 0xFE	; 254
     4b8:	09 94       	ijmp
     4ba:	00 00       	nop
     4bc:	00 00       	nop
     4be:	00 00       	nop

000004c0 <I_16__LD8_c1_c2>:
     4c0:	00 00       	nop
     4c2:	da 01       	movw	r26, r20
     4c4:	2c 91       	ld	r18, X
     4c6:	33 27       	eor	r19, r19
     4c8:	01 96       	adiw	r24, 0x01	; 1
     4ca:	f8 94       	cli
     4cc:	2e bc       	out	0x2e, r2	; 46
     4ce:	6e b4       	in	r6, 0x2e	; 46
     4d0:	78 94       	sei
     4d2:	67 9c       	mul	r6, r7
     4d4:	f0 01       	movw	r30, r0
     4d6:	fe 5f       	subi	r31, 0xFE	; 254
     4d8:	09 94       	ijmp
     4da:	00 00       	nop
     4dc:	00 00       	nop
     4de:	00 00       	nop

000004e0 <I_17__LD8_c1_c3>:
     4e0:	00 00       	nop
     4e2:	db 01       	movw	r26, r22
     4e4:	2c 91       	ld	r18, X
     4e6:	33 27       	eor	r19, r19
     4e8:	01 96       	adiw	r24, 0x01	; 1
     4ea:	f8 94       	cli
     4ec:	2e bc       	out	0x2e, r2	; 46
     4ee:	6e b4       	in	r6, 0x2e	; 46
     4f0:	78 94       	sei
     4f2:	67 9c       	mul	r6, r7
     4f4:	f0 01       	movw	r30, r0
     4f6:	fe 5f       	subi	r31, 0xFE	; 254
     4f8:	09 94       	ijmp
     4fa:	00 00       	nop
     4fc:	00 00       	nop
     4fe:	00 00       	nop

00000500 <I_18__LD8_c2_c0>:
     500:	00 00       	nop
     502:	d8 01       	movw	r26, r16
     504:	4c 91       	ld	r20, X
     506:	55 27       	eor	r21, r21
     508:	01 96       	adiw	r24, 0x01	; 1
     50a:	f8 94       	cli
     50c:	2e bc       	out	0x2e, r2	; 46
     50e:	6e b4       	in	r6, 0x2e	; 46
     510:	78 94       	sei
     512:	67 9c       	mul	r6, r7
     514:	f0 01       	movw	r30, r0
     516:	fe 5f       	subi	r31, 0xFE	; 254
     518:	09 94       	ijmp
     51a:	00 00       	nop
     51c:	00 00       	nop
     51e:	00 00       	nop

00000520 <I_19__LD8_c2_c1>:
     520:	00 00       	nop
     522:	d9 01       	movw	r26, r18
     524:	4c 91       	ld	r20, X
     526:	55 27       	eor	r21, r21
     528:	01 96       	adiw	r24, 0x01	; 1
     52a:	f8 94       	cli
     52c:	2e bc       	out	0x2e, r2	; 46
     52e:	6e b4       	in	r6, 0x2e	; 46
     530:	78 94       	sei
     532:	67 9c       	mul	r6, r7
     534:	f0 01       	movw	r30, r0
     536:	fe 5f       	subi	r31, 0xFE	; 254
     538:	09 94       	ijmp
     53a:	00 00       	nop
     53c:	00 00       	nop
     53e:	00 00       	nop

00000540 <I_1A__LD8_c2_c2>:
     540:	00 00       	nop
     542:	da 01       	movw	r26, r20
     544:	4c 91       	ld	r20, X
     546:	55 27       	eor	r21, r21
     548:	01 96       	adiw	r24, 0x01	; 1
     54a:	f8 94       	cli
     54c:	2e bc       	out	0x2e, r2	; 46
     54e:	6e b4       	in	r6, 0x2e	; 46
     550:	78 94       	sei
     552:	67 9c       	mul	r6, r7
     554:	f0 01       	movw	r30, r0
     556:	fe 5f       	subi	r31, 0xFE	; 254
     558:	09 94       	ijmp
     55a:	00 00       	nop
     55c:	00 00       	nop
     55e:	00 00       	nop

00000560 <I_1B__LD8_c2_c3>:
     560:	00 00       	nop
     562:	db 01       	movw	r26, r22
     564:	4c 91       	ld	r20, X
     566:	55 27       	eor	r21, r21
     568:	01 96       	adiw	r24, 0x01	; 1
     56a:	f8 94       	cli
     56c:	2e bc       	out	0x2e, r2	; 46
     56e:	6e b4       	in	r6, 0x2e	; 46
     570:	78 94       	sei
     572:	67 9c       	mul	r6, r7
     574:	f0 01       	movw	r30, r0
     576:	fe 5f       	subi	r31, 0xFE	; 254
     578:	09 94       	ijmp
     57a:	00 00       	nop
     57c:	00 00       	nop
     57e:	00 00       	nop

00000580 <I_1C__LD8_c3_c0>:
     580:	00 00       	nop
     582:	d8 01       	movw	r26, r16
     584:	6c 91       	ld	r22, X
     586:	77 27       	eor	r23, r23
     588:	01 96       	adiw	r24, 0x01	; 1
     58a:	f8 94       	cli
     58c:	2e bc       	out	0x2e, r2	; 46
     58e:	6e b4       	in	r6, 0x2e	; 46
     590:	78 94       	sei
     592:	67 9c       	mul	r6, r7
     594:	f0 01       	movw	r30, r0
     596:	fe 5f       	subi	r31, 0xFE	; 254
     598:	09 94       	ijmp
     59a:	00 00       	nop
     59c:	00 00       	nop
     59e:	00 00       	nop

000005a0 <I_1D__LD8_c3_c1>:
     5a0:	00 00       	nop
     5a2:	d9 01       	movw	r26, r18
     5a4:	6c 91       	ld	r22, X
     5a6:	77 27       	eor	r23, r23
     5a8:	01 96       	adiw	r24, 0x01	; 1
     5aa:	f8 94       	cli
     5ac:	2e bc       	out	0x2e, r2	; 46
     5ae:	6e b4       	in	r6, 0x2e	; 46
     5b0:	78 94       	sei
     5b2:	67 9c       	mul	r6, r7
     5b4:	f0 01       	movw	r30, r0
     5b6:	fe 5f       	subi	r31, 0xFE	; 254
     5b8:	09 94       	ijmp
     5ba:	00 00       	nop
     5bc:	00 00       	nop
     5be:	00 00       	nop

000005c0 <I_1E__LD8_c3_c2>:
     5c0:	00 00       	nop
     5c2:	da 01       	movw	r26, r20
     5c4:	6c 91       	ld	r22, X
     5c6:	77 27       	eor	r23, r23
     5c8:	01 96       	adiw	r24, 0x01	; 1
     5ca:	f8 94       	cli
     5cc:	2e bc       	out	0x2e, r2	; 46
     5ce:	6e b4       	in	r6, 0x2e	; 46
     5d0:	78 94       	sei
     5d2:	67 9c       	mul	r6, r7
     5d4:	f0 01       	movw	r30, r0
     5d6:	fe 5f       	subi	r31, 0xFE	; 254
     5d8:	09 94       	ijmp
     5da:	00 00       	nop
     5dc:	00 00       	nop
     5de:	00 00       	nop

000005e0 <I_1F__LD8_c3_c3>:
     5e0:	00 00       	nop
     5e2:	db 01       	movw	r26, r22
     5e4:	6c 91       	ld	r22, X
     5e6:	77 27       	eor	r23, r23
     5e8:	01 96       	adiw	r24, 0x01	; 1
     5ea:	f8 94       	cli
     5ec:	2e bc       	out	0x2e, r2	; 46
     5ee:	6e b4       	in	r6, 0x2e	; 46
     5f0:	78 94       	sei
     5f2:	67 9c       	mul	r6, r7
     5f4:	f0 01       	movw	r30, r0
     5f6:	fe 5f       	subi	r31, 0xFE	; 254
     5f8:	09 94       	ijmp
     5fa:	00 00       	nop
     5fc:	00 00       	nop
     5fe:	00 00       	nop

00000600 <I_20__ST8_c0_c0>:
     600:	00 c0       	rjmp	.+0      	; 0x602 <I_20__ST8_c0_c0+0x2>
     602:	d8 01       	movw	r26, r16
     604:	0c 93       	st	X, r16
     606:	01 96       	adiw	r24, 0x01	; 1
     608:	f8 94       	cli
     60a:	2e bc       	out	0x2e, r2	; 46
     60c:	6e b4       	in	r6, 0x2e	; 46
     60e:	78 94       	sei
     610:	67 9c       	mul	r6, r7
     612:	f0 01       	movw	r30, r0
     614:	fe 5f       	subi	r31, 0xFE	; 254
     616:	09 94       	ijmp
     618:	00 00       	nop
     61a:	00 00       	nop
     61c:	00 00       	nop
     61e:	00 00       	nop

00000620 <I_21__ST8_c0_c1>:
     620:	00 c0       	rjmp	.+0      	; 0x622 <I_21__ST8_c0_c1+0x2>
     622:	d8 01       	movw	r26, r16
     624:	2c 93       	st	X, r18
     626:	01 96       	adiw	r24, 0x01	; 1
     628:	f8 94       	cli
     62a:	2e bc       	out	0x2e, r2	; 46
     62c:	6e b4       	in	r6, 0x2e	; 46
     62e:	78 94       	sei
     630:	67 9c       	mul	r6, r7
     632:	f0 01       	movw	r30, r0
     634:	fe 5f       	subi	r31, 0xFE	; 254
     636:	09 94       	ijmp
     638:	00 00       	nop
     63a:	00 00       	nop
     63c:	00 00       	nop
     63e:	00 00       	nop

00000640 <I_22__ST8_c0_c2>:
     640:	00 c0       	rjmp	.+0      	; 0x642 <I_22__ST8_c0_c2+0x2>
     642:	d8 01       	movw	r26, r16
     644:	4c 93       	st	X, r20
     646:	01 96       	adiw	r24, 0x01	; 1
     648:	f8 94       	cli
     64a:	2e bc       	out	0x2e, r2	; 46
     64c:	6e b4       	in	r6, 0x2e	; 46
     64e:	78 94       	sei
     650:	67 9c       	mul	r6, r7
     652:	f0 01       	movw	r30, r0
     654:	fe 5f       	subi	r31, 0xFE	; 254
     656:	09 94       	ijmp
     658:	00 00       	nop
     65a:	00 00       	nop
     65c:	00 00       	nop
     65e:	00 00       	nop

00000660 <I_23__ST8_c0_c3>:
     660:	00 c0       	rjmp	.+0      	; 0x662 <I_23__ST8_c0_c3+0x2>
     662:	d8 01       	movw	r26, r16
     664:	6c 93       	st	X, r22
     666:	01 96       	adiw	r24, 0x01	; 1
     668:	f8 94       	cli
     66a:	2e bc       	out	0x2e, r2	; 46
     66c:	6e b4       	in	r6, 0x2e	; 46
     66e:	78 94       	sei
     670:	67 9c       	mul	r6, r7
     672:	f0 01       	movw	r30, r0
     674:	fe 5f       	subi	r31, 0xFE	; 254
     676:	09 94       	ijmp
     678:	00 00       	nop
     67a:	00 00       	nop
     67c:	00 00       	nop
     67e:	00 00       	nop

00000680 <I_24__ST8_c1_c0>:
     680:	00 c0       	rjmp	.+0      	; 0x682 <I_24__ST8_c1_c0+0x2>
     682:	d9 01       	movw	r26, r18
     684:	0c 93       	st	X, r16
     686:	01 96       	adiw	r24, 0x01	; 1
     688:	f8 94       	cli
     68a:	2e bc       	out	0x2e, r2	; 46
     68c:	6e b4       	in	r6, 0x2e	; 46
     68e:	78 94       	sei
     690:	67 9c       	mul	r6, r7
     692:	f0 01       	movw	r30, r0
     694:	fe 5f       	subi	r31, 0xFE	; 254
     696:	09 94       	ijmp
     698:	00 00       	nop
     69a:	00 00       	nop
     69c:	00 00       	nop
     69e:	00 00       	nop

000006a0 <I_25__ST8_c1_c1>:
     6a0:	00 c0       	rjmp	.+0      	; 0x6a2 <I_25__ST8_c1_c1+0x2>
     6a2:	d9 01       	movw	r26, r18
     6a4:	2c 93       	st	X, r18
     6a6:	01 96       	adiw	r24, 0x01	; 1
     6a8:	f8 94       	cli
     6aa:	2e bc       	out	0x2e, r2	; 46
     6ac:	6e b4       	in	r6, 0x2e	; 46
     6ae:	78 94       	sei
     6b0:	67 9c       	mul	r6, r7
     6b2:	f0 01       	movw	r30, r0
     6b4:	fe 5f       	subi	r31, 0xFE	; 254
     6b6:	09 94       	ijmp
     6b8:	00 00       	nop
     6ba:	00 00       	nop
     6bc:	00 00       	nop
     6be:	00 00       	nop

000006c0 <I_26__ST8_c1_c2>:
     6c0:	00 c0       	rjmp	.+0      	; 0x6c2 <I_26__ST8_c1_c2+0x2>
     6c2:	d9 01       	movw	r26, r18
     6c4:	4c 93       	st	X, r20
     6c6:	01 96       	adiw	r24, 0x01	; 1
     6c8:	f8 94       	cli
     6ca:	2e bc       	out	0x2e, r2	; 46
     6cc:	6e b4       	in	r6, 0x2e	; 46
     6ce:	78 94       	sei
     6d0:	67 9c       	mul	r6, r7
     6d2:	f0 01       	movw	r30, r0
     6d4:	fe 5f       	subi	r31, 0xFE	; 254
     6d6:	09 94       	ijmp
     6d8:	00 00       	nop
     6da:	00 00       	nop
     6dc:	00 00       	nop
     6de:	00 00       	nop

000006e0 <I_27__ST8_c1_c3>:
     6e0:	00 c0       	rjmp	.+0      	; 0x6e2 <I_27__ST8_c1_c3+0x2>
     6e2:	d9 01       	movw	r26, r18
     6e4:	6c 93       	st	X, r22
     6e6:	01 96       	adiw	r24, 0x01	; 1
     6e8:	f8 94       	cli
     6ea:	2e bc       	out	0x2e, r2	; 46
     6ec:	6e b4       	in	r6, 0x2e	; 46
     6ee:	78 94       	sei
     6f0:	67 9c       	mul	r6, r7
     6f2:	f0 01       	movw	r30, r0
     6f4:	fe 5f       	subi	r31, 0xFE	; 254
     6f6:	09 94       	ijmp
     6f8:	00 00       	nop
     6fa:	00 00       	nop
     6fc:	00 00       	nop
     6fe:	00 00       	nop

00000700 <I_28__ST8_c2_c0>:
     700:	00 c0       	rjmp	.+0      	; 0x702 <I_28__ST8_c2_c0+0x2>
     702:	da 01       	movw	r26, r20
     704:	0c 93       	st	X, r16
     706:	01 96       	adiw	r24, 0x01	; 1
     708:	f8 94       	cli
     70a:	2e bc       	out	0x2e, r2	; 46
     70c:	6e b4       	in	r6, 0x2e	; 46
     70e:	78 94       	sei
     710:	67 9c       	mul	r6, r7
     712:	f0 01       	movw	r30, r0
     714:	fe 5f       	subi	r31, 0xFE	; 254
     716:	09 94       	ijmp
     718:	00 00       	nop
     71a:	00 00       	nop
     71c:	00 00       	nop
     71e:	00 00       	nop

00000720 <I_29__ST8_c2_c1>:
     720:	00 c0       	rjmp	.+0      	; 0x722 <I_29__ST8_c2_c1+0x2>
     722:	da 01       	movw	r26, r20
     724:	2c 93       	st	X, r18
     726:	01 96       	adiw	r24, 0x01	; 1
     728:	f8 94       	cli
     72a:	2e bc       	out	0x2e, r2	; 46
     72c:	6e b4       	in	r6, 0x2e	; 46
     72e:	78 94       	sei
     730:	67 9c       	mul	r6, r7
     732:	f0 01       	movw	r30, r0
     734:	fe 5f       	subi	r31, 0xFE	; 254
     736:	09 94       	ijmp
     738:	00 00       	nop
     73a:	00 00       	nop
     73c:	00 00       	nop
     73e:	00 00       	nop

00000740 <I_2A__ST8_c2_c2>:
     740:	00 c0       	rjmp	.+0      	; 0x742 <I_2A__ST8_c2_c2+0x2>
     742:	da 01       	movw	r26, r20
     744:	4c 93       	st	X, r20
     746:	01 96       	adiw	r24, 0x01	; 1
     748:	f8 94       	cli
     74a:	2e bc       	out	0x2e, r2	; 46
     74c:	6e b4       	in	r6, 0x2e	; 46
     74e:	78 94       	sei
     750:	67 9c       	mul	r6, r7
     752:	f0 01       	movw	r30, r0
     754:	fe 5f       	subi	r31, 0xFE	; 254
     756:	09 94       	ijmp
     758:	00 00       	nop
     75a:	00 00       	nop
     75c:	00 00       	nop
     75e:	00 00       	nop

00000760 <I_2B__ST8_c2_c3>:
     760:	00 c0       	rjmp	.+0      	; 0x762 <I_2B__ST8_c2_c3+0x2>
     762:	da 01       	movw	r26, r20
     764:	6c 93       	st	X, r22
     766:	01 96       	adiw	r24, 0x01	; 1
     768:	f8 94       	cli
     76a:	2e bc       	out	0x2e, r2	; 46
     76c:	6e b4       	in	r6, 0x2e	; 46
     76e:	78 94       	sei
     770:	67 9c       	mul	r6, r7
     772:	f0 01       	movw	r30, r0
     774:	fe 5f       	subi	r31, 0xFE	; 254
     776:	09 94       	ijmp
     778:	00 00       	nop
     77a:	00 00       	nop
     77c:	00 00       	nop
     77e:	00 00       	nop

00000780 <I_2C__ST8_c3_c0>:
     780:	00 c0       	rjmp	.+0      	; 0x782 <I_2C__ST8_c3_c0+0x2>
     782:	db 01       	movw	r26, r22
     784:	0c 93       	st	X, r16
     786:	01 96       	adiw	r24, 0x01	; 1
     788:	f8 94       	cli
     78a:	2e bc       	out	0x2e, r2	; 46
     78c:	6e b4       	in	r6, 0x2e	; 46
     78e:	78 94       	sei
     790:	67 9c       	mul	r6, r7
     792:	f0 01       	movw	r30, r0
     794:	fe 5f       	subi	r31, 0xFE	; 254
     796:	09 94       	ijmp
     798:	00 00       	nop
     79a:	00 00       	nop
     79c:	00 00       	nop
     79e:	00 00       	nop

000007a0 <I_2D__ST8_c3_c1>:
     7a0:	00 c0       	rjmp	.+0      	; 0x7a2 <I_2D__ST8_c3_c1+0x2>
     7a2:	db 01       	movw	r26, r22
     7a4:	2c 93       	st	X, r18
     7a6:	01 96       	adiw	r24, 0x01	; 1
     7a8:	f8 94       	cli
     7aa:	2e bc       	out	0x2e, r2	; 46
     7ac:	6e b4       	in	r6, 0x2e	; 46
     7ae:	78 94       	sei
     7b0:	67 9c       	mul	r6, r7
     7b2:	f0 01       	movw	r30, r0
     7b4:	fe 5f       	subi	r31, 0xFE	; 254
     7b6:	09 94       	ijmp
     7b8:	00 00       	nop
     7ba:	00 00       	nop
     7bc:	00 00       	nop
     7be:	00 00       	nop

000007c0 <I_2E__ST8_c3_c2>:
     7c0:	00 c0       	rjmp	.+0      	; 0x7c2 <I_2E__ST8_c3_c2+0x2>
     7c2:	db 01       	movw	r26, r22
     7c4:	4c 93       	st	X, r20
     7c6:	01 96       	adiw	r24, 0x01	; 1
     7c8:	f8 94       	cli
     7ca:	2e bc       	out	0x2e, r2	; 46
     7cc:	6e b4       	in	r6, 0x2e	; 46
     7ce:	78 94       	sei
     7d0:	67 9c       	mul	r6, r7
     7d2:	f0 01       	movw	r30, r0
     7d4:	fe 5f       	subi	r31, 0xFE	; 254
     7d6:	09 94       	ijmp
     7d8:	00 00       	nop
     7da:	00 00       	nop
     7dc:	00 00       	nop
     7de:	00 00       	nop

000007e0 <I_2F__ST8_c3_c3>:
     7e0:	00 c0       	rjmp	.+0      	; 0x7e2 <I_2F__ST8_c3_c3+0x2>
     7e2:	db 01       	movw	r26, r22
     7e4:	6c 93       	st	X, r22
     7e6:	01 96       	adiw	r24, 0x01	; 1
     7e8:	f8 94       	cli
     7ea:	2e bc       	out	0x2e, r2	; 46
     7ec:	6e b4       	in	r6, 0x2e	; 46
     7ee:	78 94       	sei
     7f0:	67 9c       	mul	r6, r7
     7f2:	f0 01       	movw	r30, r0
     7f4:	fe 5f       	subi	r31, 0xFE	; 254
     7f6:	09 94       	ijmp
     7f8:	00 00       	nop
     7fa:	00 00       	nop
     7fc:	00 00       	nop
     7fe:	00 00       	nop

00000800 <I_30__LD16_c0_c0>:
     800:	d8 01       	movw	r26, r16
     802:	0d 91       	ld	r16, X+
     804:	1c 91       	ld	r17, X
     806:	01 96       	adiw	r24, 0x01	; 1
     808:	f8 94       	cli
     80a:	2e bc       	out	0x2e, r2	; 46
     80c:	6e b4       	in	r6, 0x2e	; 46
     80e:	78 94       	sei
     810:	67 9c       	mul	r6, r7
     812:	f0 01       	movw	r30, r0
     814:	fe 5f       	subi	r31, 0xFE	; 254
     816:	09 94       	ijmp
     818:	00 00       	nop
     81a:	00 00       	nop
     81c:	00 00       	nop
     81e:	00 00       	nop

00000820 <I_31__LD16_c0_c1>:
     820:	d9 01       	movw	r26, r18
     822:	0d 91       	ld	r16, X+
     824:	1c 91       	ld	r17, X
     826:	01 96       	adiw	r24, 0x01	; 1
     828:	f8 94       	cli
     82a:	2e bc       	out	0x2e, r2	; 46
     82c:	6e b4       	in	r6, 0x2e	; 46
     82e:	78 94       	sei
     830:	67 9c       	mul	r6, r7
     832:	f0 01       	movw	r30, r0
     834:	fe 5f       	subi	r31, 0xFE	; 254
     836:	09 94       	ijmp
     838:	00 00       	nop
     83a:	00 00       	nop
     83c:	00 00       	nop
     83e:	00 00       	nop

00000840 <I_32__LD16_c0_c2>:
     840:	da 01       	movw	r26, r20
     842:	0d 91       	ld	r16, X+
     844:	1c 91       	ld	r17, X
     846:	01 96       	adiw	r24, 0x01	; 1
     848:	f8 94       	cli
     84a:	2e bc       	out	0x2e, r2	; 46
     84c:	6e b4       	in	r6, 0x2e	; 46
     84e:	78 94       	sei
     850:	67 9c       	mul	r6, r7
     852:	f0 01       	movw	r30, r0
     854:	fe 5f       	subi	r31, 0xFE	; 254
     856:	09 94       	ijmp
     858:	00 00       	nop
     85a:	00 00       	nop
     85c:	00 00       	nop
     85e:	00 00       	nop

00000860 <I_33__LD16_c0_c3>:
     860:	db 01       	movw	r26, r22
     862:	0d 91       	ld	r16, X+
     864:	1c 91       	ld	r17, X
     866:	01 96       	adiw	r24, 0x01	; 1
     868:	f8 94       	cli
     86a:	2e bc       	out	0x2e, r2	; 46
     86c:	6e b4       	in	r6, 0x2e	; 46
     86e:	78 94       	sei
     870:	67 9c       	mul	r6, r7
     872:	f0 01       	movw	r30, r0
     874:	fe 5f       	subi	r31, 0xFE	; 254
     876:	09 94       	ijmp
     878:	00 00       	nop
     87a:	00 00       	nop
     87c:	00 00       	nop
     87e:	00 00       	nop

00000880 <I_34__LD16_c1_c0>:
     880:	d8 01       	movw	r26, r16
     882:	2d 91       	ld	r18, X+
     884:	3c 91       	ld	r19, X
     886:	01 96       	adiw	r24, 0x01	; 1
     888:	f8 94       	cli
     88a:	2e bc       	out	0x2e, r2	; 46
     88c:	6e b4       	in	r6, 0x2e	; 46
     88e:	78 94       	sei
     890:	67 9c       	mul	r6, r7
     892:	f0 01       	movw	r30, r0
     894:	fe 5f       	subi	r31, 0xFE	; 254
     896:	09 94       	ijmp
     898:	00 00       	nop
     89a:	00 00       	nop
     89c:	00 00       	nop
     89e:	00 00       	nop

000008a0 <I_35__LD16_c1_c1>:
     8a0:	d9 01       	movw	r26, r18
     8a2:	2d 91       	ld	r18, X+
     8a4:	3c 91       	ld	r19, X
     8a6:	01 96       	adiw	r24, 0x01	; 1
     8a8:	f8 94       	cli
     8aa:	2e bc       	out	0x2e, r2	; 46
     8ac:	6e b4       	in	r6, 0x2e	; 46
     8ae:	78 94       	sei
     8b0:	67 9c       	mul	r6, r7
     8b2:	f0 01       	movw	r30, r0
     8b4:	fe 5f       	subi	r31, 0xFE	; 254
     8b6:	09 94       	ijmp
     8b8:	00 00       	nop
     8ba:	00 00       	nop
     8bc:	00 00       	nop
     8be:	00 00       	nop

000008c0 <I_36__LD16_c1_c2>:
     8c0:	da 01       	movw	r26, r20
     8c2:	2d 91       	ld	r18, X+
     8c4:	3c 91       	ld	r19, X
     8c6:	01 96       	adiw	r24, 0x01	; 1
     8c8:	f8 94       	cli
     8ca:	2e bc       	out	0x2e, r2	; 46
     8cc:	6e b4       	in	r6, 0x2e	; 46
     8ce:	78 94       	sei
     8d0:	67 9c       	mul	r6, r7
     8d2:	f0 01       	movw	r30, r0
     8d4:	fe 5f       	subi	r31, 0xFE	; 254
     8d6:	09 94       	ijmp
     8d8:	00 00       	nop
     8da:	00 00       	nop
     8dc:	00 00       	nop
     8de:	00 00       	nop

000008e0 <I_37__LD16_c1_c3>:
     8e0:	db 01       	movw	r26, r22
     8e2:	2d 91       	ld	r18, X+
     8e4:	3c 91       	ld	r19, X
     8e6:	01 96       	adiw	r24, 0x01	; 1
     8e8:	f8 94       	cli
     8ea:	2e bc       	out	0x2e, r2	; 46
     8ec:	6e b4       	in	r6, 0x2e	; 46
     8ee:	78 94       	sei
     8f0:	67 9c       	mul	r6, r7
     8f2:	f0 01       	movw	r30, r0
     8f4:	fe 5f       	subi	r31, 0xFE	; 254
     8f6:	09 94       	ijmp
     8f8:	00 00       	nop
     8fa:	00 00       	nop
     8fc:	00 00       	nop
     8fe:	00 00       	nop

00000900 <I_38__LD16_c2_c0>:
     900:	d8 01       	movw	r26, r16
     902:	4d 91       	ld	r20, X+
     904:	5c 91       	ld	r21, X
     906:	01 96       	adiw	r24, 0x01	; 1
     908:	f8 94       	cli
     90a:	2e bc       	out	0x2e, r2	; 46
     90c:	6e b4       	in	r6, 0x2e	; 46
     90e:	78 94       	sei
     910:	67 9c       	mul	r6, r7
     912:	f0 01       	movw	r30, r0
     914:	fe 5f       	subi	r31, 0xFE	; 254
     916:	09 94       	ijmp
     918:	00 00       	nop
     91a:	00 00       	nop
     91c:	00 00       	nop
     91e:	00 00       	nop

00000920 <I_39__LD16_c2_c1>:
     920:	d9 01       	movw	r26, r18
     922:	4d 91       	ld	r20, X+
     924:	5c 91       	ld	r21, X
     926:	01 96       	adiw	r24, 0x01	; 1
     928:	f8 94       	cli
     92a:	2e bc       	out	0x2e, r2	; 46
     92c:	6e b4       	in	r6, 0x2e	; 46
     92e:	78 94       	sei
     930:	67 9c       	mul	r6, r7
     932:	f0 01       	movw	r30, r0
     934:	fe 5f       	subi	r31, 0xFE	; 254
     936:	09 94       	ijmp
     938:	00 00       	nop
     93a:	00 00       	nop
     93c:	00 00       	nop
     93e:	00 00       	nop

00000940 <I_3A__LD16_c2_c2>:
     940:	da 01       	movw	r26, r20
     942:	4d 91       	ld	r20, X+
     944:	5c 91       	ld	r21, X
     946:	01 96       	adiw	r24, 0x01	; 1
     948:	f8 94       	cli
     94a:	2e bc       	out	0x2e, r2	; 46
     94c:	6e b4       	in	r6, 0x2e	; 46
     94e:	78 94       	sei
     950:	67 9c       	mul	r6, r7
     952:	f0 01       	movw	r30, r0
     954:	fe 5f       	subi	r31, 0xFE	; 254
     956:	09 94       	ijmp
     958:	00 00       	nop
     95a:	00 00       	nop
     95c:	00 00       	nop
     95e:	00 00       	nop

00000960 <I_3B__LD16_c2_c3>:
     960:	db 01       	movw	r26, r22
     962:	4d 91       	ld	r20, X+
     964:	5c 91       	ld	r21, X
     966:	01 96       	adiw	r24, 0x01	; 1
     968:	f8 94       	cli
     96a:	2e bc       	out	0x2e, r2	; 46
     96c:	6e b4       	in	r6, 0x2e	; 46
     96e:	78 94       	sei
     970:	67 9c       	mul	r6, r7
     972:	f0 01       	movw	r30, r0
     974:	fe 5f       	subi	r31, 0xFE	; 254
     976:	09 94       	ijmp
     978:	00 00       	nop
     97a:	00 00       	nop
     97c:	00 00       	nop
     97e:	00 00       	nop

00000980 <I_3C__LD16_c3_c0>:
     980:	d8 01       	movw	r26, r16
     982:	6d 91       	ld	r22, X+
     984:	7c 91       	ld	r23, X
     986:	01 96       	adiw	r24, 0x01	; 1
     988:	f8 94       	cli
     98a:	2e bc       	out	0x2e, r2	; 46
     98c:	6e b4       	in	r6, 0x2e	; 46
     98e:	78 94       	sei
     990:	67 9c       	mul	r6, r7
     992:	f0 01       	movw	r30, r0
     994:	fe 5f       	subi	r31, 0xFE	; 254
     996:	09 94       	ijmp
     998:	00 00       	nop
     99a:	00 00       	nop
     99c:	00 00       	nop
     99e:	00 00       	nop

000009a0 <I_3D__LD16_c3_c1>:
     9a0:	d9 01       	movw	r26, r18
     9a2:	6d 91       	ld	r22, X+
     9a4:	7c 91       	ld	r23, X
     9a6:	01 96       	adiw	r24, 0x01	; 1
     9a8:	f8 94       	cli
     9aa:	2e bc       	out	0x2e, r2	; 46
     9ac:	6e b4       	in	r6, 0x2e	; 46
     9ae:	78 94       	sei
     9b0:	67 9c       	mul	r6, r7
     9b2:	f0 01       	movw	r30, r0
     9b4:	fe 5f       	subi	r31, 0xFE	; 254
     9b6:	09 94       	ijmp
     9b8:	00 00       	nop
     9ba:	00 00       	nop
     9bc:	00 00       	nop
     9be:	00 00       	nop

000009c0 <I_3E__LD16_c3_c2>:
     9c0:	da 01       	movw	r26, r20
     9c2:	6d 91       	ld	r22, X+
     9c4:	7c 91       	ld	r23, X
     9c6:	01 96       	adiw	r24, 0x01	; 1
     9c8:	f8 94       	cli
     9ca:	2e bc       	out	0x2e, r2	; 46
     9cc:	6e b4       	in	r6, 0x2e	; 46
     9ce:	78 94       	sei
     9d0:	67 9c       	mul	r6, r7
     9d2:	f0 01       	movw	r30, r0
     9d4:	fe 5f       	subi	r31, 0xFE	; 254
     9d6:	09 94       	ijmp
     9d8:	00 00       	nop
     9da:	00 00       	nop
     9dc:	00 00       	nop
     9de:	00 00       	nop

000009e0 <I_3F__LD16_c3_c3>:
     9e0:	db 01       	movw	r26, r22
     9e2:	6d 91       	ld	r22, X+
     9e4:	7c 91       	ld	r23, X
     9e6:	01 96       	adiw	r24, 0x01	; 1
     9e8:	f8 94       	cli
     9ea:	2e bc       	out	0x2e, r2	; 46
     9ec:	6e b4       	in	r6, 0x2e	; 46
     9ee:	78 94       	sei
     9f0:	67 9c       	mul	r6, r7
     9f2:	f0 01       	movw	r30, r0
     9f4:	fe 5f       	subi	r31, 0xFE	; 254
     9f6:	09 94       	ijmp
     9f8:	00 00       	nop
     9fa:	00 00       	nop
     9fc:	00 00       	nop
     9fe:	00 00       	nop

00000a00 <I_40__ST16_c0_c0>:
     a00:	d8 01       	movw	r26, r16
     a02:	0d 93       	st	X+, r16
     a04:	1c 93       	st	X, r17
     a06:	01 96       	adiw	r24, 0x01	; 1
     a08:	f8 94       	cli
     a0a:	2e bc       	out	0x2e, r2	; 46
     a0c:	6e b4       	in	r6, 0x2e	; 46
     a0e:	78 94       	sei
     a10:	67 9c       	mul	r6, r7
     a12:	f0 01       	movw	r30, r0
     a14:	fe 5f       	subi	r31, 0xFE	; 254
     a16:	09 94       	ijmp
     a18:	00 00       	nop
     a1a:	00 00       	nop
     a1c:	00 00       	nop
     a1e:	00 00       	nop

00000a20 <I_41__ST16_c0_c1>:
     a20:	d8 01       	movw	r26, r16
     a22:	2d 93       	st	X+, r18
     a24:	3c 93       	st	X, r19
     a26:	01 96       	adiw	r24, 0x01	; 1
     a28:	f8 94       	cli
     a2a:	2e bc       	out	0x2e, r2	; 46
     a2c:	6e b4       	in	r6, 0x2e	; 46
     a2e:	78 94       	sei
     a30:	67 9c       	mul	r6, r7
     a32:	f0 01       	movw	r30, r0
     a34:	fe 5f       	subi	r31, 0xFE	; 254
     a36:	09 94       	ijmp
     a38:	00 00       	nop
     a3a:	00 00       	nop
     a3c:	00 00       	nop
     a3e:	00 00       	nop

00000a40 <I_42__ST16_c0_c2>:
     a40:	d8 01       	movw	r26, r16
     a42:	4d 93       	st	X+, r20
     a44:	5c 93       	st	X, r21
     a46:	01 96       	adiw	r24, 0x01	; 1
     a48:	f8 94       	cli
     a4a:	2e bc       	out	0x2e, r2	; 46
     a4c:	6e b4       	in	r6, 0x2e	; 46
     a4e:	78 94       	sei
     a50:	67 9c       	mul	r6, r7
     a52:	f0 01       	movw	r30, r0
     a54:	fe 5f       	subi	r31, 0xFE	; 254
     a56:	09 94       	ijmp
     a58:	00 00       	nop
     a5a:	00 00       	nop
     a5c:	00 00       	nop
     a5e:	00 00       	nop

00000a60 <I_43__ST16_c0_c3>:
     a60:	d8 01       	movw	r26, r16
     a62:	6d 93       	st	X+, r22
     a64:	7c 93       	st	X, r23
     a66:	01 96       	adiw	r24, 0x01	; 1
     a68:	f8 94       	cli
     a6a:	2e bc       	out	0x2e, r2	; 46
     a6c:	6e b4       	in	r6, 0x2e	; 46
     a6e:	78 94       	sei
     a70:	67 9c       	mul	r6, r7
     a72:	f0 01       	movw	r30, r0
     a74:	fe 5f       	subi	r31, 0xFE	; 254
     a76:	09 94       	ijmp
     a78:	00 00       	nop
     a7a:	00 00       	nop
     a7c:	00 00       	nop
     a7e:	00 00       	nop

00000a80 <I_44__ST16_c1_c0>:
     a80:	d9 01       	movw	r26, r18
     a82:	0d 93       	st	X+, r16
     a84:	1c 93       	st	X, r17
     a86:	01 96       	adiw	r24, 0x01	; 1
     a88:	f8 94       	cli
     a8a:	2e bc       	out	0x2e, r2	; 46
     a8c:	6e b4       	in	r6, 0x2e	; 46
     a8e:	78 94       	sei
     a90:	67 9c       	mul	r6, r7
     a92:	f0 01       	movw	r30, r0
     a94:	fe 5f       	subi	r31, 0xFE	; 254
     a96:	09 94       	ijmp
     a98:	00 00       	nop
     a9a:	00 00       	nop
     a9c:	00 00       	nop
     a9e:	00 00       	nop

00000aa0 <I_45__ST16_c1_c1>:
     aa0:	d9 01       	movw	r26, r18
     aa2:	2d 93       	st	X+, r18
     aa4:	3c 93       	st	X, r19
     aa6:	01 96       	adiw	r24, 0x01	; 1
     aa8:	f8 94       	cli
     aaa:	2e bc       	out	0x2e, r2	; 46
     aac:	6e b4       	in	r6, 0x2e	; 46
     aae:	78 94       	sei
     ab0:	67 9c       	mul	r6, r7
     ab2:	f0 01       	movw	r30, r0
     ab4:	fe 5f       	subi	r31, 0xFE	; 254
     ab6:	09 94       	ijmp
     ab8:	00 00       	nop
     aba:	00 00       	nop
     abc:	00 00       	nop
     abe:	00 00       	nop

00000ac0 <I_46__ST16_c1_c2>:
     ac0:	d9 01       	movw	r26, r18
     ac2:	4d 93       	st	X+, r20
     ac4:	5c 93       	st	X, r21
     ac6:	01 96       	adiw	r24, 0x01	; 1
     ac8:	f8 94       	cli
     aca:	2e bc       	out	0x2e, r2	; 46
     acc:	6e b4       	in	r6, 0x2e	; 46
     ace:	78 94       	sei
     ad0:	67 9c       	mul	r6, r7
     ad2:	f0 01       	movw	r30, r0
     ad4:	fe 5f       	subi	r31, 0xFE	; 254
     ad6:	09 94       	ijmp
     ad8:	00 00       	nop
     ada:	00 00       	nop
     adc:	00 00       	nop
     ade:	00 00       	nop

00000ae0 <I_47__ST16_c1_c3>:
     ae0:	d9 01       	movw	r26, r18
     ae2:	6d 93       	st	X+, r22
     ae4:	7c 93       	st	X, r23
     ae6:	01 96       	adiw	r24, 0x01	; 1
     ae8:	f8 94       	cli
     aea:	2e bc       	out	0x2e, r2	; 46
     aec:	6e b4       	in	r6, 0x2e	; 46
     aee:	78 94       	sei
     af0:	67 9c       	mul	r6, r7
     af2:	f0 01       	movw	r30, r0
     af4:	fe 5f       	subi	r31, 0xFE	; 254
     af6:	09 94       	ijmp
     af8:	00 00       	nop
     afa:	00 00       	nop
     afc:	00 00       	nop
     afe:	00 00       	nop

00000b00 <I_48__ST16_c2_c0>:
     b00:	da 01       	movw	r26, r20
     b02:	0d 93       	st	X+, r16
     b04:	1c 93       	st	X, r17
     b06:	01 96       	adiw	r24, 0x01	; 1
     b08:	f8 94       	cli
     b0a:	2e bc       	out	0x2e, r2	; 46
     b0c:	6e b4       	in	r6, 0x2e	; 46
     b0e:	78 94       	sei
     b10:	67 9c       	mul	r6, r7
     b12:	f0 01       	movw	r30, r0
     b14:	fe 5f       	subi	r31, 0xFE	; 254
     b16:	09 94       	ijmp
     b18:	00 00       	nop
     b1a:	00 00       	nop
     b1c:	00 00       	nop
     b1e:	00 00       	nop

00000b20 <I_49__ST16_c2_c1>:
     b20:	da 01       	movw	r26, r20
     b22:	2d 93       	st	X+, r18
     b24:	3c 93       	st	X, r19
     b26:	01 96       	adiw	r24, 0x01	; 1
     b28:	f8 94       	cli
     b2a:	2e bc       	out	0x2e, r2	; 46
     b2c:	6e b4       	in	r6, 0x2e	; 46
     b2e:	78 94       	sei
     b30:	67 9c       	mul	r6, r7
     b32:	f0 01       	movw	r30, r0
     b34:	fe 5f       	subi	r31, 0xFE	; 254
     b36:	09 94       	ijmp
     b38:	00 00       	nop
     b3a:	00 00       	nop
     b3c:	00 00       	nop
     b3e:	00 00       	nop

00000b40 <I_4A__ST16_c2_c2>:
     b40:	da 01       	movw	r26, r20
     b42:	4d 93       	st	X+, r20
     b44:	5c 93       	st	X, r21
     b46:	01 96       	adiw	r24, 0x01	; 1
     b48:	f8 94       	cli
     b4a:	2e bc       	out	0x2e, r2	; 46
     b4c:	6e b4       	in	r6, 0x2e	; 46
     b4e:	78 94       	sei
     b50:	67 9c       	mul	r6, r7
     b52:	f0 01       	movw	r30, r0
     b54:	fe 5f       	subi	r31, 0xFE	; 254
     b56:	09 94       	ijmp
     b58:	00 00       	nop
     b5a:	00 00       	nop
     b5c:	00 00       	nop
     b5e:	00 00       	nop

00000b60 <I_4B__ST16_c2_c3>:
     b60:	da 01       	movw	r26, r20
     b62:	6d 93       	st	X+, r22
     b64:	7c 93       	st	X, r23
     b66:	01 96       	adiw	r24, 0x01	; 1
     b68:	f8 94       	cli
     b6a:	2e bc       	out	0x2e, r2	; 46
     b6c:	6e b4       	in	r6, 0x2e	; 46
     b6e:	78 94       	sei
     b70:	67 9c       	mul	r6, r7
     b72:	f0 01       	movw	r30, r0
     b74:	fe 5f       	subi	r31, 0xFE	; 254
     b76:	09 94       	ijmp
     b78:	00 00       	nop
     b7a:	00 00       	nop
     b7c:	00 00       	nop
     b7e:	00 00       	nop

00000b80 <I_4C__ST16_c3_c0>:
     b80:	db 01       	movw	r26, r22
     b82:	0d 93       	st	X+, r16
     b84:	1c 93       	st	X, r17
     b86:	01 96       	adiw	r24, 0x01	; 1
     b88:	f8 94       	cli
     b8a:	2e bc       	out	0x2e, r2	; 46
     b8c:	6e b4       	in	r6, 0x2e	; 46
     b8e:	78 94       	sei
     b90:	67 9c       	mul	r6, r7
     b92:	f0 01       	movw	r30, r0
     b94:	fe 5f       	subi	r31, 0xFE	; 254
     b96:	09 94       	ijmp
     b98:	00 00       	nop
     b9a:	00 00       	nop
     b9c:	00 00       	nop
     b9e:	00 00       	nop

00000ba0 <I_4D__ST16_c3_c1>:
     ba0:	db 01       	movw	r26, r22
     ba2:	2d 93       	st	X+, r18
     ba4:	3c 93       	st	X, r19
     ba6:	01 96       	adiw	r24, 0x01	; 1
     ba8:	f8 94       	cli
     baa:	2e bc       	out	0x2e, r2	; 46
     bac:	6e b4       	in	r6, 0x2e	; 46
     bae:	78 94       	sei
     bb0:	67 9c       	mul	r6, r7
     bb2:	f0 01       	movw	r30, r0
     bb4:	fe 5f       	subi	r31, 0xFE	; 254
     bb6:	09 94       	ijmp
     bb8:	00 00       	nop
     bba:	00 00       	nop
     bbc:	00 00       	nop
     bbe:	00 00       	nop

00000bc0 <I_4E__ST16_c3_c2>:
     bc0:	db 01       	movw	r26, r22
     bc2:	4d 93       	st	X+, r20
     bc4:	5c 93       	st	X, r21
     bc6:	01 96       	adiw	r24, 0x01	; 1
     bc8:	f8 94       	cli
     bca:	2e bc       	out	0x2e, r2	; 46
     bcc:	6e b4       	in	r6, 0x2e	; 46
     bce:	78 94       	sei
     bd0:	67 9c       	mul	r6, r7
     bd2:	f0 01       	movw	r30, r0
     bd4:	fe 5f       	subi	r31, 0xFE	; 254
     bd6:	09 94       	ijmp
     bd8:	00 00       	nop
     bda:	00 00       	nop
     bdc:	00 00       	nop
     bde:	00 00       	nop

00000be0 <I_4F__ST16_c3_c3>:
     be0:	db 01       	movw	r26, r22
     be2:	6d 93       	st	X+, r22
     be4:	7c 93       	st	X, r23
     be6:	01 96       	adiw	r24, 0x01	; 1
     be8:	f8 94       	cli
     bea:	2e bc       	out	0x2e, r2	; 46
     bec:	6e b4       	in	r6, 0x2e	; 46
     bee:	78 94       	sei
     bf0:	67 9c       	mul	r6, r7
     bf2:	f0 01       	movw	r30, r0
     bf4:	fe 5f       	subi	r31, 0xFE	; 254
     bf6:	09 94       	ijmp
     bf8:	00 00       	nop
     bfa:	00 00       	nop
     bfc:	00 00       	nop
     bfe:	00 00       	nop

00000c00 <I_50__LDI1_c0>:
     c00:	c8 95       	lpm
     c02:	01 e0       	ldi	r16, 0x01	; 1
     c04:	10 e0       	ldi	r17, 0x00	; 0
     c06:	01 96       	adiw	r24, 0x01	; 1
     c08:	f8 94       	cli
     c0a:	2e bc       	out	0x2e, r2	; 46
     c0c:	6e b4       	in	r6, 0x2e	; 46
     c0e:	78 94       	sei
     c10:	67 9c       	mul	r6, r7
     c12:	f0 01       	movw	r30, r0
     c14:	fe 5f       	subi	r31, 0xFE	; 254
     c16:	09 94       	ijmp
     c18:	00 00       	nop
     c1a:	00 00       	nop
     c1c:	00 00       	nop
     c1e:	00 00       	nop

00000c20 <I_51__LD8_POST_c0_c1>:
     c20:	d9 01       	movw	r26, r18
     c22:	0d 91       	ld	r16, X+
     c24:	11 27       	eor	r17, r17
     c26:	9d 01       	movw	r18, r26
     c28:	01 96       	adiw	r24, 0x01	; 1
     c2a:	f8 94       	cli
     c2c:	2e bc       	out	0x2e, r2	; 46
     c2e:	6e b4       	in	r6, 0x2e	; 46
     c30:	78 94       	sei
     c32:	67 9c       	mul	r6, r7
     c34:	f0 01       	movw	r30, r0
     c36:	fe 5f       	subi	r31, 0xFE	; 254
     c38:	09 94       	ijmp
     c3a:	00 00       	nop
     c3c:	00 00       	nop
     c3e:	00 00       	nop

00000c40 <I_52__LD8_POST_c0_c2>:
     c40:	da 01       	movw	r26, r20
     c42:	0d 91       	ld	r16, X+
     c44:	11 27       	eor	r17, r17
     c46:	ad 01       	movw	r20, r26
     c48:	01 96       	adiw	r24, 0x01	; 1
     c4a:	f8 94       	cli
     c4c:	2e bc       	out	0x2e, r2	; 46
     c4e:	6e b4       	in	r6, 0x2e	; 46
     c50:	78 94       	sei
     c52:	67 9c       	mul	r6, r7
     c54:	f0 01       	movw	r30, r0
     c56:	fe 5f       	subi	r31, 0xFE	; 254
     c58:	09 94       	ijmp
     c5a:	00 00       	nop
     c5c:	00 00       	nop
     c5e:	00 00       	nop

00000c60 <I_53__LD8_POST_c0_c3>:
     c60:	db 01       	movw	r26, r22
     c62:	0d 91       	ld	r16, X+
     c64:	11 27       	eor	r17, r17
     c66:	bd 01       	movw	r22, r26
     c68:	01 96       	adiw	r24, 0x01	; 1
     c6a:	f8 94       	cli
     c6c:	2e bc       	out	0x2e, r2	; 46
     c6e:	6e b4       	in	r6, 0x2e	; 46
     c70:	78 94       	sei
     c72:	67 9c       	mul	r6, r7
     c74:	f0 01       	movw	r30, r0
     c76:	fe 5f       	subi	r31, 0xFE	; 254
     c78:	09 94       	ijmp
     c7a:	00 00       	nop
     c7c:	00 00       	nop
     c7e:	00 00       	nop

00000c80 <I_54__LD8_POST_c1_c0>:
     c80:	d8 01       	movw	r26, r16
     c82:	2d 91       	ld	r18, X+
     c84:	33 27       	eor	r19, r19
     c86:	8d 01       	movw	r16, r26
     c88:	01 96       	adiw	r24, 0x01	; 1
     c8a:	f8 94       	cli
     c8c:	2e bc       	out	0x2e, r2	; 46
     c8e:	6e b4       	in	r6, 0x2e	; 46
     c90:	78 94       	sei
     c92:	67 9c       	mul	r6, r7
     c94:	f0 01       	movw	r30, r0
     c96:	fe 5f       	subi	r31, 0xFE	; 254
     c98:	09 94       	ijmp
     c9a:	00 00       	nop
     c9c:	00 00       	nop
     c9e:	00 00       	nop

00000ca0 <I_55__LDI1_c1>:
     ca0:	c8 95       	lpm
     ca2:	21 e0       	ldi	r18, 0x01	; 1
     ca4:	30 e0       	ldi	r19, 0x00	; 0
     ca6:	01 96       	adiw	r24, 0x01	; 1
     ca8:	f8 94       	cli
     caa:	2e bc       	out	0x2e, r2	; 46
     cac:	6e b4       	in	r6, 0x2e	; 46
     cae:	78 94       	sei
     cb0:	67 9c       	mul	r6, r7
     cb2:	f0 01       	movw	r30, r0
     cb4:	fe 5f       	subi	r31, 0xFE	; 254
     cb6:	09 94       	ijmp
     cb8:	00 00       	nop
     cba:	00 00       	nop
     cbc:	00 00       	nop
     cbe:	00 00       	nop

00000cc0 <I_56__LD8_POST_c1_c2>:
     cc0:	da 01       	movw	r26, r20
     cc2:	2d 91       	ld	r18, X+
     cc4:	33 27       	eor	r19, r19
     cc6:	ad 01       	movw	r20, r26
     cc8:	01 96       	adiw	r24, 0x01	; 1
     cca:	f8 94       	cli
     ccc:	2e bc       	out	0x2e, r2	; 46
     cce:	6e b4       	in	r6, 0x2e	; 46
     cd0:	78 94       	sei
     cd2:	67 9c       	mul	r6, r7
     cd4:	f0 01       	movw	r30, r0
     cd6:	fe 5f       	subi	r31, 0xFE	; 254
     cd8:	09 94       	ijmp
     cda:	00 00       	nop
     cdc:	00 00       	nop
     cde:	00 00       	nop

00000ce0 <I_57__LD8_POST_c1_c3>:
     ce0:	db 01       	movw	r26, r22
     ce2:	2d 91       	ld	r18, X+
     ce4:	33 27       	eor	r19, r19
     ce6:	bd 01       	movw	r22, r26
     ce8:	01 96       	adiw	r24, 0x01	; 1
     cea:	f8 94       	cli
     cec:	2e bc       	out	0x2e, r2	; 46
     cee:	6e b4       	in	r6, 0x2e	; 46
     cf0:	78 94       	sei
     cf2:	67 9c       	mul	r6, r7
     cf4:	f0 01       	movw	r30, r0
     cf6:	fe 5f       	subi	r31, 0xFE	; 254
     cf8:	09 94       	ijmp
     cfa:	00 00       	nop
     cfc:	00 00       	nop
     cfe:	00 00       	nop

00000d00 <I_58__LD8_POST_c2_c0>:
     d00:	d8 01       	movw	r26, r16
     d02:	4d 91       	ld	r20, X+
     d04:	55 27       	eor	r21, r21
     d06:	8d 01       	movw	r16, r26
     d08:	01 96       	adiw	r24, 0x01	; 1
     d0a:	f8 94       	cli
     d0c:	2e bc       	out	0x2e, r2	; 46
     d0e:	6e b4       	in	r6, 0x2e	; 46
     d10:	78 94       	sei
     d12:	67 9c       	mul	r6, r7
     d14:	f0 01       	movw	r30, r0
     d16:	fe 5f       	subi	r31, 0xFE	; 254
     d18:	09 94       	ijmp
     d1a:	00 00       	nop
     d1c:	00 00       	nop
     d1e:	00 00       	nop

00000d20 <I_59__LD8_POST_c2_c1>:
     d20:	d9 01       	movw	r26, r18
     d22:	4d 91       	ld	r20, X+
     d24:	55 27       	eor	r21, r21
     d26:	9d 01       	movw	r18, r26
     d28:	01 96       	adiw	r24, 0x01	; 1
     d2a:	f8 94       	cli
     d2c:	2e bc       	out	0x2e, r2	; 46
     d2e:	6e b4       	in	r6, 0x2e	; 46
     d30:	78 94       	sei
     d32:	67 9c       	mul	r6, r7
     d34:	f0 01       	movw	r30, r0
     d36:	fe 5f       	subi	r31, 0xFE	; 254
     d38:	09 94       	ijmp
     d3a:	00 00       	nop
     d3c:	00 00       	nop
     d3e:	00 00       	nop

00000d40 <I_5A__LDI1_c2>:
     d40:	c8 95       	lpm
     d42:	41 e0       	ldi	r20, 0x01	; 1
     d44:	50 e0       	ldi	r21, 0x00	; 0
     d46:	01 96       	adiw	r24, 0x01	; 1
     d48:	f8 94       	cli
     d4a:	2e bc       	out	0x2e, r2	; 46
     d4c:	6e b4       	in	r6, 0x2e	; 46
     d4e:	78 94       	sei
     d50:	67 9c       	mul	r6, r7
     d52:	f0 01       	movw	r30, r0
     d54:	fe 5f       	subi	r31, 0xFE	; 254
     d56:	09 94       	ijmp
     d58:	00 00       	nop
     d5a:	00 00       	nop
     d5c:	00 00       	nop
     d5e:	00 00       	nop

00000d60 <I_5B__LD8_POST_c2_c3>:
     d60:	db 01       	movw	r26, r22
     d62:	4d 91       	ld	r20, X+
     d64:	55 27       	eor	r21, r21
     d66:	bd 01       	movw	r22, r26
     d68:	01 96       	adiw	r24, 0x01	; 1
     d6a:	f8 94       	cli
     d6c:	2e bc       	out	0x2e, r2	; 46
     d6e:	6e b4       	in	r6, 0x2e	; 46
     d70:	78 94       	sei
     d72:	67 9c       	mul	r6, r7
     d74:	f0 01       	movw	r30, r0
     d76:	fe 5f       	subi	r31, 0xFE	; 254
     d78:	09 94       	ijmp
     d7a:	00 00       	nop
     d7c:	00 00       	nop
     d7e:	00 00       	nop

00000d80 <I_5C__LD8_POST_c3_c0>:
     d80:	d8 01       	movw	r26, r16
     d82:	6d 91       	ld	r22, X+
     d84:	77 27       	eor	r23, r23
     d86:	8d 01       	movw	r16, r26
     d88:	01 96       	adiw	r24, 0x01	; 1
     d8a:	f8 94       	cli
     d8c:	2e bc       	out	0x2e, r2	; 46
     d8e:	6e b4       	in	r6, 0x2e	; 46
     d90:	78 94       	sei
     d92:	67 9c       	mul	r6, r7
     d94:	f0 01       	movw	r30, r0
     d96:	fe 5f       	subi	r31, 0xFE	; 254
     d98:	09 94       	ijmp
     d9a:	00 00       	nop
     d9c:	00 00       	nop
     d9e:	00 00       	nop

00000da0 <I_5D__LD8_POST_c3_c1>:
     da0:	d9 01       	movw	r26, r18
     da2:	6d 91       	ld	r22, X+
     da4:	77 27       	eor	r23, r23
     da6:	9d 01       	movw	r18, r26
     da8:	01 96       	adiw	r24, 0x01	; 1
     daa:	f8 94       	cli
     dac:	2e bc       	out	0x2e, r2	; 46
     dae:	6e b4       	in	r6, 0x2e	; 46
     db0:	78 94       	sei
     db2:	67 9c       	mul	r6, r7
     db4:	f0 01       	movw	r30, r0
     db6:	fe 5f       	subi	r31, 0xFE	; 254
     db8:	09 94       	ijmp
     dba:	00 00       	nop
     dbc:	00 00       	nop
     dbe:	00 00       	nop

00000dc0 <I_5E__LD8_POST_c3_c2>:
     dc0:	da 01       	movw	r26, r20
     dc2:	6d 91       	ld	r22, X+
     dc4:	77 27       	eor	r23, r23
     dc6:	ad 01       	movw	r20, r26
     dc8:	01 96       	adiw	r24, 0x01	; 1
     dca:	f8 94       	cli
     dcc:	2e bc       	out	0x2e, r2	; 46
     dce:	6e b4       	in	r6, 0x2e	; 46
     dd0:	78 94       	sei
     dd2:	67 9c       	mul	r6, r7
     dd4:	f0 01       	movw	r30, r0
     dd6:	fe 5f       	subi	r31, 0xFE	; 254
     dd8:	09 94       	ijmp
     dda:	00 00       	nop
     ddc:	00 00       	nop
     dde:	00 00       	nop

00000de0 <I_5F__LDI1_c3>:
     de0:	c8 95       	lpm
     de2:	61 e0       	ldi	r22, 0x01	; 1
     de4:	70 e0       	ldi	r23, 0x00	; 0
     de6:	01 96       	adiw	r24, 0x01	; 1
     de8:	f8 94       	cli
     dea:	2e bc       	out	0x2e, r2	; 46
     dec:	6e b4       	in	r6, 0x2e	; 46
     dee:	78 94       	sei
     df0:	67 9c       	mul	r6, r7
     df2:	f0 01       	movw	r30, r0
     df4:	fe 5f       	subi	r31, 0xFE	; 254
     df6:	09 94       	ijmp
     df8:	00 00       	nop
     dfa:	00 00       	nop
     dfc:	00 00       	nop
     dfe:	00 00       	nop

00000e00 <I_60__ST8_POST_c0_c0>:
     e00:	00 00       	nop
     e02:	d8 01       	movw	r26, r16
     e04:	0d 93       	st	X+, r16
     e06:	8d 01       	movw	r16, r26
     e08:	01 96       	adiw	r24, 0x01	; 1
     e0a:	f8 94       	cli
     e0c:	2e bc       	out	0x2e, r2	; 46
     e0e:	6e b4       	in	r6, 0x2e	; 46
     e10:	78 94       	sei
     e12:	67 9c       	mul	r6, r7
     e14:	f0 01       	movw	r30, r0
     e16:	fe 5f       	subi	r31, 0xFE	; 254
     e18:	09 94       	ijmp
     e1a:	00 00       	nop
     e1c:	00 00       	nop
     e1e:	00 00       	nop

00000e20 <I_61__ST8_POST_c0_c1>:
     e20:	00 00       	nop
     e22:	d8 01       	movw	r26, r16
     e24:	2d 93       	st	X+, r18
     e26:	8d 01       	movw	r16, r26
     e28:	01 96       	adiw	r24, 0x01	; 1
     e2a:	f8 94       	cli
     e2c:	2e bc       	out	0x2e, r2	; 46
     e2e:	6e b4       	in	r6, 0x2e	; 46
     e30:	78 94       	sei
     e32:	67 9c       	mul	r6, r7
     e34:	f0 01       	movw	r30, r0
     e36:	fe 5f       	subi	r31, 0xFE	; 254
     e38:	09 94       	ijmp
     e3a:	00 00       	nop
     e3c:	00 00       	nop
     e3e:	00 00       	nop

00000e40 <I_62__ST8_POST_c0_c2>:
     e40:	00 00       	nop
     e42:	d8 01       	movw	r26, r16
     e44:	4d 93       	st	X+, r20
     e46:	8d 01       	movw	r16, r26
     e48:	01 96       	adiw	r24, 0x01	; 1
     e4a:	f8 94       	cli
     e4c:	2e bc       	out	0x2e, r2	; 46
     e4e:	6e b4       	in	r6, 0x2e	; 46
     e50:	78 94       	sei
     e52:	67 9c       	mul	r6, r7
     e54:	f0 01       	movw	r30, r0
     e56:	fe 5f       	subi	r31, 0xFE	; 254
     e58:	09 94       	ijmp
     e5a:	00 00       	nop
     e5c:	00 00       	nop
     e5e:	00 00       	nop

00000e60 <I_63__ST8_POST_c0_c3>:
     e60:	00 00       	nop
     e62:	d8 01       	movw	r26, r16
     e64:	6d 93       	st	X+, r22
     e66:	8d 01       	movw	r16, r26
     e68:	01 96       	adiw	r24, 0x01	; 1
     e6a:	f8 94       	cli
     e6c:	2e bc       	out	0x2e, r2	; 46
     e6e:	6e b4       	in	r6, 0x2e	; 46
     e70:	78 94       	sei
     e72:	67 9c       	mul	r6, r7
     e74:	f0 01       	movw	r30, r0
     e76:	fe 5f       	subi	r31, 0xFE	; 254
     e78:	09 94       	ijmp
     e7a:	00 00       	nop
     e7c:	00 00       	nop
     e7e:	00 00       	nop

00000e80 <I_64__ST8_POST_c1_c0>:
     e80:	00 00       	nop
     e82:	d9 01       	movw	r26, r18
     e84:	0d 93       	st	X+, r16
     e86:	9d 01       	movw	r18, r26
     e88:	01 96       	adiw	r24, 0x01	; 1
     e8a:	f8 94       	cli
     e8c:	2e bc       	out	0x2e, r2	; 46
     e8e:	6e b4       	in	r6, 0x2e	; 46
     e90:	78 94       	sei
     e92:	67 9c       	mul	r6, r7
     e94:	f0 01       	movw	r30, r0
     e96:	fe 5f       	subi	r31, 0xFE	; 254
     e98:	09 94       	ijmp
     e9a:	00 00       	nop
     e9c:	00 00       	nop
     e9e:	00 00       	nop

00000ea0 <I_65__ST8_POST_c1_c1>:
     ea0:	00 00       	nop
     ea2:	d9 01       	movw	r26, r18
     ea4:	2d 93       	st	X+, r18
     ea6:	9d 01       	movw	r18, r26
     ea8:	01 96       	adiw	r24, 0x01	; 1
     eaa:	f8 94       	cli
     eac:	2e bc       	out	0x2e, r2	; 46
     eae:	6e b4       	in	r6, 0x2e	; 46
     eb0:	78 94       	sei
     eb2:	67 9c       	mul	r6, r7
     eb4:	f0 01       	movw	r30, r0
     eb6:	fe 5f       	subi	r31, 0xFE	; 254
     eb8:	09 94       	ijmp
     eba:	00 00       	nop
     ebc:	00 00       	nop
     ebe:	00 00       	nop

00000ec0 <I_66__ST8_POST_c1_c2>:
     ec0:	00 00       	nop
     ec2:	d9 01       	movw	r26, r18
     ec4:	4d 93       	st	X+, r20
     ec6:	9d 01       	movw	r18, r26
     ec8:	01 96       	adiw	r24, 0x01	; 1
     eca:	f8 94       	cli
     ecc:	2e bc       	out	0x2e, r2	; 46
     ece:	6e b4       	in	r6, 0x2e	; 46
     ed0:	78 94       	sei
     ed2:	67 9c       	mul	r6, r7
     ed4:	f0 01       	movw	r30, r0
     ed6:	fe 5f       	subi	r31, 0xFE	; 254
     ed8:	09 94       	ijmp
     eda:	00 00       	nop
     edc:	00 00       	nop
     ede:	00 00       	nop

00000ee0 <I_67__ST8_POST_c1_c3>:
     ee0:	00 00       	nop
     ee2:	d9 01       	movw	r26, r18
     ee4:	6d 93       	st	X+, r22
     ee6:	9d 01       	movw	r18, r26
     ee8:	01 96       	adiw	r24, 0x01	; 1
     eea:	f8 94       	cli
     eec:	2e bc       	out	0x2e, r2	; 46
     eee:	6e b4       	in	r6, 0x2e	; 46
     ef0:	78 94       	sei
     ef2:	67 9c       	mul	r6, r7
     ef4:	f0 01       	movw	r30, r0
     ef6:	fe 5f       	subi	r31, 0xFE	; 254
     ef8:	09 94       	ijmp
     efa:	00 00       	nop
     efc:	00 00       	nop
     efe:	00 00       	nop

00000f00 <I_68__ST8_POST_c2_c0>:
     f00:	00 00       	nop
     f02:	da 01       	movw	r26, r20
     f04:	0d 93       	st	X+, r16
     f06:	ad 01       	movw	r20, r26
     f08:	01 96       	adiw	r24, 0x01	; 1
     f0a:	f8 94       	cli
     f0c:	2e bc       	out	0x2e, r2	; 46
     f0e:	6e b4       	in	r6, 0x2e	; 46
     f10:	78 94       	sei
     f12:	67 9c       	mul	r6, r7
     f14:	f0 01       	movw	r30, r0
     f16:	fe 5f       	subi	r31, 0xFE	; 254
     f18:	09 94       	ijmp
     f1a:	00 00       	nop
     f1c:	00 00       	nop
     f1e:	00 00       	nop

00000f20 <I_69__ST8_POST_c2_c1>:
     f20:	00 00       	nop
     f22:	da 01       	movw	r26, r20
     f24:	2d 93       	st	X+, r18
     f26:	ad 01       	movw	r20, r26
     f28:	01 96       	adiw	r24, 0x01	; 1
     f2a:	f8 94       	cli
     f2c:	2e bc       	out	0x2e, r2	; 46
     f2e:	6e b4       	in	r6, 0x2e	; 46
     f30:	78 94       	sei
     f32:	67 9c       	mul	r6, r7
     f34:	f0 01       	movw	r30, r0
     f36:	fe 5f       	subi	r31, 0xFE	; 254
     f38:	09 94       	ijmp
     f3a:	00 00       	nop
     f3c:	00 00       	nop
     f3e:	00 00       	nop

00000f40 <I_6A__ST8_POST_c2_c2>:
     f40:	00 00       	nop
     f42:	da 01       	movw	r26, r20
     f44:	4d 93       	st	X+, r20
     f46:	ad 01       	movw	r20, r26
     f48:	01 96       	adiw	r24, 0x01	; 1
     f4a:	f8 94       	cli
     f4c:	2e bc       	out	0x2e, r2	; 46
     f4e:	6e b4       	in	r6, 0x2e	; 46
     f50:	78 94       	sei
     f52:	67 9c       	mul	r6, r7
     f54:	f0 01       	movw	r30, r0
     f56:	fe 5f       	subi	r31, 0xFE	; 254
     f58:	09 94       	ijmp
     f5a:	00 00       	nop
     f5c:	00 00       	nop
     f5e:	00 00       	nop

00000f60 <I_6B__ST8_POST_c2_c3>:
     f60:	00 00       	nop
     f62:	da 01       	movw	r26, r20
     f64:	6d 93       	st	X+, r22
     f66:	ad 01       	movw	r20, r26
     f68:	01 96       	adiw	r24, 0x01	; 1
     f6a:	f8 94       	cli
     f6c:	2e bc       	out	0x2e, r2	; 46
     f6e:	6e b4       	in	r6, 0x2e	; 46
     f70:	78 94       	sei
     f72:	67 9c       	mul	r6, r7
     f74:	f0 01       	movw	r30, r0
     f76:	fe 5f       	subi	r31, 0xFE	; 254
     f78:	09 94       	ijmp
     f7a:	00 00       	nop
     f7c:	00 00       	nop
     f7e:	00 00       	nop

00000f80 <I_6C__ST8_POST_c3_c0>:
     f80:	00 00       	nop
     f82:	db 01       	movw	r26, r22
     f84:	0d 93       	st	X+, r16
     f86:	bd 01       	movw	r22, r26
     f88:	01 96       	adiw	r24, 0x01	; 1
     f8a:	f8 94       	cli
     f8c:	2e bc       	out	0x2e, r2	; 46
     f8e:	6e b4       	in	r6, 0x2e	; 46
     f90:	78 94       	sei
     f92:	67 9c       	mul	r6, r7
     f94:	f0 01       	movw	r30, r0
     f96:	fe 5f       	subi	r31, 0xFE	; 254
     f98:	09 94       	ijmp
     f9a:	00 00       	nop
     f9c:	00 00       	nop
     f9e:	00 00       	nop

00000fa0 <I_6D__ST8_POST_c3_c1>:
     fa0:	00 00       	nop
     fa2:	db 01       	movw	r26, r22
     fa4:	2d 93       	st	X+, r18
     fa6:	bd 01       	movw	r22, r26
     fa8:	01 96       	adiw	r24, 0x01	; 1
     faa:	f8 94       	cli
     fac:	2e bc       	out	0x2e, r2	; 46
     fae:	6e b4       	in	r6, 0x2e	; 46
     fb0:	78 94       	sei
     fb2:	67 9c       	mul	r6, r7
     fb4:	f0 01       	movw	r30, r0
     fb6:	fe 5f       	subi	r31, 0xFE	; 254
     fb8:	09 94       	ijmp
     fba:	00 00       	nop
     fbc:	00 00       	nop
     fbe:	00 00       	nop

00000fc0 <I_6E__ST8_POST_c3_c2>:
     fc0:	00 00       	nop
     fc2:	db 01       	movw	r26, r22
     fc4:	4d 93       	st	X+, r20
     fc6:	bd 01       	movw	r22, r26
     fc8:	01 96       	adiw	r24, 0x01	; 1
     fca:	f8 94       	cli
     fcc:	2e bc       	out	0x2e, r2	; 46
     fce:	6e b4       	in	r6, 0x2e	; 46
     fd0:	78 94       	sei
     fd2:	67 9c       	mul	r6, r7
     fd4:	f0 01       	movw	r30, r0
     fd6:	fe 5f       	subi	r31, 0xFE	; 254
     fd8:	09 94       	ijmp
     fda:	00 00       	nop
     fdc:	00 00       	nop
     fde:	00 00       	nop

00000fe0 <I_6F__ST8_POST_c3_c3>:
     fe0:	00 00       	nop
     fe2:	db 01       	movw	r26, r22
     fe4:	6d 93       	st	X+, r22
     fe6:	bd 01       	movw	r22, r26
     fe8:	01 96       	adiw	r24, 0x01	; 1
     fea:	f8 94       	cli
     fec:	2e bc       	out	0x2e, r2	; 46
     fee:	6e b4       	in	r6, 0x2e	; 46
     ff0:	78 94       	sei
     ff2:	67 9c       	mul	r6, r7
     ff4:	f0 01       	movw	r30, r0
     ff6:	fe 5f       	subi	r31, 0xFE	; 254
     ff8:	09 94       	ijmp
     ffa:	00 00       	nop
     ffc:	00 00       	nop
     ffe:	00 00       	nop

00001000 <I_70__PUSH16_r0>:
    1000:	00 00       	nop
    1002:	9a 92       	st	-Y, r9
    1004:	8a 92       	st	-Y, r8
    1006:	01 96       	adiw	r24, 0x01	; 1
    1008:	f8 94       	cli
    100a:	2e bc       	out	0x2e, r2	; 46
    100c:	6e b4       	in	r6, 0x2e	; 46
    100e:	78 94       	sei
    1010:	67 9c       	mul	r6, r7
    1012:	f0 01       	movw	r30, r0
    1014:	fe 5f       	subi	r31, 0xFE	; 254
    1016:	09 94       	ijmp
    1018:	00 00       	nop
    101a:	00 00       	nop
    101c:	00 00       	nop
    101e:	00 00       	nop

00001020 <I_71__PUSH16_r1>:
    1020:	00 00       	nop
    1022:	ba 92       	st	-Y, r11
    1024:	aa 92       	st	-Y, r10
    1026:	01 96       	adiw	r24, 0x01	; 1
    1028:	f8 94       	cli
    102a:	2e bc       	out	0x2e, r2	; 46
    102c:	6e b4       	in	r6, 0x2e	; 46
    102e:	78 94       	sei
    1030:	67 9c       	mul	r6, r7
    1032:	f0 01       	movw	r30, r0
    1034:	fe 5f       	subi	r31, 0xFE	; 254
    1036:	09 94       	ijmp
    1038:	00 00       	nop
    103a:	00 00       	nop
    103c:	00 00       	nop
    103e:	00 00       	nop

00001040 <I_72__PUSH16_r2>:
    1040:	00 00       	nop
    1042:	da 92       	st	-Y, r13
    1044:	ca 92       	st	-Y, r12
    1046:	01 96       	adiw	r24, 0x01	; 1
    1048:	f8 94       	cli
    104a:	2e bc       	out	0x2e, r2	; 46
    104c:	6e b4       	in	r6, 0x2e	; 46
    104e:	78 94       	sei
    1050:	67 9c       	mul	r6, r7
    1052:	f0 01       	movw	r30, r0
    1054:	fe 5f       	subi	r31, 0xFE	; 254
    1056:	09 94       	ijmp
    1058:	00 00       	nop
    105a:	00 00       	nop
    105c:	00 00       	nop
    105e:	00 00       	nop

00001060 <I_73__PUSH16_r3>:
    1060:	00 00       	nop
    1062:	fa 92       	st	-Y, r15
    1064:	ea 92       	st	-Y, r14
    1066:	01 96       	adiw	r24, 0x01	; 1
    1068:	f8 94       	cli
    106a:	2e bc       	out	0x2e, r2	; 46
    106c:	6e b4       	in	r6, 0x2e	; 46
    106e:	78 94       	sei
    1070:	67 9c       	mul	r6, r7
    1072:	f0 01       	movw	r30, r0
    1074:	fe 5f       	subi	r31, 0xFE	; 254
    1076:	09 94       	ijmp
    1078:	00 00       	nop
    107a:	00 00       	nop
    107c:	00 00       	nop
    107e:	00 00       	nop

00001080 <I_74__PUSH16_r4>:
    1080:	00 00       	nop
    1082:	1a 93       	st	-Y, r17
    1084:	0a 93       	st	-Y, r16
    1086:	01 96       	adiw	r24, 0x01	; 1
    1088:	f8 94       	cli
    108a:	2e bc       	out	0x2e, r2	; 46
    108c:	6e b4       	in	r6, 0x2e	; 46
    108e:	78 94       	sei
    1090:	67 9c       	mul	r6, r7
    1092:	f0 01       	movw	r30, r0
    1094:	fe 5f       	subi	r31, 0xFE	; 254
    1096:	09 94       	ijmp
    1098:	00 00       	nop
    109a:	00 00       	nop
    109c:	00 00       	nop
    109e:	00 00       	nop

000010a0 <I_75__PUSH16_r5>:
    10a0:	00 00       	nop
    10a2:	3a 93       	st	-Y, r19
    10a4:	2a 93       	st	-Y, r18
    10a6:	01 96       	adiw	r24, 0x01	; 1
    10a8:	f8 94       	cli
    10aa:	2e bc       	out	0x2e, r2	; 46
    10ac:	6e b4       	in	r6, 0x2e	; 46
    10ae:	78 94       	sei
    10b0:	67 9c       	mul	r6, r7
    10b2:	f0 01       	movw	r30, r0
    10b4:	fe 5f       	subi	r31, 0xFE	; 254
    10b6:	09 94       	ijmp
    10b8:	00 00       	nop
    10ba:	00 00       	nop
    10bc:	00 00       	nop
    10be:	00 00       	nop

000010c0 <I_76__PUSH16_r6>:
    10c0:	00 00       	nop
    10c2:	5a 93       	st	-Y, r21
    10c4:	4a 93       	st	-Y, r20
    10c6:	01 96       	adiw	r24, 0x01	; 1
    10c8:	f8 94       	cli
    10ca:	2e bc       	out	0x2e, r2	; 46
    10cc:	6e b4       	in	r6, 0x2e	; 46
    10ce:	78 94       	sei
    10d0:	67 9c       	mul	r6, r7
    10d2:	f0 01       	movw	r30, r0
    10d4:	fe 5f       	subi	r31, 0xFE	; 254
    10d6:	09 94       	ijmp
    10d8:	00 00       	nop
    10da:	00 00       	nop
    10dc:	00 00       	nop
    10de:	00 00       	nop

000010e0 <I_77__PUSH16_r7>:
    10e0:	00 00       	nop
    10e2:	7a 93       	st	-Y, r23
    10e4:	6a 93       	st	-Y, r22
    10e6:	01 96       	adiw	r24, 0x01	; 1
    10e8:	f8 94       	cli
    10ea:	2e bc       	out	0x2e, r2	; 46
    10ec:	6e b4       	in	r6, 0x2e	; 46
    10ee:	78 94       	sei
    10f0:	67 9c       	mul	r6, r7
    10f2:	f0 01       	movw	r30, r0
    10f4:	fe 5f       	subi	r31, 0xFE	; 254
    10f6:	09 94       	ijmp
    10f8:	00 00       	nop
    10fa:	00 00       	nop
    10fc:	00 00       	nop
    10fe:	00 00       	nop

00001100 <I_78__POP16_r0>:
    1100:	00 00       	nop
    1102:	89 90       	ld	r8, Y+
    1104:	99 90       	ld	r9, Y+
    1106:	01 96       	adiw	r24, 0x01	; 1
    1108:	f8 94       	cli
    110a:	2e bc       	out	0x2e, r2	; 46
    110c:	6e b4       	in	r6, 0x2e	; 46
    110e:	78 94       	sei
    1110:	67 9c       	mul	r6, r7
    1112:	f0 01       	movw	r30, r0
    1114:	fe 5f       	subi	r31, 0xFE	; 254
    1116:	09 94       	ijmp
    1118:	00 00       	nop
    111a:	00 00       	nop
    111c:	00 00       	nop
    111e:	00 00       	nop

00001120 <I_79__POP16_r1>:
    1120:	00 00       	nop
    1122:	a9 90       	ld	r10, Y+
    1124:	b9 90       	ld	r11, Y+
    1126:	01 96       	adiw	r24, 0x01	; 1
    1128:	f8 94       	cli
    112a:	2e bc       	out	0x2e, r2	; 46
    112c:	6e b4       	in	r6, 0x2e	; 46
    112e:	78 94       	sei
    1130:	67 9c       	mul	r6, r7
    1132:	f0 01       	movw	r30, r0
    1134:	fe 5f       	subi	r31, 0xFE	; 254
    1136:	09 94       	ijmp
    1138:	00 00       	nop
    113a:	00 00       	nop
    113c:	00 00       	nop
    113e:	00 00       	nop

00001140 <I_7A__POP16_r2>:
    1140:	00 00       	nop
    1142:	c9 90       	ld	r12, Y+
    1144:	d9 90       	ld	r13, Y+
    1146:	01 96       	adiw	r24, 0x01	; 1
    1148:	f8 94       	cli
    114a:	2e bc       	out	0x2e, r2	; 46
    114c:	6e b4       	in	r6, 0x2e	; 46
    114e:	78 94       	sei
    1150:	67 9c       	mul	r6, r7
    1152:	f0 01       	movw	r30, r0
    1154:	fe 5f       	subi	r31, 0xFE	; 254
    1156:	09 94       	ijmp
    1158:	00 00       	nop
    115a:	00 00       	nop
    115c:	00 00       	nop
    115e:	00 00       	nop

00001160 <I_7B__POP16_r3>:
    1160:	00 00       	nop
    1162:	e9 90       	ld	r14, Y+
    1164:	f9 90       	ld	r15, Y+
    1166:	01 96       	adiw	r24, 0x01	; 1
    1168:	f8 94       	cli
    116a:	2e bc       	out	0x2e, r2	; 46
    116c:	6e b4       	in	r6, 0x2e	; 46
    116e:	78 94       	sei
    1170:	67 9c       	mul	r6, r7
    1172:	f0 01       	movw	r30, r0
    1174:	fe 5f       	subi	r31, 0xFE	; 254
    1176:	09 94       	ijmp
    1178:	00 00       	nop
    117a:	00 00       	nop
    117c:	00 00       	nop
    117e:	00 00       	nop

00001180 <I_7C__POP16_r4>:
    1180:	00 00       	nop
    1182:	09 91       	ld	r16, Y+
    1184:	19 91       	ld	r17, Y+
    1186:	01 96       	adiw	r24, 0x01	; 1
    1188:	f8 94       	cli
    118a:	2e bc       	out	0x2e, r2	; 46
    118c:	6e b4       	in	r6, 0x2e	; 46
    118e:	78 94       	sei
    1190:	67 9c       	mul	r6, r7
    1192:	f0 01       	movw	r30, r0
    1194:	fe 5f       	subi	r31, 0xFE	; 254
    1196:	09 94       	ijmp
    1198:	00 00       	nop
    119a:	00 00       	nop
    119c:	00 00       	nop
    119e:	00 00       	nop

000011a0 <I_7D__POP16_r5>:
    11a0:	00 00       	nop
    11a2:	29 91       	ld	r18, Y+
    11a4:	39 91       	ld	r19, Y+
    11a6:	01 96       	adiw	r24, 0x01	; 1
    11a8:	f8 94       	cli
    11aa:	2e bc       	out	0x2e, r2	; 46
    11ac:	6e b4       	in	r6, 0x2e	; 46
    11ae:	78 94       	sei
    11b0:	67 9c       	mul	r6, r7
    11b2:	f0 01       	movw	r30, r0
    11b4:	fe 5f       	subi	r31, 0xFE	; 254
    11b6:	09 94       	ijmp
    11b8:	00 00       	nop
    11ba:	00 00       	nop
    11bc:	00 00       	nop
    11be:	00 00       	nop

000011c0 <I_7E__POP16_r6>:
    11c0:	00 00       	nop
    11c2:	49 91       	ld	r20, Y+
    11c4:	59 91       	ld	r21, Y+
    11c6:	01 96       	adiw	r24, 0x01	; 1
    11c8:	f8 94       	cli
    11ca:	2e bc       	out	0x2e, r2	; 46
    11cc:	6e b4       	in	r6, 0x2e	; 46
    11ce:	78 94       	sei
    11d0:	67 9c       	mul	r6, r7
    11d2:	f0 01       	movw	r30, r0
    11d4:	fe 5f       	subi	r31, 0xFE	; 254
    11d6:	09 94       	ijmp
    11d8:	00 00       	nop
    11da:	00 00       	nop
    11dc:	00 00       	nop
    11de:	00 00       	nop

000011e0 <I_7F__POP16_r7>:
    11e0:	00 00       	nop
    11e2:	69 91       	ld	r22, Y+
    11e4:	79 91       	ld	r23, Y+
    11e6:	01 96       	adiw	r24, 0x01	; 1
    11e8:	f8 94       	cli
    11ea:	2e bc       	out	0x2e, r2	; 46
    11ec:	6e b4       	in	r6, 0x2e	; 46
    11ee:	78 94       	sei
    11f0:	67 9c       	mul	r6, r7
    11f2:	f0 01       	movw	r30, r0
    11f4:	fe 5f       	subi	r31, 0xFE	; 254
    11f6:	09 94       	ijmp
    11f8:	00 00       	nop
    11fa:	00 00       	nop
    11fc:	00 00       	nop
    11fe:	00 00       	nop

00001200 <I_80__ADD_c0_c0>:
    1200:	00 c0       	rjmp	.+0      	; 0x1202 <I_80__ADD_c0_c0+0x2>
    1202:	00 0f       	add	r16, r16
    1204:	11 1f       	adc	r17, r17
    1206:	3f b6       	in	r3, 0x3f	; 63
    1208:	01 96       	adiw	r24, 0x01	; 1
    120a:	f8 94       	cli
    120c:	2e bc       	out	0x2e, r2	; 46
    120e:	6e b4       	in	r6, 0x2e	; 46
    1210:	78 94       	sei
    1212:	67 9c       	mul	r6, r7
    1214:	f0 01       	movw	r30, r0
    1216:	fe 5f       	subi	r31, 0xFE	; 254
    1218:	09 94       	ijmp
    121a:	00 00       	nop
    121c:	00 00       	nop
    121e:	00 00       	nop

00001220 <I_81__ADD_c0_c1>:
    1220:	00 c0       	rjmp	.+0      	; 0x1222 <I_81__ADD_c0_c1+0x2>
    1222:	02 0f       	add	r16, r18
    1224:	13 1f       	adc	r17, r19
    1226:	3f b6       	in	r3, 0x3f	; 63
    1228:	01 96       	adiw	r24, 0x01	; 1
    122a:	f8 94       	cli
    122c:	2e bc       	out	0x2e, r2	; 46
    122e:	6e b4       	in	r6, 0x2e	; 46
    1230:	78 94       	sei
    1232:	67 9c       	mul	r6, r7
    1234:	f0 01       	movw	r30, r0
    1236:	fe 5f       	subi	r31, 0xFE	; 254
    1238:	09 94       	ijmp
    123a:	00 00       	nop
    123c:	00 00       	nop
    123e:	00 00       	nop

00001240 <I_82__ADD_c0_c2>:
    1240:	00 c0       	rjmp	.+0      	; 0x1242 <I_82__ADD_c0_c2+0x2>
    1242:	04 0f       	add	r16, r20
    1244:	15 1f       	adc	r17, r21
    1246:	3f b6       	in	r3, 0x3f	; 63
    1248:	01 96       	adiw	r24, 0x01	; 1
    124a:	f8 94       	cli
    124c:	2e bc       	out	0x2e, r2	; 46
    124e:	6e b4       	in	r6, 0x2e	; 46
    1250:	78 94       	sei
    1252:	67 9c       	mul	r6, r7
    1254:	f0 01       	movw	r30, r0
    1256:	fe 5f       	subi	r31, 0xFE	; 254
    1258:	09 94       	ijmp
    125a:	00 00       	nop
    125c:	00 00       	nop
    125e:	00 00       	nop

00001260 <I_83__ADD_c0_c3>:
    1260:	00 c0       	rjmp	.+0      	; 0x1262 <I_83__ADD_c0_c3+0x2>
    1262:	06 0f       	add	r16, r22
    1264:	17 1f       	adc	r17, r23
    1266:	3f b6       	in	r3, 0x3f	; 63
    1268:	01 96       	adiw	r24, 0x01	; 1
    126a:	f8 94       	cli
    126c:	2e bc       	out	0x2e, r2	; 46
    126e:	6e b4       	in	r6, 0x2e	; 46
    1270:	78 94       	sei
    1272:	67 9c       	mul	r6, r7
    1274:	f0 01       	movw	r30, r0
    1276:	fe 5f       	subi	r31, 0xFE	; 254
    1278:	09 94       	ijmp
    127a:	00 00       	nop
    127c:	00 00       	nop
    127e:	00 00       	nop

00001280 <I_84__ADD_c1_c0>:
    1280:	00 c0       	rjmp	.+0      	; 0x1282 <I_84__ADD_c1_c0+0x2>
    1282:	20 0f       	add	r18, r16
    1284:	31 1f       	adc	r19, r17
    1286:	3f b6       	in	r3, 0x3f	; 63
    1288:	01 96       	adiw	r24, 0x01	; 1
    128a:	f8 94       	cli
    128c:	2e bc       	out	0x2e, r2	; 46
    128e:	6e b4       	in	r6, 0x2e	; 46
    1290:	78 94       	sei
    1292:	67 9c       	mul	r6, r7
    1294:	f0 01       	movw	r30, r0
    1296:	fe 5f       	subi	r31, 0xFE	; 254
    1298:	09 94       	ijmp
    129a:	00 00       	nop
    129c:	00 00       	nop
    129e:	00 00       	nop

000012a0 <I_85__ADD_c1_c1>:
    12a0:	00 c0       	rjmp	.+0      	; 0x12a2 <I_85__ADD_c1_c1+0x2>
    12a2:	22 0f       	add	r18, r18
    12a4:	33 1f       	adc	r19, r19
    12a6:	3f b6       	in	r3, 0x3f	; 63
    12a8:	01 96       	adiw	r24, 0x01	; 1
    12aa:	f8 94       	cli
    12ac:	2e bc       	out	0x2e, r2	; 46
    12ae:	6e b4       	in	r6, 0x2e	; 46
    12b0:	78 94       	sei
    12b2:	67 9c       	mul	r6, r7
    12b4:	f0 01       	movw	r30, r0
    12b6:	fe 5f       	subi	r31, 0xFE	; 254
    12b8:	09 94       	ijmp
    12ba:	00 00       	nop
    12bc:	00 00       	nop
    12be:	00 00       	nop

000012c0 <I_86__ADD_c1_c2>:
    12c0:	00 c0       	rjmp	.+0      	; 0x12c2 <I_86__ADD_c1_c2+0x2>
    12c2:	24 0f       	add	r18, r20
    12c4:	35 1f       	adc	r19, r21
    12c6:	3f b6       	in	r3, 0x3f	; 63
    12c8:	01 96       	adiw	r24, 0x01	; 1
    12ca:	f8 94       	cli
    12cc:	2e bc       	out	0x2e, r2	; 46
    12ce:	6e b4       	in	r6, 0x2e	; 46
    12d0:	78 94       	sei
    12d2:	67 9c       	mul	r6, r7
    12d4:	f0 01       	movw	r30, r0
    12d6:	fe 5f       	subi	r31, 0xFE	; 254
    12d8:	09 94       	ijmp
    12da:	00 00       	nop
    12dc:	00 00       	nop
    12de:	00 00       	nop

000012e0 <I_87__ADD_c1_c3>:
    12e0:	00 c0       	rjmp	.+0      	; 0x12e2 <I_87__ADD_c1_c3+0x2>
    12e2:	26 0f       	add	r18, r22
    12e4:	37 1f       	adc	r19, r23
    12e6:	3f b6       	in	r3, 0x3f	; 63
    12e8:	01 96       	adiw	r24, 0x01	; 1
    12ea:	f8 94       	cli
    12ec:	2e bc       	out	0x2e, r2	; 46
    12ee:	6e b4       	in	r6, 0x2e	; 46
    12f0:	78 94       	sei
    12f2:	67 9c       	mul	r6, r7
    12f4:	f0 01       	movw	r30, r0
    12f6:	fe 5f       	subi	r31, 0xFE	; 254
    12f8:	09 94       	ijmp
    12fa:	00 00       	nop
    12fc:	00 00       	nop
    12fe:	00 00       	nop

00001300 <I_88__ADD_c2_c0>:
    1300:	00 c0       	rjmp	.+0      	; 0x1302 <I_88__ADD_c2_c0+0x2>
    1302:	40 0f       	add	r20, r16
    1304:	51 1f       	adc	r21, r17
    1306:	3f b6       	in	r3, 0x3f	; 63
    1308:	01 96       	adiw	r24, 0x01	; 1
    130a:	f8 94       	cli
    130c:	2e bc       	out	0x2e, r2	; 46
    130e:	6e b4       	in	r6, 0x2e	; 46
    1310:	78 94       	sei
    1312:	67 9c       	mul	r6, r7
    1314:	f0 01       	movw	r30, r0
    1316:	fe 5f       	subi	r31, 0xFE	; 254
    1318:	09 94       	ijmp
    131a:	00 00       	nop
    131c:	00 00       	nop
    131e:	00 00       	nop

00001320 <I_89__ADD_c2_c1>:
    1320:	00 c0       	rjmp	.+0      	; 0x1322 <I_89__ADD_c2_c1+0x2>
    1322:	42 0f       	add	r20, r18
    1324:	53 1f       	adc	r21, r19
    1326:	3f b6       	in	r3, 0x3f	; 63
    1328:	01 96       	adiw	r24, 0x01	; 1
    132a:	f8 94       	cli
    132c:	2e bc       	out	0x2e, r2	; 46
    132e:	6e b4       	in	r6, 0x2e	; 46
    1330:	78 94       	sei
    1332:	67 9c       	mul	r6, r7
    1334:	f0 01       	movw	r30, r0
    1336:	fe 5f       	subi	r31, 0xFE	; 254
    1338:	09 94       	ijmp
    133a:	00 00       	nop
    133c:	00 00       	nop
    133e:	00 00       	nop

00001340 <I_8A__ADD_c2_c2>:
    1340:	00 c0       	rjmp	.+0      	; 0x1342 <I_8A__ADD_c2_c2+0x2>
    1342:	44 0f       	add	r20, r20
    1344:	55 1f       	adc	r21, r21
    1346:	3f b6       	in	r3, 0x3f	; 63
    1348:	01 96       	adiw	r24, 0x01	; 1
    134a:	f8 94       	cli
    134c:	2e bc       	out	0x2e, r2	; 46
    134e:	6e b4       	in	r6, 0x2e	; 46
    1350:	78 94       	sei
    1352:	67 9c       	mul	r6, r7
    1354:	f0 01       	movw	r30, r0
    1356:	fe 5f       	subi	r31, 0xFE	; 254
    1358:	09 94       	ijmp
    135a:	00 00       	nop
    135c:	00 00       	nop
    135e:	00 00       	nop

00001360 <I_8B__ADD_c2_c3>:
    1360:	00 c0       	rjmp	.+0      	; 0x1362 <I_8B__ADD_c2_c3+0x2>
    1362:	46 0f       	add	r20, r22
    1364:	57 1f       	adc	r21, r23
    1366:	3f b6       	in	r3, 0x3f	; 63
    1368:	01 96       	adiw	r24, 0x01	; 1
    136a:	f8 94       	cli
    136c:	2e bc       	out	0x2e, r2	; 46
    136e:	6e b4       	in	r6, 0x2e	; 46
    1370:	78 94       	sei
    1372:	67 9c       	mul	r6, r7
    1374:	f0 01       	movw	r30, r0
    1376:	fe 5f       	subi	r31, 0xFE	; 254
    1378:	09 94       	ijmp
    137a:	00 00       	nop
    137c:	00 00       	nop
    137e:	00 00       	nop

00001380 <I_8C__ADD_c3_c0>:
    1380:	00 c0       	rjmp	.+0      	; 0x1382 <I_8C__ADD_c3_c0+0x2>
    1382:	60 0f       	add	r22, r16
    1384:	71 1f       	adc	r23, r17
    1386:	3f b6       	in	r3, 0x3f	; 63
    1388:	01 96       	adiw	r24, 0x01	; 1
    138a:	f8 94       	cli
    138c:	2e bc       	out	0x2e, r2	; 46
    138e:	6e b4       	in	r6, 0x2e	; 46
    1390:	78 94       	sei
    1392:	67 9c       	mul	r6, r7
    1394:	f0 01       	movw	r30, r0
    1396:	fe 5f       	subi	r31, 0xFE	; 254
    1398:	09 94       	ijmp
    139a:	00 00       	nop
    139c:	00 00       	nop
    139e:	00 00       	nop

000013a0 <I_8D__ADD_c3_c1>:
    13a0:	00 c0       	rjmp	.+0      	; 0x13a2 <I_8D__ADD_c3_c1+0x2>
    13a2:	62 0f       	add	r22, r18
    13a4:	73 1f       	adc	r23, r19
    13a6:	3f b6       	in	r3, 0x3f	; 63
    13a8:	01 96       	adiw	r24, 0x01	; 1
    13aa:	f8 94       	cli
    13ac:	2e bc       	out	0x2e, r2	; 46
    13ae:	6e b4       	in	r6, 0x2e	; 46
    13b0:	78 94       	sei
    13b2:	67 9c       	mul	r6, r7
    13b4:	f0 01       	movw	r30, r0
    13b6:	fe 5f       	subi	r31, 0xFE	; 254
    13b8:	09 94       	ijmp
    13ba:	00 00       	nop
    13bc:	00 00       	nop
    13be:	00 00       	nop

000013c0 <I_8E__ADD_c3_c2>:
    13c0:	00 c0       	rjmp	.+0      	; 0x13c2 <I_8E__ADD_c3_c2+0x2>
    13c2:	64 0f       	add	r22, r20
    13c4:	75 1f       	adc	r23, r21
    13c6:	3f b6       	in	r3, 0x3f	; 63
    13c8:	01 96       	adiw	r24, 0x01	; 1
    13ca:	f8 94       	cli
    13cc:	2e bc       	out	0x2e, r2	; 46
    13ce:	6e b4       	in	r6, 0x2e	; 46
    13d0:	78 94       	sei
    13d2:	67 9c       	mul	r6, r7
    13d4:	f0 01       	movw	r30, r0
    13d6:	fe 5f       	subi	r31, 0xFE	; 254
    13d8:	09 94       	ijmp
    13da:	00 00       	nop
    13dc:	00 00       	nop
    13de:	00 00       	nop

000013e0 <I_8F__ADD_c3_c3>:
    13e0:	00 c0       	rjmp	.+0      	; 0x13e2 <I_8F__ADD_c3_c3+0x2>
    13e2:	66 0f       	add	r22, r22
    13e4:	77 1f       	adc	r23, r23
    13e6:	3f b6       	in	r3, 0x3f	; 63
    13e8:	01 96       	adiw	r24, 0x01	; 1
    13ea:	f8 94       	cli
    13ec:	2e bc       	out	0x2e, r2	; 46
    13ee:	6e b4       	in	r6, 0x2e	; 46
    13f0:	78 94       	sei
    13f2:	67 9c       	mul	r6, r7
    13f4:	f0 01       	movw	r30, r0
    13f6:	fe 5f       	subi	r31, 0xFE	; 254
    13f8:	09 94       	ijmp
    13fa:	00 00       	nop
    13fc:	00 00       	nop
    13fe:	00 00       	nop

00001400 <I_90__SUB_c0_c0>:
    1400:	00 c0       	rjmp	.+0      	; 0x1402 <I_90__SUB_c0_c0+0x2>
    1402:	00 1b       	sub	r16, r16
    1404:	11 0b       	sbc	r17, r17
    1406:	3f b6       	in	r3, 0x3f	; 63
    1408:	01 96       	adiw	r24, 0x01	; 1
    140a:	f8 94       	cli
    140c:	2e bc       	out	0x2e, r2	; 46
    140e:	6e b4       	in	r6, 0x2e	; 46
    1410:	78 94       	sei
    1412:	67 9c       	mul	r6, r7
    1414:	f0 01       	movw	r30, r0
    1416:	fe 5f       	subi	r31, 0xFE	; 254
    1418:	09 94       	ijmp
    141a:	00 00       	nop
    141c:	00 00       	nop
    141e:	00 00       	nop

00001420 <I_91__SUB_c0_c1>:
    1420:	00 c0       	rjmp	.+0      	; 0x1422 <I_91__SUB_c0_c1+0x2>
    1422:	02 1b       	sub	r16, r18
    1424:	13 0b       	sbc	r17, r19
    1426:	3f b6       	in	r3, 0x3f	; 63
    1428:	01 96       	adiw	r24, 0x01	; 1
    142a:	f8 94       	cli
    142c:	2e bc       	out	0x2e, r2	; 46
    142e:	6e b4       	in	r6, 0x2e	; 46
    1430:	78 94       	sei
    1432:	67 9c       	mul	r6, r7
    1434:	f0 01       	movw	r30, r0
    1436:	fe 5f       	subi	r31, 0xFE	; 254
    1438:	09 94       	ijmp
    143a:	00 00       	nop
    143c:	00 00       	nop
    143e:	00 00       	nop

00001440 <I_92__SUB_c0_c2>:
    1440:	00 c0       	rjmp	.+0      	; 0x1442 <I_92__SUB_c0_c2+0x2>
    1442:	04 1b       	sub	r16, r20
    1444:	15 0b       	sbc	r17, r21
    1446:	3f b6       	in	r3, 0x3f	; 63
    1448:	01 96       	adiw	r24, 0x01	; 1
    144a:	f8 94       	cli
    144c:	2e bc       	out	0x2e, r2	; 46
    144e:	6e b4       	in	r6, 0x2e	; 46
    1450:	78 94       	sei
    1452:	67 9c       	mul	r6, r7
    1454:	f0 01       	movw	r30, r0
    1456:	fe 5f       	subi	r31, 0xFE	; 254
    1458:	09 94       	ijmp
    145a:	00 00       	nop
    145c:	00 00       	nop
    145e:	00 00       	nop

00001460 <I_93__SUB_c0_c3>:
    1460:	00 c0       	rjmp	.+0      	; 0x1462 <I_93__SUB_c0_c3+0x2>
    1462:	06 1b       	sub	r16, r22
    1464:	17 0b       	sbc	r17, r23
    1466:	3f b6       	in	r3, 0x3f	; 63
    1468:	01 96       	adiw	r24, 0x01	; 1
    146a:	f8 94       	cli
    146c:	2e bc       	out	0x2e, r2	; 46
    146e:	6e b4       	in	r6, 0x2e	; 46
    1470:	78 94       	sei
    1472:	67 9c       	mul	r6, r7
    1474:	f0 01       	movw	r30, r0
    1476:	fe 5f       	subi	r31, 0xFE	; 254
    1478:	09 94       	ijmp
    147a:	00 00       	nop
    147c:	00 00       	nop
    147e:	00 00       	nop

00001480 <I_94__SUB_c1_c0>:
    1480:	00 c0       	rjmp	.+0      	; 0x1482 <I_94__SUB_c1_c0+0x2>
    1482:	20 1b       	sub	r18, r16
    1484:	31 0b       	sbc	r19, r17
    1486:	3f b6       	in	r3, 0x3f	; 63
    1488:	01 96       	adiw	r24, 0x01	; 1
    148a:	f8 94       	cli
    148c:	2e bc       	out	0x2e, r2	; 46
    148e:	6e b4       	in	r6, 0x2e	; 46
    1490:	78 94       	sei
    1492:	67 9c       	mul	r6, r7
    1494:	f0 01       	movw	r30, r0
    1496:	fe 5f       	subi	r31, 0xFE	; 254
    1498:	09 94       	ijmp
    149a:	00 00       	nop
    149c:	00 00       	nop
    149e:	00 00       	nop

000014a0 <I_95__SUB_c1_c1>:
    14a0:	00 c0       	rjmp	.+0      	; 0x14a2 <I_95__SUB_c1_c1+0x2>
    14a2:	22 1b       	sub	r18, r18
    14a4:	33 0b       	sbc	r19, r19
    14a6:	3f b6       	in	r3, 0x3f	; 63
    14a8:	01 96       	adiw	r24, 0x01	; 1
    14aa:	f8 94       	cli
    14ac:	2e bc       	out	0x2e, r2	; 46
    14ae:	6e b4       	in	r6, 0x2e	; 46
    14b0:	78 94       	sei
    14b2:	67 9c       	mul	r6, r7
    14b4:	f0 01       	movw	r30, r0
    14b6:	fe 5f       	subi	r31, 0xFE	; 254
    14b8:	09 94       	ijmp
    14ba:	00 00       	nop
    14bc:	00 00       	nop
    14be:	00 00       	nop

000014c0 <I_96__SUB_c1_c2>:
    14c0:	00 c0       	rjmp	.+0      	; 0x14c2 <I_96__SUB_c1_c2+0x2>
    14c2:	24 1b       	sub	r18, r20
    14c4:	35 0b       	sbc	r19, r21
    14c6:	3f b6       	in	r3, 0x3f	; 63
    14c8:	01 96       	adiw	r24, 0x01	; 1
    14ca:	f8 94       	cli
    14cc:	2e bc       	out	0x2e, r2	; 46
    14ce:	6e b4       	in	r6, 0x2e	; 46
    14d0:	78 94       	sei
    14d2:	67 9c       	mul	r6, r7
    14d4:	f0 01       	movw	r30, r0
    14d6:	fe 5f       	subi	r31, 0xFE	; 254
    14d8:	09 94       	ijmp
    14da:	00 00       	nop
    14dc:	00 00       	nop
    14de:	00 00       	nop

000014e0 <I_97__SUB_c1_c3>:
    14e0:	00 c0       	rjmp	.+0      	; 0x14e2 <I_97__SUB_c1_c3+0x2>
    14e2:	26 1b       	sub	r18, r22
    14e4:	37 0b       	sbc	r19, r23
    14e6:	3f b6       	in	r3, 0x3f	; 63
    14e8:	01 96       	adiw	r24, 0x01	; 1
    14ea:	f8 94       	cli
    14ec:	2e bc       	out	0x2e, r2	; 46
    14ee:	6e b4       	in	r6, 0x2e	; 46
    14f0:	78 94       	sei
    14f2:	67 9c       	mul	r6, r7
    14f4:	f0 01       	movw	r30, r0
    14f6:	fe 5f       	subi	r31, 0xFE	; 254
    14f8:	09 94       	ijmp
    14fa:	00 00       	nop
    14fc:	00 00       	nop
    14fe:	00 00       	nop

00001500 <I_98__SUB_c2_c0>:
    1500:	00 c0       	rjmp	.+0      	; 0x1502 <I_98__SUB_c2_c0+0x2>
    1502:	40 1b       	sub	r20, r16
    1504:	51 0b       	sbc	r21, r17
    1506:	3f b6       	in	r3, 0x3f	; 63
    1508:	01 96       	adiw	r24, 0x01	; 1
    150a:	f8 94       	cli
    150c:	2e bc       	out	0x2e, r2	; 46
    150e:	6e b4       	in	r6, 0x2e	; 46
    1510:	78 94       	sei
    1512:	67 9c       	mul	r6, r7
    1514:	f0 01       	movw	r30, r0
    1516:	fe 5f       	subi	r31, 0xFE	; 254
    1518:	09 94       	ijmp
    151a:	00 00       	nop
    151c:	00 00       	nop
    151e:	00 00       	nop

00001520 <I_99__SUB_c2_c1>:
    1520:	00 c0       	rjmp	.+0      	; 0x1522 <I_99__SUB_c2_c1+0x2>
    1522:	42 1b       	sub	r20, r18
    1524:	53 0b       	sbc	r21, r19
    1526:	3f b6       	in	r3, 0x3f	; 63
    1528:	01 96       	adiw	r24, 0x01	; 1
    152a:	f8 94       	cli
    152c:	2e bc       	out	0x2e, r2	; 46
    152e:	6e b4       	in	r6, 0x2e	; 46
    1530:	78 94       	sei
    1532:	67 9c       	mul	r6, r7
    1534:	f0 01       	movw	r30, r0
    1536:	fe 5f       	subi	r31, 0xFE	; 254
    1538:	09 94       	ijmp
    153a:	00 00       	nop
    153c:	00 00       	nop
    153e:	00 00       	nop

00001540 <I_9A__SUB_c2_c2>:
    1540:	00 c0       	rjmp	.+0      	; 0x1542 <I_9A__SUB_c2_c2+0x2>
    1542:	44 1b       	sub	r20, r20
    1544:	55 0b       	sbc	r21, r21
    1546:	3f b6       	in	r3, 0x3f	; 63
    1548:	01 96       	adiw	r24, 0x01	; 1
    154a:	f8 94       	cli
    154c:	2e bc       	out	0x2e, r2	; 46
    154e:	6e b4       	in	r6, 0x2e	; 46
    1550:	78 94       	sei
    1552:	67 9c       	mul	r6, r7
    1554:	f0 01       	movw	r30, r0
    1556:	fe 5f       	subi	r31, 0xFE	; 254
    1558:	09 94       	ijmp
    155a:	00 00       	nop
    155c:	00 00       	nop
    155e:	00 00       	nop

00001560 <I_9B__SUB_c2_c3>:
    1560:	00 c0       	rjmp	.+0      	; 0x1562 <I_9B__SUB_c2_c3+0x2>
    1562:	46 1b       	sub	r20, r22
    1564:	57 0b       	sbc	r21, r23
    1566:	3f b6       	in	r3, 0x3f	; 63
    1568:	01 96       	adiw	r24, 0x01	; 1
    156a:	f8 94       	cli
    156c:	2e bc       	out	0x2e, r2	; 46
    156e:	6e b4       	in	r6, 0x2e	; 46
    1570:	78 94       	sei
    1572:	67 9c       	mul	r6, r7
    1574:	f0 01       	movw	r30, r0
    1576:	fe 5f       	subi	r31, 0xFE	; 254
    1578:	09 94       	ijmp
    157a:	00 00       	nop
    157c:	00 00       	nop
    157e:	00 00       	nop

00001580 <I_9C__SUB_c3_c0>:
    1580:	00 c0       	rjmp	.+0      	; 0x1582 <I_9C__SUB_c3_c0+0x2>
    1582:	60 1b       	sub	r22, r16
    1584:	71 0b       	sbc	r23, r17
    1586:	3f b6       	in	r3, 0x3f	; 63
    1588:	01 96       	adiw	r24, 0x01	; 1
    158a:	f8 94       	cli
    158c:	2e bc       	out	0x2e, r2	; 46
    158e:	6e b4       	in	r6, 0x2e	; 46
    1590:	78 94       	sei
    1592:	67 9c       	mul	r6, r7
    1594:	f0 01       	movw	r30, r0
    1596:	fe 5f       	subi	r31, 0xFE	; 254
    1598:	09 94       	ijmp
    159a:	00 00       	nop
    159c:	00 00       	nop
    159e:	00 00       	nop

000015a0 <I_9D__SUB_c3_c1>:
    15a0:	00 c0       	rjmp	.+0      	; 0x15a2 <I_9D__SUB_c3_c1+0x2>
    15a2:	62 1b       	sub	r22, r18
    15a4:	73 0b       	sbc	r23, r19
    15a6:	3f b6       	in	r3, 0x3f	; 63
    15a8:	01 96       	adiw	r24, 0x01	; 1
    15aa:	f8 94       	cli
    15ac:	2e bc       	out	0x2e, r2	; 46
    15ae:	6e b4       	in	r6, 0x2e	; 46
    15b0:	78 94       	sei
    15b2:	67 9c       	mul	r6, r7
    15b4:	f0 01       	movw	r30, r0
    15b6:	fe 5f       	subi	r31, 0xFE	; 254
    15b8:	09 94       	ijmp
    15ba:	00 00       	nop
    15bc:	00 00       	nop
    15be:	00 00       	nop

000015c0 <I_9E__SUB_c3_c2>:
    15c0:	00 c0       	rjmp	.+0      	; 0x15c2 <I_9E__SUB_c3_c2+0x2>
    15c2:	64 1b       	sub	r22, r20
    15c4:	75 0b       	sbc	r23, r21
    15c6:	3f b6       	in	r3, 0x3f	; 63
    15c8:	01 96       	adiw	r24, 0x01	; 1
    15ca:	f8 94       	cli
    15cc:	2e bc       	out	0x2e, r2	; 46
    15ce:	6e b4       	in	r6, 0x2e	; 46
    15d0:	78 94       	sei
    15d2:	67 9c       	mul	r6, r7
    15d4:	f0 01       	movw	r30, r0
    15d6:	fe 5f       	subi	r31, 0xFE	; 254
    15d8:	09 94       	ijmp
    15da:	00 00       	nop
    15dc:	00 00       	nop
    15de:	00 00       	nop

000015e0 <I_9F__SUB_c3_c3>:
    15e0:	00 c0       	rjmp	.+0      	; 0x15e2 <I_9F__SUB_c3_c3+0x2>
    15e2:	66 1b       	sub	r22, r22
    15e4:	77 0b       	sbc	r23, r23
    15e6:	3f b6       	in	r3, 0x3f	; 63
    15e8:	01 96       	adiw	r24, 0x01	; 1
    15ea:	f8 94       	cli
    15ec:	2e bc       	out	0x2e, r2	; 46
    15ee:	6e b4       	in	r6, 0x2e	; 46
    15f0:	78 94       	sei
    15f2:	67 9c       	mul	r6, r7
    15f4:	f0 01       	movw	r30, r0
    15f6:	fe 5f       	subi	r31, 0xFE	; 254
    15f8:	09 94       	ijmp
    15fa:	00 00       	nop
    15fc:	00 00       	nop
    15fe:	00 00       	nop

00001600 <I_A0__TST16_c0>:
    1600:	30 fa       	bst	r3, 0
    1602:	02 15       	cp	r16, r2
    1604:	12 05       	cpc	r17, r2
    1606:	3f b6       	in	r3, 0x3f	; 63
    1608:	30 f8       	bld	r3, 0
    160a:	01 96       	adiw	r24, 0x01	; 1
    160c:	f8 94       	cli
    160e:	2e bc       	out	0x2e, r2	; 46
    1610:	6e b4       	in	r6, 0x2e	; 46
    1612:	78 94       	sei
    1614:	67 9c       	mul	r6, r7
    1616:	f0 01       	movw	r30, r0
    1618:	fe 5f       	subi	r31, 0xFE	; 254
    161a:	09 94       	ijmp
    161c:	00 00       	nop
    161e:	00 00       	nop

00001620 <I_A1__CMP16_c0_c1>:
    1620:	00 c0       	rjmp	.+0      	; 0x1622 <I_A1__CMP16_c0_c1+0x2>
    1622:	02 17       	cp	r16, r18
    1624:	13 07       	cpc	r17, r19
    1626:	3f b6       	in	r3, 0x3f	; 63
    1628:	01 96       	adiw	r24, 0x01	; 1
    162a:	f8 94       	cli
    162c:	2e bc       	out	0x2e, r2	; 46
    162e:	6e b4       	in	r6, 0x2e	; 46
    1630:	78 94       	sei
    1632:	67 9c       	mul	r6, r7
    1634:	f0 01       	movw	r30, r0
    1636:	fe 5f       	subi	r31, 0xFE	; 254
    1638:	09 94       	ijmp
    163a:	00 00       	nop
    163c:	00 00       	nop
    163e:	00 00       	nop

00001640 <I_A2__CMP16_c0_c2>:
    1640:	00 c0       	rjmp	.+0      	; 0x1642 <I_A2__CMP16_c0_c2+0x2>
    1642:	04 17       	cp	r16, r20
    1644:	15 07       	cpc	r17, r21
    1646:	3f b6       	in	r3, 0x3f	; 63
    1648:	01 96       	adiw	r24, 0x01	; 1
    164a:	f8 94       	cli
    164c:	2e bc       	out	0x2e, r2	; 46
    164e:	6e b4       	in	r6, 0x2e	; 46
    1650:	78 94       	sei
    1652:	67 9c       	mul	r6, r7
    1654:	f0 01       	movw	r30, r0
    1656:	fe 5f       	subi	r31, 0xFE	; 254
    1658:	09 94       	ijmp
    165a:	00 00       	nop
    165c:	00 00       	nop
    165e:	00 00       	nop

00001660 <I_A3__CMP16_c0_c3>:
    1660:	00 c0       	rjmp	.+0      	; 0x1662 <I_A3__CMP16_c0_c3+0x2>
    1662:	06 17       	cp	r16, r22
    1664:	17 07       	cpc	r17, r23
    1666:	3f b6       	in	r3, 0x3f	; 63
    1668:	01 96       	adiw	r24, 0x01	; 1
    166a:	f8 94       	cli
    166c:	2e bc       	out	0x2e, r2	; 46
    166e:	6e b4       	in	r6, 0x2e	; 46
    1670:	78 94       	sei
    1672:	67 9c       	mul	r6, r7
    1674:	f0 01       	movw	r30, r0
    1676:	fe 5f       	subi	r31, 0xFE	; 254
    1678:	09 94       	ijmp
    167a:	00 00       	nop
    167c:	00 00       	nop
    167e:	00 00       	nop

00001680 <I_A4__CMP16_c1_c0>:
    1680:	00 c0       	rjmp	.+0      	; 0x1682 <I_A4__CMP16_c1_c0+0x2>
    1682:	20 17       	cp	r18, r16
    1684:	31 07       	cpc	r19, r17
    1686:	3f b6       	in	r3, 0x3f	; 63
    1688:	01 96       	adiw	r24, 0x01	; 1
    168a:	f8 94       	cli
    168c:	2e bc       	out	0x2e, r2	; 46
    168e:	6e b4       	in	r6, 0x2e	; 46
    1690:	78 94       	sei
    1692:	67 9c       	mul	r6, r7
    1694:	f0 01       	movw	r30, r0
    1696:	fe 5f       	subi	r31, 0xFE	; 254
    1698:	09 94       	ijmp
    169a:	00 00       	nop
    169c:	00 00       	nop
    169e:	00 00       	nop

000016a0 <I_A5__TST16_c1>:
    16a0:	30 fa       	bst	r3, 0
    16a2:	22 15       	cp	r18, r2
    16a4:	32 05       	cpc	r19, r2
    16a6:	3f b6       	in	r3, 0x3f	; 63
    16a8:	30 f8       	bld	r3, 0
    16aa:	01 96       	adiw	r24, 0x01	; 1
    16ac:	f8 94       	cli
    16ae:	2e bc       	out	0x2e, r2	; 46
    16b0:	6e b4       	in	r6, 0x2e	; 46
    16b2:	78 94       	sei
    16b4:	67 9c       	mul	r6, r7
    16b6:	f0 01       	movw	r30, r0
    16b8:	fe 5f       	subi	r31, 0xFE	; 254
    16ba:	09 94       	ijmp
    16bc:	00 00       	nop
    16be:	00 00       	nop

000016c0 <I_A6__CMP16_c1_c2>:
    16c0:	00 c0       	rjmp	.+0      	; 0x16c2 <I_A6__CMP16_c1_c2+0x2>
    16c2:	24 17       	cp	r18, r20
    16c4:	35 07       	cpc	r19, r21
    16c6:	3f b6       	in	r3, 0x3f	; 63
    16c8:	01 96       	adiw	r24, 0x01	; 1
    16ca:	f8 94       	cli
    16cc:	2e bc       	out	0x2e, r2	; 46
    16ce:	6e b4       	in	r6, 0x2e	; 46
    16d0:	78 94       	sei
    16d2:	67 9c       	mul	r6, r7
    16d4:	f0 01       	movw	r30, r0
    16d6:	fe 5f       	subi	r31, 0xFE	; 254
    16d8:	09 94       	ijmp
    16da:	00 00       	nop
    16dc:	00 00       	nop
    16de:	00 00       	nop

000016e0 <I_A7__CMP16_c1_c3>:
    16e0:	00 c0       	rjmp	.+0      	; 0x16e2 <I_A7__CMP16_c1_c3+0x2>
    16e2:	26 17       	cp	r18, r22
    16e4:	37 07       	cpc	r19, r23
    16e6:	3f b6       	in	r3, 0x3f	; 63
    16e8:	01 96       	adiw	r24, 0x01	; 1
    16ea:	f8 94       	cli
    16ec:	2e bc       	out	0x2e, r2	; 46
    16ee:	6e b4       	in	r6, 0x2e	; 46
    16f0:	78 94       	sei
    16f2:	67 9c       	mul	r6, r7
    16f4:	f0 01       	movw	r30, r0
    16f6:	fe 5f       	subi	r31, 0xFE	; 254
    16f8:	09 94       	ijmp
    16fa:	00 00       	nop
    16fc:	00 00       	nop
    16fe:	00 00       	nop

00001700 <I_A8__CMP16_c2_c0>:
    1700:	00 c0       	rjmp	.+0      	; 0x1702 <I_A8__CMP16_c2_c0+0x2>
    1702:	40 17       	cp	r20, r16
    1704:	51 07       	cpc	r21, r17
    1706:	3f b6       	in	r3, 0x3f	; 63
    1708:	01 96       	adiw	r24, 0x01	; 1
    170a:	f8 94       	cli
    170c:	2e bc       	out	0x2e, r2	; 46
    170e:	6e b4       	in	r6, 0x2e	; 46
    1710:	78 94       	sei
    1712:	67 9c       	mul	r6, r7
    1714:	f0 01       	movw	r30, r0
    1716:	fe 5f       	subi	r31, 0xFE	; 254
    1718:	09 94       	ijmp
    171a:	00 00       	nop
    171c:	00 00       	nop
    171e:	00 00       	nop

00001720 <I_A9__CMP16_c2_c1>:
    1720:	00 c0       	rjmp	.+0      	; 0x1722 <I_A9__CMP16_c2_c1+0x2>
    1722:	42 17       	cp	r20, r18
    1724:	53 07       	cpc	r21, r19
    1726:	3f b6       	in	r3, 0x3f	; 63
    1728:	01 96       	adiw	r24, 0x01	; 1
    172a:	f8 94       	cli
    172c:	2e bc       	out	0x2e, r2	; 46
    172e:	6e b4       	in	r6, 0x2e	; 46
    1730:	78 94       	sei
    1732:	67 9c       	mul	r6, r7
    1734:	f0 01       	movw	r30, r0
    1736:	fe 5f       	subi	r31, 0xFE	; 254
    1738:	09 94       	ijmp
    173a:	00 00       	nop
    173c:	00 00       	nop
    173e:	00 00       	nop

00001740 <I_AA__TST16_c2>:
    1740:	30 fa       	bst	r3, 0
    1742:	42 15       	cp	r20, r2
    1744:	52 05       	cpc	r21, r2
    1746:	3f b6       	in	r3, 0x3f	; 63
    1748:	30 f8       	bld	r3, 0
    174a:	01 96       	adiw	r24, 0x01	; 1
    174c:	f8 94       	cli
    174e:	2e bc       	out	0x2e, r2	; 46
    1750:	6e b4       	in	r6, 0x2e	; 46
    1752:	78 94       	sei
    1754:	67 9c       	mul	r6, r7
    1756:	f0 01       	movw	r30, r0
    1758:	fe 5f       	subi	r31, 0xFE	; 254
    175a:	09 94       	ijmp
    175c:	00 00       	nop
    175e:	00 00       	nop

00001760 <I_AB__CMP16_c2_c3>:
    1760:	00 c0       	rjmp	.+0      	; 0x1762 <I_AB__CMP16_c2_c3+0x2>
    1762:	46 17       	cp	r20, r22
    1764:	57 07       	cpc	r21, r23
    1766:	3f b6       	in	r3, 0x3f	; 63
    1768:	01 96       	adiw	r24, 0x01	; 1
    176a:	f8 94       	cli
    176c:	2e bc       	out	0x2e, r2	; 46
    176e:	6e b4       	in	r6, 0x2e	; 46
    1770:	78 94       	sei
    1772:	67 9c       	mul	r6, r7
    1774:	f0 01       	movw	r30, r0
    1776:	fe 5f       	subi	r31, 0xFE	; 254
    1778:	09 94       	ijmp
    177a:	00 00       	nop
    177c:	00 00       	nop
    177e:	00 00       	nop

00001780 <I_AC__CMP16_c3_c0>:
    1780:	00 c0       	rjmp	.+0      	; 0x1782 <I_AC__CMP16_c3_c0+0x2>
    1782:	60 17       	cp	r22, r16
    1784:	71 07       	cpc	r23, r17
    1786:	3f b6       	in	r3, 0x3f	; 63
    1788:	01 96       	adiw	r24, 0x01	; 1
    178a:	f8 94       	cli
    178c:	2e bc       	out	0x2e, r2	; 46
    178e:	6e b4       	in	r6, 0x2e	; 46
    1790:	78 94       	sei
    1792:	67 9c       	mul	r6, r7
    1794:	f0 01       	movw	r30, r0
    1796:	fe 5f       	subi	r31, 0xFE	; 254
    1798:	09 94       	ijmp
    179a:	00 00       	nop
    179c:	00 00       	nop
    179e:	00 00       	nop

000017a0 <I_AD__CMP16_c3_c1>:
    17a0:	00 c0       	rjmp	.+0      	; 0x17a2 <I_AD__CMP16_c3_c1+0x2>
    17a2:	62 17       	cp	r22, r18
    17a4:	73 07       	cpc	r23, r19
    17a6:	3f b6       	in	r3, 0x3f	; 63
    17a8:	01 96       	adiw	r24, 0x01	; 1
    17aa:	f8 94       	cli
    17ac:	2e bc       	out	0x2e, r2	; 46
    17ae:	6e b4       	in	r6, 0x2e	; 46
    17b0:	78 94       	sei
    17b2:	67 9c       	mul	r6, r7
    17b4:	f0 01       	movw	r30, r0
    17b6:	fe 5f       	subi	r31, 0xFE	; 254
    17b8:	09 94       	ijmp
    17ba:	00 00       	nop
    17bc:	00 00       	nop
    17be:	00 00       	nop

000017c0 <I_AE__CMP16_c3_c2>:
    17c0:	00 c0       	rjmp	.+0      	; 0x17c2 <I_AE__CMP16_c3_c2+0x2>
    17c2:	64 17       	cp	r22, r20
    17c4:	75 07       	cpc	r23, r21
    17c6:	3f b6       	in	r3, 0x3f	; 63
    17c8:	01 96       	adiw	r24, 0x01	; 1
    17ca:	f8 94       	cli
    17cc:	2e bc       	out	0x2e, r2	; 46
    17ce:	6e b4       	in	r6, 0x2e	; 46
    17d0:	78 94       	sei
    17d2:	67 9c       	mul	r6, r7
    17d4:	f0 01       	movw	r30, r0
    17d6:	fe 5f       	subi	r31, 0xFE	; 254
    17d8:	09 94       	ijmp
    17da:	00 00       	nop
    17dc:	00 00       	nop
    17de:	00 00       	nop

000017e0 <I_AF__TST16_c3>:
    17e0:	30 fa       	bst	r3, 0
    17e2:	62 15       	cp	r22, r2
    17e4:	72 05       	cpc	r23, r2
    17e6:	3f b6       	in	r3, 0x3f	; 63
    17e8:	30 f8       	bld	r3, 0
    17ea:	01 96       	adiw	r24, 0x01	; 1
    17ec:	f8 94       	cli
    17ee:	2e bc       	out	0x2e, r2	; 46
    17f0:	6e b4       	in	r6, 0x2e	; 46
    17f2:	78 94       	sei
    17f4:	67 9c       	mul	r6, r7
    17f6:	f0 01       	movw	r30, r0
    17f8:	fe 5f       	subi	r31, 0xFE	; 254
    17fa:	09 94       	ijmp
    17fc:	00 00       	nop
    17fe:	00 00       	nop

00001800 <I_B0__TST8_c0>:
    1800:	00 00       	nop
    1802:	30 fa       	bst	r3, 0
    1804:	00 23       	and	r16, r16
    1806:	3f b6       	in	r3, 0x3f	; 63
    1808:	30 f8       	bld	r3, 0
    180a:	01 96       	adiw	r24, 0x01	; 1
    180c:	f8 94       	cli
    180e:	2e bc       	out	0x2e, r2	; 46
    1810:	6e b4       	in	r6, 0x2e	; 46
    1812:	78 94       	sei
    1814:	67 9c       	mul	r6, r7
    1816:	f0 01       	movw	r30, r0
    1818:	fe 5f       	subi	r31, 0xFE	; 254
    181a:	09 94       	ijmp
    181c:	00 00       	nop
    181e:	00 00       	nop

00001820 <I_B1__CMP8_c0_c1>:
    1820:	c8 95       	lpm
    1822:	02 17       	cp	r16, r18
    1824:	3f b6       	in	r3, 0x3f	; 63
    1826:	01 96       	adiw	r24, 0x01	; 1
    1828:	f8 94       	cli
    182a:	2e bc       	out	0x2e, r2	; 46
    182c:	6e b4       	in	r6, 0x2e	; 46
    182e:	78 94       	sei
    1830:	67 9c       	mul	r6, r7
    1832:	f0 01       	movw	r30, r0
    1834:	fe 5f       	subi	r31, 0xFE	; 254
    1836:	09 94       	ijmp
    1838:	00 00       	nop
    183a:	00 00       	nop
    183c:	00 00       	nop
    183e:	00 00       	nop

00001840 <I_B2__CMP8_c0_c2>:
    1840:	c8 95       	lpm
    1842:	04 17       	cp	r16, r20
    1844:	3f b6       	in	r3, 0x3f	; 63
    1846:	01 96       	adiw	r24, 0x01	; 1
    1848:	f8 94       	cli
    184a:	2e bc       	out	0x2e, r2	; 46
    184c:	6e b4       	in	r6, 0x2e	; 46
    184e:	78 94       	sei
    1850:	67 9c       	mul	r6, r7
    1852:	f0 01       	movw	r30, r0
    1854:	fe 5f       	subi	r31, 0xFE	; 254
    1856:	09 94       	ijmp
    1858:	00 00       	nop
    185a:	00 00       	nop
    185c:	00 00       	nop
    185e:	00 00       	nop

00001860 <I_B3__CMP8_c0_c3>:
    1860:	c8 95       	lpm
    1862:	06 17       	cp	r16, r22
    1864:	3f b6       	in	r3, 0x3f	; 63
    1866:	01 96       	adiw	r24, 0x01	; 1
    1868:	f8 94       	cli
    186a:	2e bc       	out	0x2e, r2	; 46
    186c:	6e b4       	in	r6, 0x2e	; 46
    186e:	78 94       	sei
    1870:	67 9c       	mul	r6, r7
    1872:	f0 01       	movw	r30, r0
    1874:	fe 5f       	subi	r31, 0xFE	; 254
    1876:	09 94       	ijmp
    1878:	00 00       	nop
    187a:	00 00       	nop
    187c:	00 00       	nop
    187e:	00 00       	nop

00001880 <I_B4__CMP8_c1_c0>:
    1880:	c8 95       	lpm
    1882:	20 17       	cp	r18, r16
    1884:	3f b6       	in	r3, 0x3f	; 63
    1886:	01 96       	adiw	r24, 0x01	; 1
    1888:	f8 94       	cli
    188a:	2e bc       	out	0x2e, r2	; 46
    188c:	6e b4       	in	r6, 0x2e	; 46
    188e:	78 94       	sei
    1890:	67 9c       	mul	r6, r7
    1892:	f0 01       	movw	r30, r0
    1894:	fe 5f       	subi	r31, 0xFE	; 254
    1896:	09 94       	ijmp
    1898:	00 00       	nop
    189a:	00 00       	nop
    189c:	00 00       	nop
    189e:	00 00       	nop

000018a0 <I_B5__TST8_c1>:
    18a0:	00 00       	nop
    18a2:	30 fa       	bst	r3, 0
    18a4:	22 23       	and	r18, r18
    18a6:	3f b6       	in	r3, 0x3f	; 63
    18a8:	30 f8       	bld	r3, 0
    18aa:	01 96       	adiw	r24, 0x01	; 1
    18ac:	f8 94       	cli
    18ae:	2e bc       	out	0x2e, r2	; 46
    18b0:	6e b4       	in	r6, 0x2e	; 46
    18b2:	78 94       	sei
    18b4:	67 9c       	mul	r6, r7
    18b6:	f0 01       	movw	r30, r0
    18b8:	fe 5f       	subi	r31, 0xFE	; 254
    18ba:	09 94       	ijmp
    18bc:	00 00       	nop
    18be:	00 00       	nop

000018c0 <I_B6__CMP8_c1_c2>:
    18c0:	c8 95       	lpm
    18c2:	24 17       	cp	r18, r20
    18c4:	3f b6       	in	r3, 0x3f	; 63
    18c6:	01 96       	adiw	r24, 0x01	; 1
    18c8:	f8 94       	cli
    18ca:	2e bc       	out	0x2e, r2	; 46
    18cc:	6e b4       	in	r6, 0x2e	; 46
    18ce:	78 94       	sei
    18d0:	67 9c       	mul	r6, r7
    18d2:	f0 01       	movw	r30, r0
    18d4:	fe 5f       	subi	r31, 0xFE	; 254
    18d6:	09 94       	ijmp
    18d8:	00 00       	nop
    18da:	00 00       	nop
    18dc:	00 00       	nop
    18de:	00 00       	nop

000018e0 <I_B7__CMP8_c1_c3>:
    18e0:	c8 95       	lpm
    18e2:	26 17       	cp	r18, r22
    18e4:	3f b6       	in	r3, 0x3f	; 63
    18e6:	01 96       	adiw	r24, 0x01	; 1
    18e8:	f8 94       	cli
    18ea:	2e bc       	out	0x2e, r2	; 46
    18ec:	6e b4       	in	r6, 0x2e	; 46
    18ee:	78 94       	sei
    18f0:	67 9c       	mul	r6, r7
    18f2:	f0 01       	movw	r30, r0
    18f4:	fe 5f       	subi	r31, 0xFE	; 254
    18f6:	09 94       	ijmp
    18f8:	00 00       	nop
    18fa:	00 00       	nop
    18fc:	00 00       	nop
    18fe:	00 00       	nop

00001900 <I_B8__CMP8_c2_c0>:
    1900:	c8 95       	lpm
    1902:	40 17       	cp	r20, r16
    1904:	3f b6       	in	r3, 0x3f	; 63
    1906:	01 96       	adiw	r24, 0x01	; 1
    1908:	f8 94       	cli
    190a:	2e bc       	out	0x2e, r2	; 46
    190c:	6e b4       	in	r6, 0x2e	; 46
    190e:	78 94       	sei
    1910:	67 9c       	mul	r6, r7
    1912:	f0 01       	movw	r30, r0
    1914:	fe 5f       	subi	r31, 0xFE	; 254
    1916:	09 94       	ijmp
    1918:	00 00       	nop
    191a:	00 00       	nop
    191c:	00 00       	nop
    191e:	00 00       	nop

00001920 <I_B9__CMP8_c2_c1>:
    1920:	c8 95       	lpm
    1922:	42 17       	cp	r20, r18
    1924:	3f b6       	in	r3, 0x3f	; 63
    1926:	01 96       	adiw	r24, 0x01	; 1
    1928:	f8 94       	cli
    192a:	2e bc       	out	0x2e, r2	; 46
    192c:	6e b4       	in	r6, 0x2e	; 46
    192e:	78 94       	sei
    1930:	67 9c       	mul	r6, r7
    1932:	f0 01       	movw	r30, r0
    1934:	fe 5f       	subi	r31, 0xFE	; 254
    1936:	09 94       	ijmp
    1938:	00 00       	nop
    193a:	00 00       	nop
    193c:	00 00       	nop
    193e:	00 00       	nop

00001940 <I_BA__TST8_c2>:
    1940:	00 00       	nop
    1942:	30 fa       	bst	r3, 0
    1944:	44 23       	and	r20, r20
    1946:	3f b6       	in	r3, 0x3f	; 63
    1948:	30 f8       	bld	r3, 0
    194a:	01 96       	adiw	r24, 0x01	; 1
    194c:	f8 94       	cli
    194e:	2e bc       	out	0x2e, r2	; 46
    1950:	6e b4       	in	r6, 0x2e	; 46
    1952:	78 94       	sei
    1954:	67 9c       	mul	r6, r7
    1956:	f0 01       	movw	r30, r0
    1958:	fe 5f       	subi	r31, 0xFE	; 254
    195a:	09 94       	ijmp
    195c:	00 00       	nop
    195e:	00 00       	nop

00001960 <I_BB__CMP8_c2_c3>:
    1960:	c8 95       	lpm
    1962:	46 17       	cp	r20, r22
    1964:	3f b6       	in	r3, 0x3f	; 63
    1966:	01 96       	adiw	r24, 0x01	; 1
    1968:	f8 94       	cli
    196a:	2e bc       	out	0x2e, r2	; 46
    196c:	6e b4       	in	r6, 0x2e	; 46
    196e:	78 94       	sei
    1970:	67 9c       	mul	r6, r7
    1972:	f0 01       	movw	r30, r0
    1974:	fe 5f       	subi	r31, 0xFE	; 254
    1976:	09 94       	ijmp
    1978:	00 00       	nop
    197a:	00 00       	nop
    197c:	00 00       	nop
    197e:	00 00       	nop

00001980 <I_BC__CMP8_c3_c0>:
    1980:	c8 95       	lpm
    1982:	60 17       	cp	r22, r16
    1984:	3f b6       	in	r3, 0x3f	; 63
    1986:	01 96       	adiw	r24, 0x01	; 1
    1988:	f8 94       	cli
    198a:	2e bc       	out	0x2e, r2	; 46
    198c:	6e b4       	in	r6, 0x2e	; 46
    198e:	78 94       	sei
    1990:	67 9c       	mul	r6, r7
    1992:	f0 01       	movw	r30, r0
    1994:	fe 5f       	subi	r31, 0xFE	; 254
    1996:	09 94       	ijmp
    1998:	00 00       	nop
    199a:	00 00       	nop
    199c:	00 00       	nop
    199e:	00 00       	nop

000019a0 <I_BD__CMP8_c3_c1>:
    19a0:	c8 95       	lpm
    19a2:	62 17       	cp	r22, r18
    19a4:	3f b6       	in	r3, 0x3f	; 63
    19a6:	01 96       	adiw	r24, 0x01	; 1
    19a8:	f8 94       	cli
    19aa:	2e bc       	out	0x2e, r2	; 46
    19ac:	6e b4       	in	r6, 0x2e	; 46
    19ae:	78 94       	sei
    19b0:	67 9c       	mul	r6, r7
    19b2:	f0 01       	movw	r30, r0
    19b4:	fe 5f       	subi	r31, 0xFE	; 254
    19b6:	09 94       	ijmp
    19b8:	00 00       	nop
    19ba:	00 00       	nop
    19bc:	00 00       	nop
    19be:	00 00       	nop

000019c0 <I_BE__CMP8_c3_c2>:
    19c0:	c8 95       	lpm
    19c2:	64 17       	cp	r22, r20
    19c4:	3f b6       	in	r3, 0x3f	; 63
    19c6:	01 96       	adiw	r24, 0x01	; 1
    19c8:	f8 94       	cli
    19ca:	2e bc       	out	0x2e, r2	; 46
    19cc:	6e b4       	in	r6, 0x2e	; 46
    19ce:	78 94       	sei
    19d0:	67 9c       	mul	r6, r7
    19d2:	f0 01       	movw	r30, r0
    19d4:	fe 5f       	subi	r31, 0xFE	; 254
    19d6:	09 94       	ijmp
    19d8:	00 00       	nop
    19da:	00 00       	nop
    19dc:	00 00       	nop
    19de:	00 00       	nop

000019e0 <I_BF__TST8_c3>:
    19e0:	00 00       	nop
    19e2:	30 fa       	bst	r3, 0
    19e4:	66 23       	and	r22, r22
    19e6:	3f b6       	in	r3, 0x3f	; 63
    19e8:	30 f8       	bld	r3, 0
    19ea:	01 96       	adiw	r24, 0x01	; 1
    19ec:	f8 94       	cli
    19ee:	2e bc       	out	0x2e, r2	; 46
    19f0:	6e b4       	in	r6, 0x2e	; 46
    19f2:	78 94       	sei
    19f4:	67 9c       	mul	r6, r7
    19f6:	f0 01       	movw	r30, r0
    19f8:	fe 5f       	subi	r31, 0xFE	; 254
    19fa:	09 94       	ijmp
    19fc:	00 00       	nop
    19fe:	00 00       	nop

00001a00 <I_C0__BEQ_S_m8>:
    1a00:	31 fe       	sbrs	r3, 1
    1a02:	fe c1       	rjmp	.+1020   	; 0x1e00 <branch_short_dispatch_reverse_func>
    1a04:	01 96       	adiw	r24, 0x01	; 1
    1a06:	88 50       	subi	r24, 0x08	; 8
    1a08:	90 40       	sbci	r25, 0x00	; 0
    1a0a:	04 d2       	rcall	.+1032   	; 0x1e14 <fx_seek_to_pc>
    1a0c:	6e b4       	in	r6, 0x2e	; 46
    1a0e:	2e bc       	out	0x2e, r2	; 46
    1a10:	67 9c       	mul	r6, r7
    1a12:	f0 01       	movw	r30, r0
    1a14:	fe 5f       	subi	r31, 0xFE	; 254
    1a16:	09 94       	ijmp
    1a18:	00 00       	nop
    1a1a:	00 00       	nop
    1a1c:	00 00       	nop
    1a1e:	00 00       	nop

00001a20 <I_C1__BEQ_S_m7>:
    1a20:	31 fe       	sbrs	r3, 1
    1a22:	ee c1       	rjmp	.+988    	; 0x1e00 <branch_short_dispatch_reverse_func>
    1a24:	01 96       	adiw	r24, 0x01	; 1
    1a26:	87 50       	subi	r24, 0x07	; 7
    1a28:	90 40       	sbci	r25, 0x00	; 0
    1a2a:	f4 d1       	rcall	.+1000   	; 0x1e14 <fx_seek_to_pc>
    1a2c:	6e b4       	in	r6, 0x2e	; 46
    1a2e:	2e bc       	out	0x2e, r2	; 46
    1a30:	67 9c       	mul	r6, r7
    1a32:	f0 01       	movw	r30, r0
    1a34:	fe 5f       	subi	r31, 0xFE	; 254
    1a36:	09 94       	ijmp
    1a38:	00 00       	nop
    1a3a:	00 00       	nop
    1a3c:	00 00       	nop
    1a3e:	00 00       	nop

00001a40 <I_C2__BEQ_S_m6>:
    1a40:	31 fe       	sbrs	r3, 1
    1a42:	de c1       	rjmp	.+956    	; 0x1e00 <branch_short_dispatch_reverse_func>
    1a44:	01 96       	adiw	r24, 0x01	; 1
    1a46:	86 50       	subi	r24, 0x06	; 6
    1a48:	90 40       	sbci	r25, 0x00	; 0
    1a4a:	e4 d1       	rcall	.+968    	; 0x1e14 <fx_seek_to_pc>
    1a4c:	6e b4       	in	r6, 0x2e	; 46
    1a4e:	2e bc       	out	0x2e, r2	; 46
    1a50:	67 9c       	mul	r6, r7
    1a52:	f0 01       	movw	r30, r0
    1a54:	fe 5f       	subi	r31, 0xFE	; 254
    1a56:	09 94       	ijmp
    1a58:	00 00       	nop
    1a5a:	00 00       	nop
    1a5c:	00 00       	nop
    1a5e:	00 00       	nop

00001a60 <I_C3__BEQ_S_m5>:
    1a60:	31 fe       	sbrs	r3, 1
    1a62:	ce c1       	rjmp	.+924    	; 0x1e00 <branch_short_dispatch_reverse_func>
    1a64:	01 96       	adiw	r24, 0x01	; 1
    1a66:	85 50       	subi	r24, 0x05	; 5
    1a68:	90 40       	sbci	r25, 0x00	; 0
    1a6a:	d4 d1       	rcall	.+936    	; 0x1e14 <fx_seek_to_pc>
    1a6c:	6e b4       	in	r6, 0x2e	; 46
    1a6e:	2e bc       	out	0x2e, r2	; 46
    1a70:	67 9c       	mul	r6, r7
    1a72:	f0 01       	movw	r30, r0
    1a74:	fe 5f       	subi	r31, 0xFE	; 254
    1a76:	09 94       	ijmp
    1a78:	00 00       	nop
    1a7a:	00 00       	nop
    1a7c:	00 00       	nop
    1a7e:	00 00       	nop

00001a80 <I_C4__BEQ_S_m4>:
    1a80:	31 fe       	sbrs	r3, 1
    1a82:	be c1       	rjmp	.+892    	; 0x1e00 <branch_short_dispatch_reverse_func>
    1a84:	01 96       	adiw	r24, 0x01	; 1
    1a86:	84 50       	subi	r24, 0x04	; 4
    1a88:	90 40       	sbci	r25, 0x00	; 0
    1a8a:	c4 d1       	rcall	.+904    	; 0x1e14 <fx_seek_to_pc>
    1a8c:	6e b4       	in	r6, 0x2e	; 46
    1a8e:	2e bc       	out	0x2e, r2	; 46
    1a90:	67 9c       	mul	r6, r7
    1a92:	f0 01       	movw	r30, r0
    1a94:	fe 5f       	subi	r31, 0xFE	; 254
    1a96:	09 94       	ijmp
    1a98:	00 00       	nop
    1a9a:	00 00       	nop
    1a9c:	00 00       	nop
    1a9e:	00 00       	nop

00001aa0 <I_C5__BEQ_S_m3>:
    1aa0:	31 fe       	sbrs	r3, 1
    1aa2:	ae c1       	rjmp	.+860    	; 0x1e00 <branch_short_dispatch_reverse_func>
    1aa4:	01 96       	adiw	r24, 0x01	; 1
    1aa6:	83 50       	subi	r24, 0x03	; 3
    1aa8:	90 40       	sbci	r25, 0x00	; 0
    1aaa:	b4 d1       	rcall	.+872    	; 0x1e14 <fx_seek_to_pc>
    1aac:	6e b4       	in	r6, 0x2e	; 46
    1aae:	2e bc       	out	0x2e, r2	; 46
    1ab0:	67 9c       	mul	r6, r7
    1ab2:	f0 01       	movw	r30, r0
    1ab4:	fe 5f       	subi	r31, 0xFE	; 254
    1ab6:	09 94       	ijmp
    1ab8:	00 00       	nop
    1aba:	00 00       	nop
    1abc:	00 00       	nop
    1abe:	00 00       	nop

00001ac0 <I_C6__BEQ_S_m2>:
    1ac0:	31 fe       	sbrs	r3, 1
    1ac2:	9e c1       	rjmp	.+828    	; 0x1e00 <branch_short_dispatch_reverse_func>
    1ac4:	01 96       	adiw	r24, 0x01	; 1
    1ac6:	82 50       	subi	r24, 0x02	; 2
    1ac8:	90 40       	sbci	r25, 0x00	; 0
    1aca:	a4 d1       	rcall	.+840    	; 0x1e14 <fx_seek_to_pc>
    1acc:	6e b4       	in	r6, 0x2e	; 46
    1ace:	2e bc       	out	0x2e, r2	; 46
    1ad0:	67 9c       	mul	r6, r7
    1ad2:	f0 01       	movw	r30, r0
    1ad4:	fe 5f       	subi	r31, 0xFE	; 254
    1ad6:	09 94       	ijmp
    1ad8:	00 00       	nop
    1ada:	00 00       	nop
    1adc:	00 00       	nop
    1ade:	00 00       	nop

00001ae0 <I_C7__BEQ_S_m1>:
    1ae0:	31 fe       	sbrs	r3, 1
    1ae2:	8e c1       	rjmp	.+796    	; 0x1e00 <branch_short_dispatch_reverse_func>
    1ae4:	01 96       	adiw	r24, 0x01	; 1
    1ae6:	81 50       	subi	r24, 0x01	; 1
    1ae8:	90 40       	sbci	r25, 0x00	; 0
    1aea:	94 d1       	rcall	.+808    	; 0x1e14 <fx_seek_to_pc>
    1aec:	6e b4       	in	r6, 0x2e	; 46
    1aee:	2e bc       	out	0x2e, r2	; 46
    1af0:	67 9c       	mul	r6, r7
    1af2:	f0 01       	movw	r30, r0
    1af4:	fe 5f       	subi	r31, 0xFE	; 254
    1af6:	09 94       	ijmp
    1af8:	00 00       	nop
    1afa:	00 00       	nop
    1afc:	00 00       	nop
    1afe:	00 00       	nop

00001b00 <I_C8__BEQ_S_p1>:
    1b00:	31 fe       	sbrs	r3, 1
    1b02:	7e c1       	rjmp	.+764    	; 0x1e00 <branch_short_dispatch_reverse_func>
    1b04:	01 96       	adiw	r24, 0x01	; 1
    1b06:	8f 5f       	subi	r24, 0xFF	; 255
    1b08:	9f 4f       	sbci	r25, 0xFF	; 255
    1b0a:	84 d1       	rcall	.+776    	; 0x1e14 <fx_seek_to_pc>
    1b0c:	6e b4       	in	r6, 0x2e	; 46
    1b0e:	2e bc       	out	0x2e, r2	; 46
    1b10:	67 9c       	mul	r6, r7
    1b12:	f0 01       	movw	r30, r0
    1b14:	fe 5f       	subi	r31, 0xFE	; 254
    1b16:	09 94       	ijmp
    1b18:	00 00       	nop
    1b1a:	00 00       	nop
    1b1c:	00 00       	nop
    1b1e:	00 00       	nop

00001b20 <I_C9__BEQ_S_p2>:
    1b20:	31 fe       	sbrs	r3, 1
    1b22:	6e c1       	rjmp	.+732    	; 0x1e00 <branch_short_dispatch_reverse_func>
    1b24:	01 96       	adiw	r24, 0x01	; 1
    1b26:	8e 5f       	subi	r24, 0xFE	; 254
    1b28:	9f 4f       	sbci	r25, 0xFF	; 255
    1b2a:	74 d1       	rcall	.+744    	; 0x1e14 <fx_seek_to_pc>
    1b2c:	6e b4       	in	r6, 0x2e	; 46
    1b2e:	2e bc       	out	0x2e, r2	; 46
    1b30:	67 9c       	mul	r6, r7
    1b32:	f0 01       	movw	r30, r0
    1b34:	fe 5f       	subi	r31, 0xFE	; 254
    1b36:	09 94       	ijmp
    1b38:	00 00       	nop
    1b3a:	00 00       	nop
    1b3c:	00 00       	nop
    1b3e:	00 00       	nop

00001b40 <I_CA__BEQ_S_p3>:
    1b40:	31 fe       	sbrs	r3, 1
    1b42:	5e c1       	rjmp	.+700    	; 0x1e00 <branch_short_dispatch_reverse_func>
    1b44:	01 96       	adiw	r24, 0x01	; 1
    1b46:	8d 5f       	subi	r24, 0xFD	; 253
    1b48:	9f 4f       	sbci	r25, 0xFF	; 255
    1b4a:	64 d1       	rcall	.+712    	; 0x1e14 <fx_seek_to_pc>
    1b4c:	6e b4       	in	r6, 0x2e	; 46
    1b4e:	2e bc       	out	0x2e, r2	; 46
    1b50:	67 9c       	mul	r6, r7
    1b52:	f0 01       	movw	r30, r0
    1b54:	fe 5f       	subi	r31, 0xFE	; 254
    1b56:	09 94       	ijmp
    1b58:	00 00       	nop
    1b5a:	00 00       	nop
    1b5c:	00 00       	nop
    1b5e:	00 00       	nop

00001b60 <I_CB__BEQ_S_p4>:
    1b60:	31 fe       	sbrs	r3, 1
    1b62:	4e c1       	rjmp	.+668    	; 0x1e00 <branch_short_dispatch_reverse_func>
    1b64:	01 96       	adiw	r24, 0x01	; 1
    1b66:	8c 5f       	subi	r24, 0xFC	; 252
    1b68:	9f 4f       	sbci	r25, 0xFF	; 255
    1b6a:	54 d1       	rcall	.+680    	; 0x1e14 <fx_seek_to_pc>
    1b6c:	6e b4       	in	r6, 0x2e	; 46
    1b6e:	2e bc       	out	0x2e, r2	; 46
    1b70:	67 9c       	mul	r6, r7
    1b72:	f0 01       	movw	r30, r0
    1b74:	fe 5f       	subi	r31, 0xFE	; 254
    1b76:	09 94       	ijmp
    1b78:	00 00       	nop
    1b7a:	00 00       	nop
    1b7c:	00 00       	nop
    1b7e:	00 00       	nop

00001b80 <I_CC__BEQ_S_p5>:
    1b80:	31 fe       	sbrs	r3, 1
    1b82:	3e c1       	rjmp	.+636    	; 0x1e00 <branch_short_dispatch_reverse_func>
    1b84:	01 96       	adiw	r24, 0x01	; 1
    1b86:	8b 5f       	subi	r24, 0xFB	; 251
    1b88:	9f 4f       	sbci	r25, 0xFF	; 255
    1b8a:	44 d1       	rcall	.+648    	; 0x1e14 <fx_seek_to_pc>
    1b8c:	6e b4       	in	r6, 0x2e	; 46
    1b8e:	2e bc       	out	0x2e, r2	; 46
    1b90:	67 9c       	mul	r6, r7
    1b92:	f0 01       	movw	r30, r0
    1b94:	fe 5f       	subi	r31, 0xFE	; 254
    1b96:	09 94       	ijmp
    1b98:	00 00       	nop
    1b9a:	00 00       	nop
    1b9c:	00 00       	nop
    1b9e:	00 00       	nop

00001ba0 <I_CD__BEQ_S_p6>:
    1ba0:	31 fe       	sbrs	r3, 1
    1ba2:	2e c1       	rjmp	.+604    	; 0x1e00 <branch_short_dispatch_reverse_func>
    1ba4:	01 96       	adiw	r24, 0x01	; 1
    1ba6:	8a 5f       	subi	r24, 0xFA	; 250
    1ba8:	9f 4f       	sbci	r25, 0xFF	; 255
    1baa:	34 d1       	rcall	.+616    	; 0x1e14 <fx_seek_to_pc>
    1bac:	6e b4       	in	r6, 0x2e	; 46
    1bae:	2e bc       	out	0x2e, r2	; 46
    1bb0:	67 9c       	mul	r6, r7
    1bb2:	f0 01       	movw	r30, r0
    1bb4:	fe 5f       	subi	r31, 0xFE	; 254
    1bb6:	09 94       	ijmp
    1bb8:	00 00       	nop
    1bba:	00 00       	nop
    1bbc:	00 00       	nop
    1bbe:	00 00       	nop

00001bc0 <I_CE__BEQ_S_p7>:
    1bc0:	31 fe       	sbrs	r3, 1
    1bc2:	1e c1       	rjmp	.+572    	; 0x1e00 <branch_short_dispatch_reverse_func>
    1bc4:	01 96       	adiw	r24, 0x01	; 1
    1bc6:	89 5f       	subi	r24, 0xF9	; 249
    1bc8:	9f 4f       	sbci	r25, 0xFF	; 255
    1bca:	24 d1       	rcall	.+584    	; 0x1e14 <fx_seek_to_pc>
    1bcc:	6e b4       	in	r6, 0x2e	; 46
    1bce:	2e bc       	out	0x2e, r2	; 46
    1bd0:	67 9c       	mul	r6, r7
    1bd2:	f0 01       	movw	r30, r0
    1bd4:	fe 5f       	subi	r31, 0xFE	; 254
    1bd6:	09 94       	ijmp
    1bd8:	00 00       	nop
    1bda:	00 00       	nop
    1bdc:	00 00       	nop
    1bde:	00 00       	nop

00001be0 <I_CF__BEQ_S_p8>:
    1be0:	31 fe       	sbrs	r3, 1
    1be2:	0e c1       	rjmp	.+540    	; 0x1e00 <branch_short_dispatch_reverse_func>
    1be4:	01 96       	adiw	r24, 0x01	; 1
    1be6:	88 5f       	subi	r24, 0xF8	; 248
    1be8:	9f 4f       	sbci	r25, 0xFF	; 255
    1bea:	14 d1       	rcall	.+552    	; 0x1e14 <fx_seek_to_pc>
    1bec:	6e b4       	in	r6, 0x2e	; 46
    1bee:	2e bc       	out	0x2e, r2	; 46
    1bf0:	67 9c       	mul	r6, r7
    1bf2:	f0 01       	movw	r30, r0
    1bf4:	fe 5f       	subi	r31, 0xFE	; 254
    1bf6:	09 94       	ijmp
    1bf8:	00 00       	nop
    1bfa:	00 00       	nop
    1bfc:	00 00       	nop
    1bfe:	00 00       	nop

00001c00 <I_D0__BNE_S_m8>:
    1c00:	31 fc       	sbrc	r3, 1
    1c02:	fe c0       	rjmp	.+508    	; 0x1e00 <branch_short_dispatch_reverse_func>
    1c04:	01 96       	adiw	r24, 0x01	; 1
    1c06:	88 50       	subi	r24, 0x08	; 8
    1c08:	90 40       	sbci	r25, 0x00	; 0
    1c0a:	04 d1       	rcall	.+520    	; 0x1e14 <fx_seek_to_pc>
    1c0c:	6e b4       	in	r6, 0x2e	; 46
    1c0e:	2e bc       	out	0x2e, r2	; 46
    1c10:	67 9c       	mul	r6, r7
    1c12:	f0 01       	movw	r30, r0
    1c14:	fe 5f       	subi	r31, 0xFE	; 254
    1c16:	09 94       	ijmp
    1c18:	00 00       	nop
    1c1a:	00 00       	nop
    1c1c:	00 00       	nop
    1c1e:	00 00       	nop

00001c20 <I_D1__BNE_S_m7>:
    1c20:	31 fc       	sbrc	r3, 1
    1c22:	ee c0       	rjmp	.+476    	; 0x1e00 <branch_short_dispatch_reverse_func>
    1c24:	01 96       	adiw	r24, 0x01	; 1
    1c26:	87 50       	subi	r24, 0x07	; 7
    1c28:	90 40       	sbci	r25, 0x00	; 0
    1c2a:	f4 d0       	rcall	.+488    	; 0x1e14 <fx_seek_to_pc>
    1c2c:	6e b4       	in	r6, 0x2e	; 46
    1c2e:	2e bc       	out	0x2e, r2	; 46
    1c30:	67 9c       	mul	r6, r7
    1c32:	f0 01       	movw	r30, r0
    1c34:	fe 5f       	subi	r31, 0xFE	; 254
    1c36:	09 94       	ijmp
    1c38:	00 00       	nop
    1c3a:	00 00       	nop
    1c3c:	00 00       	nop
    1c3e:	00 00       	nop

00001c40 <I_D2__BNE_S_m6>:
    1c40:	31 fc       	sbrc	r3, 1
    1c42:	de c0       	rjmp	.+444    	; 0x1e00 <branch_short_dispatch_reverse_func>
    1c44:	01 96       	adiw	r24, 0x01	; 1
    1c46:	86 50       	subi	r24, 0x06	; 6
    1c48:	90 40       	sbci	r25, 0x00	; 0
    1c4a:	e4 d0       	rcall	.+456    	; 0x1e14 <fx_seek_to_pc>
    1c4c:	6e b4       	in	r6, 0x2e	; 46
    1c4e:	2e bc       	out	0x2e, r2	; 46
    1c50:	67 9c       	mul	r6, r7
    1c52:	f0 01       	movw	r30, r0
    1c54:	fe 5f       	subi	r31, 0xFE	; 254
    1c56:	09 94       	ijmp
    1c58:	00 00       	nop
    1c5a:	00 00       	nop
    1c5c:	00 00       	nop
    1c5e:	00 00       	nop

00001c60 <I_D3__BNE_S_m5>:
    1c60:	31 fc       	sbrc	r3, 1
    1c62:	ce c0       	rjmp	.+412    	; 0x1e00 <branch_short_dispatch_reverse_func>
    1c64:	01 96       	adiw	r24, 0x01	; 1
    1c66:	85 50       	subi	r24, 0x05	; 5
    1c68:	90 40       	sbci	r25, 0x00	; 0
    1c6a:	d4 d0       	rcall	.+424    	; 0x1e14 <fx_seek_to_pc>
    1c6c:	6e b4       	in	r6, 0x2e	; 46
    1c6e:	2e bc       	out	0x2e, r2	; 46
    1c70:	67 9c       	mul	r6, r7
    1c72:	f0 01       	movw	r30, r0
    1c74:	fe 5f       	subi	r31, 0xFE	; 254
    1c76:	09 94       	ijmp
    1c78:	00 00       	nop
    1c7a:	00 00       	nop
    1c7c:	00 00       	nop
    1c7e:	00 00       	nop

00001c80 <I_D4__BNE_S_m4>:
    1c80:	31 fc       	sbrc	r3, 1
    1c82:	be c0       	rjmp	.+380    	; 0x1e00 <branch_short_dispatch_reverse_func>
    1c84:	01 96       	adiw	r24, 0x01	; 1
    1c86:	84 50       	subi	r24, 0x04	; 4
    1c88:	90 40       	sbci	r25, 0x00	; 0
    1c8a:	c4 d0       	rcall	.+392    	; 0x1e14 <fx_seek_to_pc>
    1c8c:	6e b4       	in	r6, 0x2e	; 46
    1c8e:	2e bc       	out	0x2e, r2	; 46
    1c90:	67 9c       	mul	r6, r7
    1c92:	f0 01       	movw	r30, r0
    1c94:	fe 5f       	subi	r31, 0xFE	; 254
    1c96:	09 94       	ijmp
    1c98:	00 00       	nop
    1c9a:	00 00       	nop
    1c9c:	00 00       	nop
    1c9e:	00 00       	nop

00001ca0 <I_D5__BNE_S_m3>:
    1ca0:	31 fc       	sbrc	r3, 1
    1ca2:	ae c0       	rjmp	.+348    	; 0x1e00 <branch_short_dispatch_reverse_func>
    1ca4:	01 96       	adiw	r24, 0x01	; 1
    1ca6:	83 50       	subi	r24, 0x03	; 3
    1ca8:	90 40       	sbci	r25, 0x00	; 0
    1caa:	b4 d0       	rcall	.+360    	; 0x1e14 <fx_seek_to_pc>
    1cac:	6e b4       	in	r6, 0x2e	; 46
    1cae:	2e bc       	out	0x2e, r2	; 46
    1cb0:	67 9c       	mul	r6, r7
    1cb2:	f0 01       	movw	r30, r0
    1cb4:	fe 5f       	subi	r31, 0xFE	; 254
    1cb6:	09 94       	ijmp
    1cb8:	00 00       	nop
    1cba:	00 00       	nop
    1cbc:	00 00       	nop
    1cbe:	00 00       	nop

00001cc0 <I_D6__BNE_S_m2>:
    1cc0:	31 fc       	sbrc	r3, 1
    1cc2:	9e c0       	rjmp	.+316    	; 0x1e00 <branch_short_dispatch_reverse_func>
    1cc4:	01 96       	adiw	r24, 0x01	; 1
    1cc6:	82 50       	subi	r24, 0x02	; 2
    1cc8:	90 40       	sbci	r25, 0x00	; 0
    1cca:	a4 d0       	rcall	.+328    	; 0x1e14 <fx_seek_to_pc>
    1ccc:	6e b4       	in	r6, 0x2e	; 46
    1cce:	2e bc       	out	0x2e, r2	; 46
    1cd0:	67 9c       	mul	r6, r7
    1cd2:	f0 01       	movw	r30, r0
    1cd4:	fe 5f       	subi	r31, 0xFE	; 254
    1cd6:	09 94       	ijmp
    1cd8:	00 00       	nop
    1cda:	00 00       	nop
    1cdc:	00 00       	nop
    1cde:	00 00       	nop

00001ce0 <I_D7__BNE_S_m1>:
    1ce0:	31 fc       	sbrc	r3, 1
    1ce2:	8e c0       	rjmp	.+284    	; 0x1e00 <branch_short_dispatch_reverse_func>
    1ce4:	01 96       	adiw	r24, 0x01	; 1
    1ce6:	81 50       	subi	r24, 0x01	; 1
    1ce8:	90 40       	sbci	r25, 0x00	; 0
    1cea:	94 d0       	rcall	.+296    	; 0x1e14 <fx_seek_to_pc>
    1cec:	6e b4       	in	r6, 0x2e	; 46
    1cee:	2e bc       	out	0x2e, r2	; 46
    1cf0:	67 9c       	mul	r6, r7
    1cf2:	f0 01       	movw	r30, r0
    1cf4:	fe 5f       	subi	r31, 0xFE	; 254
    1cf6:	09 94       	ijmp
    1cf8:	00 00       	nop
    1cfa:	00 00       	nop
    1cfc:	00 00       	nop
    1cfe:	00 00       	nop

00001d00 <I_D8__BNE_S_p1>:
    1d00:	31 fc       	sbrc	r3, 1
    1d02:	7e c0       	rjmp	.+252    	; 0x1e00 <branch_short_dispatch_reverse_func>
    1d04:	01 96       	adiw	r24, 0x01	; 1
    1d06:	8f 5f       	subi	r24, 0xFF	; 255
    1d08:	9f 4f       	sbci	r25, 0xFF	; 255
    1d0a:	84 d0       	rcall	.+264    	; 0x1e14 <fx_seek_to_pc>
    1d0c:	6e b4       	in	r6, 0x2e	; 46
    1d0e:	2e bc       	out	0x2e, r2	; 46
    1d10:	67 9c       	mul	r6, r7
    1d12:	f0 01       	movw	r30, r0
    1d14:	fe 5f       	subi	r31, 0xFE	; 254
    1d16:	09 94       	ijmp
    1d18:	00 00       	nop
    1d1a:	00 00       	nop
    1d1c:	00 00       	nop
    1d1e:	00 00       	nop

00001d20 <I_D9__BNE_S_p2>:
    1d20:	31 fc       	sbrc	r3, 1
    1d22:	6e c0       	rjmp	.+220    	; 0x1e00 <branch_short_dispatch_reverse_func>
    1d24:	01 96       	adiw	r24, 0x01	; 1
    1d26:	8e 5f       	subi	r24, 0xFE	; 254
    1d28:	9f 4f       	sbci	r25, 0xFF	; 255
    1d2a:	74 d0       	rcall	.+232    	; 0x1e14 <fx_seek_to_pc>
    1d2c:	6e b4       	in	r6, 0x2e	; 46
    1d2e:	2e bc       	out	0x2e, r2	; 46
    1d30:	67 9c       	mul	r6, r7
    1d32:	f0 01       	movw	r30, r0
    1d34:	fe 5f       	subi	r31, 0xFE	; 254
    1d36:	09 94       	ijmp
    1d38:	00 00       	nop
    1d3a:	00 00       	nop
    1d3c:	00 00       	nop
    1d3e:	00 00       	nop

00001d40 <I_DA__BNE_S_p3>:
    1d40:	31 fc       	sbrc	r3, 1
    1d42:	5e c0       	rjmp	.+188    	; 0x1e00 <branch_short_dispatch_reverse_func>
    1d44:	01 96       	adiw	r24, 0x01	; 1
    1d46:	8d 5f       	subi	r24, 0xFD	; 253
    1d48:	9f 4f       	sbci	r25, 0xFF	; 255
    1d4a:	64 d0       	rcall	.+200    	; 0x1e14 <fx_seek_to_pc>
    1d4c:	6e b4       	in	r6, 0x2e	; 46
    1d4e:	2e bc       	out	0x2e, r2	; 46
    1d50:	67 9c       	mul	r6, r7
    1d52:	f0 01       	movw	r30, r0
    1d54:	fe 5f       	subi	r31, 0xFE	; 254
    1d56:	09 94       	ijmp
    1d58:	00 00       	nop
    1d5a:	00 00       	nop
    1d5c:	00 00       	nop
    1d5e:	00 00       	nop

00001d60 <I_DB__BNE_S_p4>:
    1d60:	31 fc       	sbrc	r3, 1
    1d62:	4e c0       	rjmp	.+156    	; 0x1e00 <branch_short_dispatch_reverse_func>
    1d64:	01 96       	adiw	r24, 0x01	; 1
    1d66:	8c 5f       	subi	r24, 0xFC	; 252
    1d68:	9f 4f       	sbci	r25, 0xFF	; 255
    1d6a:	54 d0       	rcall	.+168    	; 0x1e14 <fx_seek_to_pc>
    1d6c:	6e b4       	in	r6, 0x2e	; 46
    1d6e:	2e bc       	out	0x2e, r2	; 46
    1d70:	67 9c       	mul	r6, r7
    1d72:	f0 01       	movw	r30, r0
    1d74:	fe 5f       	subi	r31, 0xFE	; 254
    1d76:	09 94       	ijmp
    1d78:	00 00       	nop
    1d7a:	00 00       	nop
    1d7c:	00 00       	nop
    1d7e:	00 00       	nop

00001d80 <I_DC__BNE_S_p5>:
    1d80:	31 fc       	sbrc	r3, 1
    1d82:	3e c0       	rjmp	.+124    	; 0x1e00 <branch_short_dispatch_reverse_func>
    1d84:	01 96       	adiw	r24, 0x01	; 1
    1d86:	8b 5f       	subi	r24, 0xFB	; 251
    1d88:	9f 4f       	sbci	r25, 0xFF	; 255
    1d8a:	44 d0       	rcall	.+136    	; 0x1e14 <fx_seek_to_pc>
    1d8c:	6e b4       	in	r6, 0x2e	; 46
    1d8e:	2e bc       	out	0x2e, r2	; 46
    1d90:	67 9c       	mul	r6, r7
    1d92:	f0 01       	movw	r30, r0
    1d94:	fe 5f       	subi	r31, 0xFE	; 254
    1d96:	09 94       	ijmp
    1d98:	00 00       	nop
    1d9a:	00 00       	nop
    1d9c:	00 00       	nop
    1d9e:	00 00       	nop

00001da0 <I_DD__BNE_S_p6>:
    1da0:	31 fc       	sbrc	r3, 1
    1da2:	2e c0       	rjmp	.+92     	; 0x1e00 <branch_short_dispatch_reverse_func>
    1da4:	01 96       	adiw	r24, 0x01	; 1
    1da6:	8a 5f       	subi	r24, 0xFA	; 250
    1da8:	9f 4f       	sbci	r25, 0xFF	; 255
    1daa:	34 d0       	rcall	.+104    	; 0x1e14 <fx_seek_to_pc>
    1dac:	6e b4       	in	r6, 0x2e	; 46
    1dae:	2e bc       	out	0x2e, r2	; 46
    1db0:	67 9c       	mul	r6, r7
    1db2:	f0 01       	movw	r30, r0
    1db4:	fe 5f       	subi	r31, 0xFE	; 254
    1db6:	09 94       	ijmp
    1db8:	00 00       	nop
    1dba:	00 00       	nop
    1dbc:	00 00       	nop
    1dbe:	00 00       	nop

00001dc0 <I_DE__BNE_S_p7>:
    1dc0:	31 fc       	sbrc	r3, 1
    1dc2:	1e c0       	rjmp	.+60     	; 0x1e00 <branch_short_dispatch_reverse_func>
    1dc4:	01 96       	adiw	r24, 0x01	; 1
    1dc6:	89 5f       	subi	r24, 0xF9	; 249
    1dc8:	9f 4f       	sbci	r25, 0xFF	; 255
    1dca:	24 d0       	rcall	.+72     	; 0x1e14 <fx_seek_to_pc>
    1dcc:	6e b4       	in	r6, 0x2e	; 46
    1dce:	2e bc       	out	0x2e, r2	; 46
    1dd0:	67 9c       	mul	r6, r7
    1dd2:	f0 01       	movw	r30, r0
    1dd4:	fe 5f       	subi	r31, 0xFE	; 254
    1dd6:	09 94       	ijmp
    1dd8:	00 00       	nop
    1dda:	00 00       	nop
    1ddc:	00 00       	nop
    1dde:	00 00       	nop

00001de0 <I_DF__BNE_S_p8>:
    1de0:	31 fc       	sbrc	r3, 1
    1de2:	0e c0       	rjmp	.+28     	; 0x1e00 <branch_short_dispatch_reverse_func>
    1de4:	01 96       	adiw	r24, 0x01	; 1
    1de6:	88 5f       	subi	r24, 0xF8	; 248
    1de8:	9f 4f       	sbci	r25, 0xFF	; 255
    1dea:	14 d0       	rcall	.+40     	; 0x1e14 <fx_seek_to_pc>
    1dec:	6e b4       	in	r6, 0x2e	; 46
    1dee:	2e bc       	out	0x2e, r2	; 46
    1df0:	67 9c       	mul	r6, r7
    1df2:	f0 01       	movw	r30, r0
    1df4:	fe 5f       	subi	r31, 0xFE	; 254
    1df6:	09 94       	ijmp
    1df8:	00 00       	nop
    1dfa:	00 00       	nop
    1dfc:	00 00       	nop
    1dfe:	00 00       	nop

00001e00 <branch_short_dispatch_reverse_func>:
    1e00:	00 c0       	rjmp	.+0      	; 0x1e02 <branch_short_dispatch_reverse_func+0x2>
    1e02:	01 96       	adiw	r24, 0x01	; 1
    1e04:	f8 94       	cli
    1e06:	2e bc       	out	0x2e, r2	; 46
    1e08:	6e b4       	in	r6, 0x2e	; 46
    1e0a:	78 94       	sei
    1e0c:	67 9c       	mul	r6, r7
    1e0e:	f0 01       	movw	r30, r0
    1e10:	fe 5f       	subi	r31, 0xFE	; 254
    1e12:	09 94       	ijmp

00001e14 <fx_seek_to_pc>:
    1e14:	5a 9a       	sbi	0x0b, 2	; 11
    1e16:	e3 e0       	ldi	r30, 0x03	; 3
    1e18:	5a 98       	cbi	0x0b, 2	; 11
    1e1a:	ee bd       	out	0x2e, r30	; 46
    1e1c:	a0 91 00 0a 	lds	r26, 0x0A00	; 0x800a00 <_edata+0x900>
    1e20:	a9 0f       	add	r26, r25
    1e22:	b0 91 01 0a 	lds	r27, 0x0A01	; 0x800a01 <_edata+0x901>
    1e26:	ea b5       	in	r30, 0x2a	; 42
    1e28:	be 1f       	adc	r27, r30
    1e2a:	0b d0       	rcall	.+22     	; 0x1e42 <fx_seek_delay_10>
    1e2c:	be bd       	out	0x2e, r27	; 46
    1e2e:	08 d0       	rcall	.+16     	; 0x1e40 <fx_seek_delay_17>
    1e30:	ae bd       	out	0x2e, r26	; 46
    1e32:	06 d0       	rcall	.+12     	; 0x1e40 <fx_seek_delay_17>
    1e34:	8e bd       	out	0x2e, r24	; 46
    1e36:	04 d0       	rcall	.+8      	; 0x1e40 <fx_seek_delay_17>
    1e38:	2e bc       	out	0x2e, r2	; 46
    1e3a:	00 c0       	rjmp	.+0      	; 0x1e3c <fx_seek_to_pc+0x28>
    1e3c:	02 d0       	rcall	.+4      	; 0x1e42 <fx_seek_delay_10>
    1e3e:	08 95       	ret

00001e40 <fx_seek_delay_17>:
    1e40:	01 d0       	rcall	.+2      	; 0x1e44 <fx_seek_delay_7>

00001e42 <fx_seek_delay_10>:
    1e42:	c8 95       	lpm

00001e44 <fx_seek_delay_7>:
    1e44:	08 95       	ret
