
build\interp.elf:     file format elf32-avr

SYMBOL TABLE:
00000000 l    d  .text	00000000 .text
000000ae l       .text	00000000 reset_handler
000000ac l       .text	00000000 default_isr
00000108 l       .text	00000000 fx_init_delay_17
00000106 l       .text	00000000 reset_loop
0000010a l       .text	00000000 fx_init_delay_14
0000010c l       .text	00000000 fx_init_delay_7
00000200 l       .text	00000000 I_00__CLR_c0
0000021c l       .text	00000000 I_01__MOV_c0_c1
00000238 l       .text	00000000 I_02__MOV_c0_c2
00000254 l       .text	00000000 I_03__MOV_c0_c3
00000270 l       .text	00000000 I_04__MOV_c1_c0
0000028c l       .text	00000000 I_05__CLR_c1
000002a8 l       .text	00000000 I_06__MOV_c1_c2
000002c4 l       .text	00000000 I_07__MOV_c1_c3
000002e0 l       .text	00000000 I_08__MOV_c2_c0
000002fc l       .text	00000000 I_09__MOV_c2_c1
00000318 l       .text	00000000 I_0A__CLR_c2
00000334 l       .text	00000000 I_0B__MOV_c2_c3
00000350 l       .text	00000000 I_0C__MOV_c3_c0
0000036c l       .text	00000000 I_0D__MOV_c3_c1
00000388 l       .text	00000000 I_0E__MOV_c3_c2
000003a4 l       .text	00000000 I_0F__CLR_c3
000003c0 l       .text	00000000 I_10__LD8_c0_c0
000003dc l       .text	00000000 I_11__LD8_c0_c1
000003f8 l       .text	00000000 I_12__LD8_c0_c2
00000414 l       .text	00000000 I_13__LD8_c0_c3
00000430 l       .text	00000000 I_14__LD8_c1_c0
0000044c l       .text	00000000 I_15__LD8_c1_c1
00000468 l       .text	00000000 I_16__LD8_c1_c2
00000484 l       .text	00000000 I_17__LD8_c1_c3
000004a0 l       .text	00000000 I_18__LD8_c2_c0
000004bc l       .text	00000000 I_19__LD8_c2_c1
000004d8 l       .text	00000000 I_1A__LD8_c2_c2
000004f4 l       .text	00000000 I_1B__LD8_c2_c3
00000510 l       .text	00000000 I_1C__LD8_c3_c0
0000052c l       .text	00000000 I_1D__LD8_c3_c1
00000548 l       .text	00000000 I_1E__LD8_c3_c2
00000564 l       .text	00000000 I_1F__LD8_c3_c3
00000580 l       .text	00000000 I_20__ST8_c0_c0
0000059c l       .text	00000000 I_21__ST8_c0_c1
000005b8 l       .text	00000000 I_22__ST8_c0_c2
000005d4 l       .text	00000000 I_23__ST8_c0_c3
000005f0 l       .text	00000000 I_24__ST8_c1_c0
0000060c l       .text	00000000 I_25__ST8_c1_c1
00000628 l       .text	00000000 I_26__ST8_c1_c2
00000644 l       .text	00000000 I_27__ST8_c1_c3
00000660 l       .text	00000000 I_28__ST8_c2_c0
0000067c l       .text	00000000 I_29__ST8_c2_c1
00000698 l       .text	00000000 I_2A__ST8_c2_c2
000006b4 l       .text	00000000 I_2B__ST8_c2_c3
000006d0 l       .text	00000000 I_2C__ST8_c3_c0
000006ec l       .text	00000000 I_2D__ST8_c3_c1
00000708 l       .text	00000000 I_2E__ST8_c3_c2
00000724 l       .text	00000000 I_2F__ST8_c3_c3
00000740 l       .text	00000000 I_30__LD16_c0_c0
0000075c l       .text	00000000 I_31__LD16_c0_c1
00000778 l       .text	00000000 I_32__LD16_c0_c2
00000794 l       .text	00000000 I_33__LD16_c0_c3
000007b0 l       .text	00000000 I_34__LD16_c1_c0
000007cc l       .text	00000000 I_35__LD16_c1_c1
000007e8 l       .text	00000000 I_36__LD16_c1_c2
00000804 l       .text	00000000 I_37__LD16_c1_c3
00000820 l       .text	00000000 I_38__LD16_c2_c0
0000083c l       .text	00000000 I_39__LD16_c2_c1
00000858 l       .text	00000000 I_3A__LD16_c2_c2
00000874 l       .text	00000000 I_3B__LD16_c2_c3
00000890 l       .text	00000000 I_3C__LD16_c3_c0
000008ac l       .text	00000000 I_3D__LD16_c3_c1
000008c8 l       .text	00000000 I_3E__LD16_c3_c2
000008e4 l       .text	00000000 I_3F__LD16_c3_c3
00000900 l       .text	00000000 I_40__ST16_c0_c0
0000091c l       .text	00000000 I_41__ST16_c0_c1
00000938 l       .text	00000000 I_42__ST16_c0_c2
00000954 l       .text	00000000 I_43__ST16_c0_c3
00000970 l       .text	00000000 I_44__ST16_c1_c0
0000098c l       .text	00000000 I_45__ST16_c1_c1
000009a8 l       .text	00000000 I_46__ST16_c1_c2
000009c4 l       .text	00000000 I_47__ST16_c1_c3
000009e0 l       .text	00000000 I_48__ST16_c2_c0
000009fc l       .text	00000000 I_49__ST16_c2_c1
00000a18 l       .text	00000000 I_4A__ST16_c2_c2
00000a34 l       .text	00000000 I_4B__ST16_c2_c3
00000a50 l       .text	00000000 I_4C__ST16_c3_c0
00000a6c l       .text	00000000 I_4D__ST16_c3_c1
00000a88 l       .text	00000000 I_4E__ST16_c3_c2
00000aa4 l       .text	00000000 I_4F__ST16_c3_c3
00000ac0 l       .text	00000000 I_50__RESERVED
00000adc l       .text	00000000 I_51__RESERVED
00000af8 l       .text	00000000 I_52__RESERVED
00000b14 l       .text	00000000 I_53__RESERVED
00000b30 l       .text	00000000 I_54__RESERVED
00000b4c l       .text	00000000 I_55__RESERVED
00000b68 l       .text	00000000 I_56__RESERVED
00000b84 l       .text	00000000 I_57__RESERVED
00000ba0 l       .text	00000000 I_58__RESERVED
00000bbc l       .text	00000000 I_59__RESERVED
00000bd8 l       .text	00000000 I_5A__RESERVED
00000bf4 l       .text	00000000 I_5B__RESERVED
00000c10 l       .text	00000000 I_5C__RESERVED
00000c2c l       .text	00000000 I_5D__RESERVED
00000c48 l       .text	00000000 I_5E__RESERVED
00000c64 l       .text	00000000 I_5F__RESERVED
00000c80 l       .text	00000000 I_60__RESERVED
00000c9c l       .text	00000000 I_61__RESERVED
00000cb8 l       .text	00000000 I_62__RESERVED
00000cd4 l       .text	00000000 I_63__RESERVED
00000cf0 l       .text	00000000 I_64__RESERVED
00000d0c l       .text	00000000 I_65__RESERVED
00000d28 l       .text	00000000 I_66__RESERVED
00000d44 l       .text	00000000 I_67__RESERVED
00000d60 l       .text	00000000 I_68__RESERVED
00000d7c l       .text	00000000 I_69__RESERVED
00000d98 l       .text	00000000 I_6A__RESERVED
00000db4 l       .text	00000000 I_6B__RESERVED
00000dd0 l       .text	00000000 I_6C__RESERVED
00000dec l       .text	00000000 I_6D__RESERVED
00000e08 l       .text	00000000 I_6E__RESERVED
00000e24 l       .text	00000000 I_6F__RESERVED
00000e40 l       .text	00000000 I_70__PUSH16_r0
00000e5c l       .text	00000000 I_71__PUSH16_r1
00000e78 l       .text	00000000 I_72__PUSH16_r2
00000e94 l       .text	00000000 I_73__PUSH16_r3
00000eb0 l       .text	00000000 I_74__PUSH16_r4
00000ecc l       .text	00000000 I_75__PUSH16_r5
00000ee8 l       .text	00000000 I_76__PUSH16_r6
00000f04 l       .text	00000000 I_77__PUSH16_r7
00000f20 l       .text	00000000 I_78__POP16_r0
00000f3c l       .text	00000000 I_79__POP16_r1
00000f58 l       .text	00000000 I_7A__POP16_r2
00000f74 l       .text	00000000 I_7B__POP16_r3
00000f90 l       .text	00000000 I_7C__POP16_r4
00000fac l       .text	00000000 I_7D__POP16_r5
00000fc8 l       .text	00000000 I_7E__POP16_r6
00000fe4 l       .text	00000000 I_7F__POP16_r7
00001000 l       .text	00000000 I_80__ADD_c0_c0
0000101c l       .text	00000000 I_81__ADD_c0_c1
00001038 l       .text	00000000 I_82__ADD_c0_c2
00001054 l       .text	00000000 I_83__ADD_c0_c3
00001070 l       .text	00000000 I_84__ADD_c1_c0
0000108c l       .text	00000000 I_85__ADD_c1_c1
000010a8 l       .text	00000000 I_86__ADD_c1_c2
000010c4 l       .text	00000000 I_87__ADD_c1_c3
000010e0 l       .text	00000000 I_88__ADD_c2_c0
000010fc l       .text	00000000 I_89__ADD_c2_c1
00001118 l       .text	00000000 I_8A__ADD_c2_c2
00001134 l       .text	00000000 I_8B__ADD_c2_c3
00001150 l       .text	00000000 I_8C__ADD_c3_c0
0000116c l       .text	00000000 I_8D__ADD_c3_c1
00001188 l       .text	00000000 I_8E__ADD_c3_c2
000011a4 l       .text	00000000 I_8F__ADD_c3_c3
000011c0 l       .text	00000000 I_90__SUB_c0_c0
000011dc l       .text	00000000 I_91__SUB_c0_c1
000011f8 l       .text	00000000 I_92__SUB_c0_c2
00001214 l       .text	00000000 I_93__SUB_c0_c3
00001230 l       .text	00000000 I_94__SUB_c1_c0
0000124c l       .text	00000000 I_95__SUB_c1_c1
00001268 l       .text	00000000 I_96__SUB_c1_c2
00001284 l       .text	00000000 I_97__SUB_c1_c3
000012a0 l       .text	00000000 I_98__SUB_c2_c0
000012bc l       .text	00000000 I_99__SUB_c2_c1
000012d8 l       .text	00000000 I_9A__SUB_c2_c2
000012f4 l       .text	00000000 I_9B__SUB_c2_c3
00001310 l       .text	00000000 I_9C__SUB_c3_c0
0000132c l       .text	00000000 I_9D__SUB_c3_c1
00001348 l       .text	00000000 I_9E__SUB_c3_c2
00001364 l       .text	00000000 I_9F__SUB_c3_c3
00001380 l       .text	00000000 I_A0__TST16_c0
0000139c l       .text	00000000 I_A1__CMP16_c0_c1
000013b8 l       .text	00000000 I_A2__CMP16_c0_c2
000013d4 l       .text	00000000 I_A3__CMP16_c0_c3
000013f0 l       .text	00000000 I_A4__CMP16_c1_c0
0000140c l       .text	00000000 I_A5__TST16_c1
00001428 l       .text	00000000 I_A6__CMP16_c1_c2
00001444 l       .text	00000000 I_A7__CMP16_c1_c3
00001460 l       .text	00000000 I_A8__CMP16_c2_c0
0000147c l       .text	00000000 I_A9__CMP16_c2_c1
00001498 l       .text	00000000 I_AA__TST16_c2
000014b4 l       .text	00000000 I_AB__CMP16_c2_c3
000014d0 l       .text	00000000 I_AC__CMP16_c3_c0
000014ec l       .text	00000000 I_AD__CMP16_c3_c1
00001508 l       .text	00000000 I_AE__CMP16_c3_c2
00001524 l       .text	00000000 I_AF__TST16_c3
00001540 l       .text	00000000 I_B0__TST8_c0
0000155c l       .text	00000000 I_B1__CMP8_c0_c1
00001578 l       .text	00000000 I_B2__CMP8_c0_c2
00001594 l       .text	00000000 I_B3__CMP8_c0_c3
000015b0 l       .text	00000000 I_B4__CMP8_c1_c0
000015cc l       .text	00000000 I_B5__TST8_c1
000015e8 l       .text	00000000 I_B6__CMP8_c1_c2
00001604 l       .text	00000000 I_B7__CMP8_c1_c3
00001620 l       .text	00000000 I_B8__CMP8_c2_c0
0000163c l       .text	00000000 I_B9__CMP8_c2_c1
00001658 l       .text	00000000 I_BA__TST8_c2
00001674 l       .text	00000000 I_BB__CMP8_c2_c3
00001690 l       .text	00000000 I_BC__CMP8_c3_c0
000016ac l       .text	00000000 I_BD__CMP8_c3_c1
000016c8 l       .text	00000000 I_BE__CMP8_c3_c2
000016e4 l       .text	00000000 I_BF__TST8_c3
00001700 l       .text	00000000 I_C0__BEQ_S_m8
00001e04 l       .text	00000000 branch_short_dispatch_reverse_func
00001e86 l       .text	00000000 fx_seek_to_pc
0000171c l       .text	00000000 I_C1__BEQ_S_m7
00001738 l       .text	00000000 I_C2__BEQ_S_m6
00001754 l       .text	00000000 I_C3__BEQ_S_m5
00001770 l       .text	00000000 I_C4__BEQ_S_m4
0000178c l       .text	00000000 I_C5__BEQ_S_m3
000017a8 l       .text	00000000 I_C6__BEQ_S_m2
000017c4 l       .text	00000000 I_C7__BEQ_S_m1
000017e0 l       .text	00000000 I_C8__BEQ_S_p1
000017fc l       .text	00000000 I_C9__BEQ_S_p2
00001818 l       .text	00000000 I_CA__BEQ_S_p3
00001834 l       .text	00000000 I_CB__BEQ_S_p4
00001850 l       .text	00000000 I_CC__BEQ_S_p5
0000186c l       .text	00000000 I_CD__BEQ_S_p6
00001888 l       .text	00000000 I_CE__BEQ_S_p7
000018a4 l       .text	00000000 I_CF__BEQ_S_p8
000018c0 l       .text	00000000 I_D0__BNE_S_m8
000018dc l       .text	00000000 I_D1__BNE_S_m7
000018f8 l       .text	00000000 I_D2__BNE_S_m6
00001914 l       .text	00000000 I_D3__BNE_S_m5
00001930 l       .text	00000000 I_D4__BNE_S_m4
0000194c l       .text	00000000 I_D5__BNE_S_m3
00001968 l       .text	00000000 I_D6__BNE_S_m2
00001984 l       .text	00000000 I_D7__BNE_S_m1
000019a0 l       .text	00000000 I_D8__BNE_S_p1
000019bc l       .text	00000000 I_D9__BNE_S_p2
000019d8 l       .text	00000000 I_DA__BNE_S_p3
000019f4 l       .text	00000000 I_DB__BNE_S_p4
00001a10 l       .text	00000000 I_DC__BNE_S_p5
00001a2c l       .text	00000000 I_DD__BNE_S_p6
00001a48 l       .text	00000000 I_DE__BNE_S_p7
00001a64 l       .text	00000000 I_DF__BNE_S_p8
00001a80 l       .text	00000000 I_E0__INC16_r0
00001e78 l       .text	00000000 dispatch_func
00001a9c l       .text	00000000 I_E1__INC16_r1
00001ab8 l       .text	00000000 I_E2__INC16_r2
00001ad4 l       .text	00000000 I_E3__INC16_r3
00001af0 l       .text	00000000 I_E4__INC16_r4
00001b0c l       .text	00000000 I_E5__INC16_r5
00001b28 l       .text	00000000 I_E6__INC16_r6
00001b44 l       .text	00000000 I_E7__INC16_r7
00001b60 l       .text	00000000 I_E8__DEC16_r0
00001b7c l       .text	00000000 I_E9__DEC16_r1
00001b98 l       .text	00000000 I_EA__DEC16_r2
00001bb4 l       .text	00000000 I_EB__DEC16_r3
00001bd0 l       .text	00000000 I_EC__DEC16_r4
00001bec l       .text	00000000 I_ED__DEC16_r5
00001c08 l       .text	00000000 I_EE__DEC16_r6
00001c24 l       .text	00000000 I_EF__DEC16_r7
00001c40 l       .text	00000000 I_F0__LDI8_c0
00001e00 l       .text	00000000 ldi8_dispatch_reverse_func
00001c5c l       .text	00000000 I_F1__LDI8_c1
00001c78 l       .text	00000000 I_F2__LDI8_c2
00001c94 l       .text	00000000 I_F3__LDI8_c3
00001cb0 l       .text	00000000 I_F4__ext_alu_ctrl_sys_core
00001e18 l       .text	00000000 f4_extension_decode_func
00001ccc l       .text	00000000 I_F5__BREQ_rel8
00001e5a l       .text	00000000 branch_rel8_not_taken_func
00001e5e l       .text	00000000 branch_rel8_taken_func
00001ce8 l       .text	00000000 I_F6__BRNE_rel8
00001d04 l       .text	00000000 I_F7__BRULT_rel8
00001d20 l       .text	00000000 I_F8__BRUGE_rel8
00001d3c l       .text	00000000 I_F9__BRSLT_rel8
00001d58 l       .text	00000000 I_FA__BRSGE_rel8
00001d74 l       .text	00000000 I_FB__BRULE_rel8
00001d90 l       .text	00000000 I_FC__BRUGT_rel8
00001dac l       .text	00000000 I_FD__ext_memory_program
00001dc8 l       .text	00000000 I_FE__JMPF_CALLF
00001de4 l       .text	00000000 I_FF__RET
00001e06 l       .text	00000000 dispatch_reverse_func
00001e28 l       .text	00000000 f4_cmpi6_decode_func
00001e76 l       .text	00000000 unimplemented_instruction_func
00001eb6 l       .text	00000000 fx_seek_delay_7
00001eb4 l       .text	00000000 fx_seek_delay_10
00001eb2 l       .text	00000000 fx_seek_delay_17
000000e4 l       .text	00000000 .L11
000000ea l       .text	00000000 .L21
00001d8c l       .text	00000000 .L12
00001da8 l       .text	00000000 .L13
00000000 g       .text	00000000 __trampolines_start
00001eb8 g       .text	00000000 _etext
00000000 g       .text	00000000 __trampolines_end
00000000 g       .text	00000000 __dtors_end
00000000 g       .text	000000ac __vectors
00000000 g       .text	00000000 __ctors_start
00000000 g       .text	00000000 __dtors_start
00000000 g       .text	00000000 __ctors_end
00000200 g       .text	00000000 abvm_interp



Disassembly of section .text:

00000000 <__vectors>:
       0:	0c 94 57 00 	jmp	0xae	; 0xae <reset_handler>
       4:	0c 94 56 00 	jmp	0xac	; 0xac <default_isr>
       8:	0c 94 56 00 	jmp	0xac	; 0xac <default_isr>
       c:	0c 94 56 00 	jmp	0xac	; 0xac <default_isr>
      10:	0c 94 56 00 	jmp	0xac	; 0xac <default_isr>
      14:	0c 94 56 00 	jmp	0xac	; 0xac <default_isr>
      18:	0c 94 56 00 	jmp	0xac	; 0xac <default_isr>
      1c:	0c 94 56 00 	jmp	0xac	; 0xac <default_isr>
      20:	0c 94 56 00 	jmp	0xac	; 0xac <default_isr>
      24:	0c 94 56 00 	jmp	0xac	; 0xac <default_isr>
      28:	0c 94 56 00 	jmp	0xac	; 0xac <default_isr>
      2c:	0c 94 56 00 	jmp	0xac	; 0xac <default_isr>
      30:	0c 94 56 00 	jmp	0xac	; 0xac <default_isr>
      34:	0c 94 56 00 	jmp	0xac	; 0xac <default_isr>
      38:	0c 94 56 00 	jmp	0xac	; 0xac <default_isr>
      3c:	0c 94 56 00 	jmp	0xac	; 0xac <default_isr>
      40:	0c 94 56 00 	jmp	0xac	; 0xac <default_isr>
      44:	0c 94 56 00 	jmp	0xac	; 0xac <default_isr>
      48:	0c 94 56 00 	jmp	0xac	; 0xac <default_isr>
      4c:	0c 94 56 00 	jmp	0xac	; 0xac <default_isr>
      50:	0c 94 56 00 	jmp	0xac	; 0xac <default_isr>
      54:	0c 94 56 00 	jmp	0xac	; 0xac <default_isr>
      58:	0c 94 56 00 	jmp	0xac	; 0xac <default_isr>
      5c:	0c 94 56 00 	jmp	0xac	; 0xac <default_isr>
      60:	0c 94 56 00 	jmp	0xac	; 0xac <default_isr>
      64:	0c 94 56 00 	jmp	0xac	; 0xac <default_isr>
      68:	0c 94 56 00 	jmp	0xac	; 0xac <default_isr>
      6c:	0c 94 56 00 	jmp	0xac	; 0xac <default_isr>
      70:	0c 94 56 00 	jmp	0xac	; 0xac <default_isr>
      74:	0c 94 56 00 	jmp	0xac	; 0xac <default_isr>
      78:	0c 94 56 00 	jmp	0xac	; 0xac <default_isr>
      7c:	0c 94 56 00 	jmp	0xac	; 0xac <default_isr>
      80:	0c 94 56 00 	jmp	0xac	; 0xac <default_isr>
      84:	0c 94 56 00 	jmp	0xac	; 0xac <default_isr>
      88:	0c 94 56 00 	jmp	0xac	; 0xac <default_isr>
      8c:	0c 94 56 00 	jmp	0xac	; 0xac <default_isr>
      90:	0c 94 56 00 	jmp	0xac	; 0xac <default_isr>
      94:	0c 94 56 00 	jmp	0xac	; 0xac <default_isr>
      98:	0c 94 56 00 	jmp	0xac	; 0xac <default_isr>
      9c:	0c 94 56 00 	jmp	0xac	; 0xac <default_isr>
      a0:	0c 94 56 00 	jmp	0xac	; 0xac <default_isr>
      a4:	0c 94 56 00 	jmp	0xac	; 0xac <default_isr>
      a8:	0c 94 56 00 	jmp	0xac	; 0xac <default_isr>

000000ac <default_isr>:
      ac:	ff cf       	rjmp	.-2      	; 0xac <default_isr>

000000ae <reset_handler>:
      ae:	22 24       	eor	r2, r2
      b0:	ae e0       	ldi	r26, 0x0E	; 14
      b2:	7a 2e       	mov	r7, r26
      b4:	c0 e0       	ldi	r28, 0x00	; 0
      b6:	da e0       	ldi	r29, 0x0A	; 10
      b8:	33 24       	eor	r3, r3
      ba:	2a bc       	out	0x2a, r2	; 42
      bc:	2b bc       	out	0x2b, r2	; 43
      be:	a0 e5       	ldi	r26, 0x50	; 80
      c0:	ac bd       	out	0x2c, r26	; 44
      c2:	a1 e0       	ldi	r26, 0x01	; 1
      c4:	ad bd       	out	0x2d, r26	; 45
      c6:	5e 9a       	sbi	0x0b, 6	; 11
      c8:	e4 e1       	ldi	r30, 0x14	; 20
      ca:	f0 e0       	ldi	r31, 0x00	; 0
      cc:	a5 91       	lpm	r26, Z+
      ce:	b5 91       	lpm	r27, Z+
      d0:	05 90       	lpm	r0, Z+
      d2:	15 90       	lpm	r1, Z+
      d4:	a8 51       	subi	r26, 0x18	; 24
      d6:	b5 49       	sbci	r27, 0x95	; 149
      d8:	29 f4       	brne	.+10     	; 0xe4 <.L1^B1>
      da:	aa 27       	eor	r26, r26
      dc:	bb 27       	eor	r27, r27
      de:	44 24       	eor	r4, r4
      e0:	55 24       	eor	r5, r5
      e2:	03 c0       	rjmp	.+6      	; 0xea <.L2^B1>

000000e4 <.L1^B1>:
      e4:	32 96       	adiw	r30, 0x02	; 2
      e6:	45 90       	lpm	r4, Z+
      e8:	55 90       	lpm	r5, Z+

000000ea <.L2^B1>:
      ea:	a0 93 00 0a 	sts	0x0A00, r26	; 0x800a00 <_edata+0x900>
      ee:	b0 93 01 0a 	sts	0x0A01, r27	; 0x800a01 <_edata+0x901>
      f2:	40 92 02 0a 	sts	0x0A02, r4	; 0x800a02 <_edata+0x902>
      f6:	50 92 03 0a 	sts	0x0A03, r5	; 0x800a03 <_edata+0x903>
      fa:	5a 98       	cbi	0x0b, 2	; 11
      fc:	ab ea       	ldi	r26, 0xAB	; 171
      fe:	ae bd       	out	0x2e, r26	; 46
     100:	03 d0       	rcall	.+6      	; 0x108 <fx_init_delay_17>
     102:	5a 9a       	sbi	0x0b, 2	; 11
     104:	78 94       	sei

00000106 <reset_loop>:
     106:	ff cf       	rjmp	.-2      	; 0x106 <reset_loop>

00000108 <fx_init_delay_17>:
     108:	c8 95       	lpm

0000010a <fx_init_delay_14>:
     10a:	00 d0       	rcall	.+0      	; 0x10c <fx_init_delay_7>

0000010c <fx_init_delay_7>:
     10c:	08 95       	ret
     10e:	00 00       	nop
     110:	00 00       	nop
     112:	00 00       	nop
     114:	00 00       	nop
     116:	00 00       	nop
     118:	00 00       	nop
     11a:	00 00       	nop
     11c:	00 00       	nop
     11e:	00 00       	nop
     120:	00 00       	nop
     122:	00 00       	nop
     124:	00 00       	nop
     126:	00 00       	nop
     128:	00 00       	nop
     12a:	00 00       	nop
     12c:	00 00       	nop
     12e:	00 00       	nop
     130:	00 00       	nop
     132:	00 00       	nop
     134:	00 00       	nop
     136:	00 00       	nop
     138:	00 00       	nop
     13a:	00 00       	nop
     13c:	00 00       	nop
     13e:	00 00       	nop
     140:	00 00       	nop
     142:	00 00       	nop
     144:	00 00       	nop
     146:	00 00       	nop
     148:	00 00       	nop
     14a:	00 00       	nop
     14c:	00 00       	nop
     14e:	00 00       	nop
     150:	00 00       	nop
     152:	00 00       	nop
     154:	00 00       	nop
     156:	00 00       	nop
     158:	00 00       	nop
     15a:	00 00       	nop
     15c:	00 00       	nop
     15e:	00 00       	nop
     160:	00 00       	nop
     162:	00 00       	nop
     164:	00 00       	nop
     166:	00 00       	nop
     168:	00 00       	nop
     16a:	00 00       	nop
     16c:	00 00       	nop
     16e:	00 00       	nop
     170:	00 00       	nop
     172:	00 00       	nop
     174:	00 00       	nop
     176:	00 00       	nop
     178:	00 00       	nop
     17a:	00 00       	nop
     17c:	00 00       	nop
     17e:	00 00       	nop
     180:	00 00       	nop
     182:	00 00       	nop
     184:	00 00       	nop
     186:	00 00       	nop
     188:	00 00       	nop
     18a:	00 00       	nop
     18c:	00 00       	nop
     18e:	00 00       	nop
     190:	00 00       	nop
     192:	00 00       	nop
     194:	00 00       	nop
     196:	00 00       	nop
     198:	00 00       	nop
     19a:	00 00       	nop
     19c:	00 00       	nop
     19e:	00 00       	nop
     1a0:	00 00       	nop
     1a2:	00 00       	nop
     1a4:	00 00       	nop
     1a6:	00 00       	nop
     1a8:	00 00       	nop
     1aa:	00 00       	nop
     1ac:	00 00       	nop
     1ae:	00 00       	nop
     1b0:	00 00       	nop
     1b2:	00 00       	nop
     1b4:	00 00       	nop
     1b6:	00 00       	nop
     1b8:	00 00       	nop
     1ba:	00 00       	nop
     1bc:	00 00       	nop
     1be:	00 00       	nop
     1c0:	00 00       	nop
     1c2:	00 00       	nop
     1c4:	00 00       	nop
     1c6:	00 00       	nop
     1c8:	00 00       	nop
     1ca:	00 00       	nop
     1cc:	00 00       	nop
     1ce:	00 00       	nop
     1d0:	00 00       	nop
     1d2:	00 00       	nop
     1d4:	00 00       	nop
     1d6:	00 00       	nop
     1d8:	00 00       	nop
     1da:	00 00       	nop
     1dc:	00 00       	nop
     1de:	00 00       	nop
     1e0:	00 00       	nop
     1e2:	00 00       	nop
     1e4:	00 00       	nop
     1e6:	00 00       	nop
     1e8:	00 00       	nop
     1ea:	00 00       	nop
     1ec:	00 00       	nop
     1ee:	00 00       	nop
     1f0:	00 00       	nop
     1f2:	00 00       	nop
     1f4:	00 00       	nop
     1f6:	00 00       	nop
     1f8:	00 00       	nop
     1fa:	00 00       	nop
     1fc:	00 00       	nop
     1fe:	00 00       	nop

00000200 <abvm_interp>:
     200:	c8 95       	lpm
     202:	00 27       	eor	r16, r16
     204:	11 27       	eor	r17, r17
     206:	01 96       	adiw	r24, 0x01	; 1
     208:	f8 94       	cli
     20a:	2e bc       	out	0x2e, r2	; 46
     20c:	6e b4       	in	r6, 0x2e	; 46
     20e:	78 94       	sei
     210:	67 9c       	mul	r6, r7
     212:	f0 01       	movw	r30, r0
     214:	ff 5f       	subi	r31, 0xFF	; 255
     216:	09 94       	ijmp
     218:	00 00       	nop
     21a:	00 00       	nop

0000021c <I_01__MOV_c0_c1>:
     21c:	00 c0       	rjmp	.+0      	; 0x21e <I_01__MOV_c0_c1+0x2>
     21e:	00 c0       	rjmp	.+0      	; 0x220 <I_01__MOV_c0_c1+0x4>
     220:	89 01       	movw	r16, r18
     222:	01 96       	adiw	r24, 0x01	; 1
     224:	f8 94       	cli
     226:	2e bc       	out	0x2e, r2	; 46
     228:	6e b4       	in	r6, 0x2e	; 46
     22a:	78 94       	sei
     22c:	67 9c       	mul	r6, r7
     22e:	f0 01       	movw	r30, r0
     230:	ff 5f       	subi	r31, 0xFF	; 255
     232:	09 94       	ijmp
     234:	00 00       	nop
     236:	00 00       	nop

00000238 <I_02__MOV_c0_c2>:
     238:	00 c0       	rjmp	.+0      	; 0x23a <I_02__MOV_c0_c2+0x2>
     23a:	00 c0       	rjmp	.+0      	; 0x23c <I_02__MOV_c0_c2+0x4>
     23c:	8a 01       	movw	r16, r20
     23e:	01 96       	adiw	r24, 0x01	; 1
     240:	f8 94       	cli
     242:	2e bc       	out	0x2e, r2	; 46
     244:	6e b4       	in	r6, 0x2e	; 46
     246:	78 94       	sei
     248:	67 9c       	mul	r6, r7
     24a:	f0 01       	movw	r30, r0
     24c:	ff 5f       	subi	r31, 0xFF	; 255
     24e:	09 94       	ijmp
     250:	00 00       	nop
     252:	00 00       	nop

00000254 <I_03__MOV_c0_c3>:
     254:	00 c0       	rjmp	.+0      	; 0x256 <I_03__MOV_c0_c3+0x2>
     256:	00 c0       	rjmp	.+0      	; 0x258 <I_03__MOV_c0_c3+0x4>
     258:	8b 01       	movw	r16, r22
     25a:	01 96       	adiw	r24, 0x01	; 1
     25c:	f8 94       	cli
     25e:	2e bc       	out	0x2e, r2	; 46
     260:	6e b4       	in	r6, 0x2e	; 46
     262:	78 94       	sei
     264:	67 9c       	mul	r6, r7
     266:	f0 01       	movw	r30, r0
     268:	ff 5f       	subi	r31, 0xFF	; 255
     26a:	09 94       	ijmp
     26c:	00 00       	nop
     26e:	00 00       	nop

00000270 <I_04__MOV_c1_c0>:
     270:	00 c0       	rjmp	.+0      	; 0x272 <I_04__MOV_c1_c0+0x2>
     272:	00 c0       	rjmp	.+0      	; 0x274 <I_04__MOV_c1_c0+0x4>
     274:	98 01       	movw	r18, r16
     276:	01 96       	adiw	r24, 0x01	; 1
     278:	f8 94       	cli
     27a:	2e bc       	out	0x2e, r2	; 46
     27c:	6e b4       	in	r6, 0x2e	; 46
     27e:	78 94       	sei
     280:	67 9c       	mul	r6, r7
     282:	f0 01       	movw	r30, r0
     284:	ff 5f       	subi	r31, 0xFF	; 255
     286:	09 94       	ijmp
     288:	00 00       	nop
     28a:	00 00       	nop

0000028c <I_05__CLR_c1>:
     28c:	c8 95       	lpm
     28e:	22 27       	eor	r18, r18
     290:	33 27       	eor	r19, r19
     292:	01 96       	adiw	r24, 0x01	; 1
     294:	f8 94       	cli
     296:	2e bc       	out	0x2e, r2	; 46
     298:	6e b4       	in	r6, 0x2e	; 46
     29a:	78 94       	sei
     29c:	67 9c       	mul	r6, r7
     29e:	f0 01       	movw	r30, r0
     2a0:	ff 5f       	subi	r31, 0xFF	; 255
     2a2:	09 94       	ijmp
     2a4:	00 00       	nop
     2a6:	00 00       	nop

000002a8 <I_06__MOV_c1_c2>:
     2a8:	00 c0       	rjmp	.+0      	; 0x2aa <I_06__MOV_c1_c2+0x2>
     2aa:	00 c0       	rjmp	.+0      	; 0x2ac <I_06__MOV_c1_c2+0x4>
     2ac:	9a 01       	movw	r18, r20
     2ae:	01 96       	adiw	r24, 0x01	; 1
     2b0:	f8 94       	cli
     2b2:	2e bc       	out	0x2e, r2	; 46
     2b4:	6e b4       	in	r6, 0x2e	; 46
     2b6:	78 94       	sei
     2b8:	67 9c       	mul	r6, r7
     2ba:	f0 01       	movw	r30, r0
     2bc:	ff 5f       	subi	r31, 0xFF	; 255
     2be:	09 94       	ijmp
     2c0:	00 00       	nop
     2c2:	00 00       	nop

000002c4 <I_07__MOV_c1_c3>:
     2c4:	00 c0       	rjmp	.+0      	; 0x2c6 <I_07__MOV_c1_c3+0x2>
     2c6:	00 c0       	rjmp	.+0      	; 0x2c8 <I_07__MOV_c1_c3+0x4>
     2c8:	9b 01       	movw	r18, r22
     2ca:	01 96       	adiw	r24, 0x01	; 1
     2cc:	f8 94       	cli
     2ce:	2e bc       	out	0x2e, r2	; 46
     2d0:	6e b4       	in	r6, 0x2e	; 46
     2d2:	78 94       	sei
     2d4:	67 9c       	mul	r6, r7
     2d6:	f0 01       	movw	r30, r0
     2d8:	ff 5f       	subi	r31, 0xFF	; 255
     2da:	09 94       	ijmp
     2dc:	00 00       	nop
     2de:	00 00       	nop

000002e0 <I_08__MOV_c2_c0>:
     2e0:	00 c0       	rjmp	.+0      	; 0x2e2 <I_08__MOV_c2_c0+0x2>
     2e2:	00 c0       	rjmp	.+0      	; 0x2e4 <I_08__MOV_c2_c0+0x4>
     2e4:	a8 01       	movw	r20, r16
     2e6:	01 96       	adiw	r24, 0x01	; 1
     2e8:	f8 94       	cli
     2ea:	2e bc       	out	0x2e, r2	; 46
     2ec:	6e b4       	in	r6, 0x2e	; 46
     2ee:	78 94       	sei
     2f0:	67 9c       	mul	r6, r7
     2f2:	f0 01       	movw	r30, r0
     2f4:	ff 5f       	subi	r31, 0xFF	; 255
     2f6:	09 94       	ijmp
     2f8:	00 00       	nop
     2fa:	00 00       	nop

000002fc <I_09__MOV_c2_c1>:
     2fc:	00 c0       	rjmp	.+0      	; 0x2fe <I_09__MOV_c2_c1+0x2>
     2fe:	00 c0       	rjmp	.+0      	; 0x300 <I_09__MOV_c2_c1+0x4>
     300:	a9 01       	movw	r20, r18
     302:	01 96       	adiw	r24, 0x01	; 1
     304:	f8 94       	cli
     306:	2e bc       	out	0x2e, r2	; 46
     308:	6e b4       	in	r6, 0x2e	; 46
     30a:	78 94       	sei
     30c:	67 9c       	mul	r6, r7
     30e:	f0 01       	movw	r30, r0
     310:	ff 5f       	subi	r31, 0xFF	; 255
     312:	09 94       	ijmp
     314:	00 00       	nop
     316:	00 00       	nop

00000318 <I_0A__CLR_c2>:
     318:	c8 95       	lpm
     31a:	44 27       	eor	r20, r20
     31c:	55 27       	eor	r21, r21
     31e:	01 96       	adiw	r24, 0x01	; 1
     320:	f8 94       	cli
     322:	2e bc       	out	0x2e, r2	; 46
     324:	6e b4       	in	r6, 0x2e	; 46
     326:	78 94       	sei
     328:	67 9c       	mul	r6, r7
     32a:	f0 01       	movw	r30, r0
     32c:	ff 5f       	subi	r31, 0xFF	; 255
     32e:	09 94       	ijmp
     330:	00 00       	nop
     332:	00 00       	nop

00000334 <I_0B__MOV_c2_c3>:
     334:	00 c0       	rjmp	.+0      	; 0x336 <I_0B__MOV_c2_c3+0x2>
     336:	00 c0       	rjmp	.+0      	; 0x338 <I_0B__MOV_c2_c3+0x4>
     338:	ab 01       	movw	r20, r22
     33a:	01 96       	adiw	r24, 0x01	; 1
     33c:	f8 94       	cli
     33e:	2e bc       	out	0x2e, r2	; 46
     340:	6e b4       	in	r6, 0x2e	; 46
     342:	78 94       	sei
     344:	67 9c       	mul	r6, r7
     346:	f0 01       	movw	r30, r0
     348:	ff 5f       	subi	r31, 0xFF	; 255
     34a:	09 94       	ijmp
     34c:	00 00       	nop
     34e:	00 00       	nop

00000350 <I_0C__MOV_c3_c0>:
     350:	00 c0       	rjmp	.+0      	; 0x352 <I_0C__MOV_c3_c0+0x2>
     352:	00 c0       	rjmp	.+0      	; 0x354 <I_0C__MOV_c3_c0+0x4>
     354:	b8 01       	movw	r22, r16
     356:	01 96       	adiw	r24, 0x01	; 1
     358:	f8 94       	cli
     35a:	2e bc       	out	0x2e, r2	; 46
     35c:	6e b4       	in	r6, 0x2e	; 46
     35e:	78 94       	sei
     360:	67 9c       	mul	r6, r7
     362:	f0 01       	movw	r30, r0
     364:	ff 5f       	subi	r31, 0xFF	; 255
     366:	09 94       	ijmp
     368:	00 00       	nop
     36a:	00 00       	nop

0000036c <I_0D__MOV_c3_c1>:
     36c:	00 c0       	rjmp	.+0      	; 0x36e <I_0D__MOV_c3_c1+0x2>
     36e:	00 c0       	rjmp	.+0      	; 0x370 <I_0D__MOV_c3_c1+0x4>
     370:	b9 01       	movw	r22, r18
     372:	01 96       	adiw	r24, 0x01	; 1
     374:	f8 94       	cli
     376:	2e bc       	out	0x2e, r2	; 46
     378:	6e b4       	in	r6, 0x2e	; 46
     37a:	78 94       	sei
     37c:	67 9c       	mul	r6, r7
     37e:	f0 01       	movw	r30, r0
     380:	ff 5f       	subi	r31, 0xFF	; 255
     382:	09 94       	ijmp
     384:	00 00       	nop
     386:	00 00       	nop

00000388 <I_0E__MOV_c3_c2>:
     388:	00 c0       	rjmp	.+0      	; 0x38a <I_0E__MOV_c3_c2+0x2>
     38a:	00 c0       	rjmp	.+0      	; 0x38c <I_0E__MOV_c3_c2+0x4>
     38c:	ba 01       	movw	r22, r20
     38e:	01 96       	adiw	r24, 0x01	; 1
     390:	f8 94       	cli
     392:	2e bc       	out	0x2e, r2	; 46
     394:	6e b4       	in	r6, 0x2e	; 46
     396:	78 94       	sei
     398:	67 9c       	mul	r6, r7
     39a:	f0 01       	movw	r30, r0
     39c:	ff 5f       	subi	r31, 0xFF	; 255
     39e:	09 94       	ijmp
     3a0:	00 00       	nop
     3a2:	00 00       	nop

000003a4 <I_0F__CLR_c3>:
     3a4:	c8 95       	lpm
     3a6:	66 27       	eor	r22, r22
     3a8:	77 27       	eor	r23, r23
     3aa:	01 96       	adiw	r24, 0x01	; 1
     3ac:	f8 94       	cli
     3ae:	2e bc       	out	0x2e, r2	; 46
     3b0:	6e b4       	in	r6, 0x2e	; 46
     3b2:	78 94       	sei
     3b4:	67 9c       	mul	r6, r7
     3b6:	f0 01       	movw	r30, r0
     3b8:	ff 5f       	subi	r31, 0xFF	; 255
     3ba:	09 94       	ijmp
     3bc:	00 00       	nop
     3be:	00 00       	nop

000003c0 <I_10__LD8_c0_c0>:
     3c0:	00 00       	nop
     3c2:	d8 01       	movw	r26, r16
     3c4:	0c 91       	ld	r16, X
     3c6:	11 27       	eor	r17, r17
     3c8:	01 96       	adiw	r24, 0x01	; 1
     3ca:	f8 94       	cli
     3cc:	2e bc       	out	0x2e, r2	; 46
     3ce:	6e b4       	in	r6, 0x2e	; 46
     3d0:	78 94       	sei
     3d2:	67 9c       	mul	r6, r7
     3d4:	f0 01       	movw	r30, r0
     3d6:	ff 5f       	subi	r31, 0xFF	; 255
     3d8:	09 94       	ijmp
     3da:	00 00       	nop

000003dc <I_11__LD8_c0_c1>:
     3dc:	00 00       	nop
     3de:	d9 01       	movw	r26, r18
     3e0:	0c 91       	ld	r16, X
     3e2:	11 27       	eor	r17, r17
     3e4:	01 96       	adiw	r24, 0x01	; 1
     3e6:	f8 94       	cli
     3e8:	2e bc       	out	0x2e, r2	; 46
     3ea:	6e b4       	in	r6, 0x2e	; 46
     3ec:	78 94       	sei
     3ee:	67 9c       	mul	r6, r7
     3f0:	f0 01       	movw	r30, r0
     3f2:	ff 5f       	subi	r31, 0xFF	; 255
     3f4:	09 94       	ijmp
     3f6:	00 00       	nop

000003f8 <I_12__LD8_c0_c2>:
     3f8:	00 00       	nop
     3fa:	da 01       	movw	r26, r20
     3fc:	0c 91       	ld	r16, X
     3fe:	11 27       	eor	r17, r17
     400:	01 96       	adiw	r24, 0x01	; 1
     402:	f8 94       	cli
     404:	2e bc       	out	0x2e, r2	; 46
     406:	6e b4       	in	r6, 0x2e	; 46
     408:	78 94       	sei
     40a:	67 9c       	mul	r6, r7
     40c:	f0 01       	movw	r30, r0
     40e:	ff 5f       	subi	r31, 0xFF	; 255
     410:	09 94       	ijmp
     412:	00 00       	nop

00000414 <I_13__LD8_c0_c3>:
     414:	00 00       	nop
     416:	db 01       	movw	r26, r22
     418:	0c 91       	ld	r16, X
     41a:	11 27       	eor	r17, r17
     41c:	01 96       	adiw	r24, 0x01	; 1
     41e:	f8 94       	cli
     420:	2e bc       	out	0x2e, r2	; 46
     422:	6e b4       	in	r6, 0x2e	; 46
     424:	78 94       	sei
     426:	67 9c       	mul	r6, r7
     428:	f0 01       	movw	r30, r0
     42a:	ff 5f       	subi	r31, 0xFF	; 255
     42c:	09 94       	ijmp
     42e:	00 00       	nop

00000430 <I_14__LD8_c1_c0>:
     430:	00 00       	nop
     432:	d8 01       	movw	r26, r16
     434:	2c 91       	ld	r18, X
     436:	33 27       	eor	r19, r19
     438:	01 96       	adiw	r24, 0x01	; 1
     43a:	f8 94       	cli
     43c:	2e bc       	out	0x2e, r2	; 46
     43e:	6e b4       	in	r6, 0x2e	; 46
     440:	78 94       	sei
     442:	67 9c       	mul	r6, r7
     444:	f0 01       	movw	r30, r0
     446:	ff 5f       	subi	r31, 0xFF	; 255
     448:	09 94       	ijmp
     44a:	00 00       	nop

0000044c <I_15__LD8_c1_c1>:
     44c:	00 00       	nop
     44e:	d9 01       	movw	r26, r18
     450:	2c 91       	ld	r18, X
     452:	33 27       	eor	r19, r19
     454:	01 96       	adiw	r24, 0x01	; 1
     456:	f8 94       	cli
     458:	2e bc       	out	0x2e, r2	; 46
     45a:	6e b4       	in	r6, 0x2e	; 46
     45c:	78 94       	sei
     45e:	67 9c       	mul	r6, r7
     460:	f0 01       	movw	r30, r0
     462:	ff 5f       	subi	r31, 0xFF	; 255
     464:	09 94       	ijmp
     466:	00 00       	nop

00000468 <I_16__LD8_c1_c2>:
     468:	00 00       	nop
     46a:	da 01       	movw	r26, r20
     46c:	2c 91       	ld	r18, X
     46e:	33 27       	eor	r19, r19
     470:	01 96       	adiw	r24, 0x01	; 1
     472:	f8 94       	cli
     474:	2e bc       	out	0x2e, r2	; 46
     476:	6e b4       	in	r6, 0x2e	; 46
     478:	78 94       	sei
     47a:	67 9c       	mul	r6, r7
     47c:	f0 01       	movw	r30, r0
     47e:	ff 5f       	subi	r31, 0xFF	; 255
     480:	09 94       	ijmp
     482:	00 00       	nop

00000484 <I_17__LD8_c1_c3>:
     484:	00 00       	nop
     486:	db 01       	movw	r26, r22
     488:	2c 91       	ld	r18, X
     48a:	33 27       	eor	r19, r19
     48c:	01 96       	adiw	r24, 0x01	; 1
     48e:	f8 94       	cli
     490:	2e bc       	out	0x2e, r2	; 46
     492:	6e b4       	in	r6, 0x2e	; 46
     494:	78 94       	sei
     496:	67 9c       	mul	r6, r7
     498:	f0 01       	movw	r30, r0
     49a:	ff 5f       	subi	r31, 0xFF	; 255
     49c:	09 94       	ijmp
     49e:	00 00       	nop

000004a0 <I_18__LD8_c2_c0>:
     4a0:	00 00       	nop
     4a2:	d8 01       	movw	r26, r16
     4a4:	4c 91       	ld	r20, X
     4a6:	55 27       	eor	r21, r21
     4a8:	01 96       	adiw	r24, 0x01	; 1
     4aa:	f8 94       	cli
     4ac:	2e bc       	out	0x2e, r2	; 46
     4ae:	6e b4       	in	r6, 0x2e	; 46
     4b0:	78 94       	sei
     4b2:	67 9c       	mul	r6, r7
     4b4:	f0 01       	movw	r30, r0
     4b6:	ff 5f       	subi	r31, 0xFF	; 255
     4b8:	09 94       	ijmp
     4ba:	00 00       	nop

000004bc <I_19__LD8_c2_c1>:
     4bc:	00 00       	nop
     4be:	d9 01       	movw	r26, r18
     4c0:	4c 91       	ld	r20, X
     4c2:	55 27       	eor	r21, r21
     4c4:	01 96       	adiw	r24, 0x01	; 1
     4c6:	f8 94       	cli
     4c8:	2e bc       	out	0x2e, r2	; 46
     4ca:	6e b4       	in	r6, 0x2e	; 46
     4cc:	78 94       	sei
     4ce:	67 9c       	mul	r6, r7
     4d0:	f0 01       	movw	r30, r0
     4d2:	ff 5f       	subi	r31, 0xFF	; 255
     4d4:	09 94       	ijmp
     4d6:	00 00       	nop

000004d8 <I_1A__LD8_c2_c2>:
     4d8:	00 00       	nop
     4da:	da 01       	movw	r26, r20
     4dc:	4c 91       	ld	r20, X
     4de:	55 27       	eor	r21, r21
     4e0:	01 96       	adiw	r24, 0x01	; 1
     4e2:	f8 94       	cli
     4e4:	2e bc       	out	0x2e, r2	; 46
     4e6:	6e b4       	in	r6, 0x2e	; 46
     4e8:	78 94       	sei
     4ea:	67 9c       	mul	r6, r7
     4ec:	f0 01       	movw	r30, r0
     4ee:	ff 5f       	subi	r31, 0xFF	; 255
     4f0:	09 94       	ijmp
     4f2:	00 00       	nop

000004f4 <I_1B__LD8_c2_c3>:
     4f4:	00 00       	nop
     4f6:	db 01       	movw	r26, r22
     4f8:	4c 91       	ld	r20, X
     4fa:	55 27       	eor	r21, r21
     4fc:	01 96       	adiw	r24, 0x01	; 1
     4fe:	f8 94       	cli
     500:	2e bc       	out	0x2e, r2	; 46
     502:	6e b4       	in	r6, 0x2e	; 46
     504:	78 94       	sei
     506:	67 9c       	mul	r6, r7
     508:	f0 01       	movw	r30, r0
     50a:	ff 5f       	subi	r31, 0xFF	; 255
     50c:	09 94       	ijmp
     50e:	00 00       	nop

00000510 <I_1C__LD8_c3_c0>:
     510:	00 00       	nop
     512:	d8 01       	movw	r26, r16
     514:	6c 91       	ld	r22, X
     516:	77 27       	eor	r23, r23
     518:	01 96       	adiw	r24, 0x01	; 1
     51a:	f8 94       	cli
     51c:	2e bc       	out	0x2e, r2	; 46
     51e:	6e b4       	in	r6, 0x2e	; 46
     520:	78 94       	sei
     522:	67 9c       	mul	r6, r7
     524:	f0 01       	movw	r30, r0
     526:	ff 5f       	subi	r31, 0xFF	; 255
     528:	09 94       	ijmp
     52a:	00 00       	nop

0000052c <I_1D__LD8_c3_c1>:
     52c:	00 00       	nop
     52e:	d9 01       	movw	r26, r18
     530:	6c 91       	ld	r22, X
     532:	77 27       	eor	r23, r23
     534:	01 96       	adiw	r24, 0x01	; 1
     536:	f8 94       	cli
     538:	2e bc       	out	0x2e, r2	; 46
     53a:	6e b4       	in	r6, 0x2e	; 46
     53c:	78 94       	sei
     53e:	67 9c       	mul	r6, r7
     540:	f0 01       	movw	r30, r0
     542:	ff 5f       	subi	r31, 0xFF	; 255
     544:	09 94       	ijmp
     546:	00 00       	nop

00000548 <I_1E__LD8_c3_c2>:
     548:	00 00       	nop
     54a:	da 01       	movw	r26, r20
     54c:	6c 91       	ld	r22, X
     54e:	77 27       	eor	r23, r23
     550:	01 96       	adiw	r24, 0x01	; 1
     552:	f8 94       	cli
     554:	2e bc       	out	0x2e, r2	; 46
     556:	6e b4       	in	r6, 0x2e	; 46
     558:	78 94       	sei
     55a:	67 9c       	mul	r6, r7
     55c:	f0 01       	movw	r30, r0
     55e:	ff 5f       	subi	r31, 0xFF	; 255
     560:	09 94       	ijmp
     562:	00 00       	nop

00000564 <I_1F__LD8_c3_c3>:
     564:	00 00       	nop
     566:	db 01       	movw	r26, r22
     568:	6c 91       	ld	r22, X
     56a:	77 27       	eor	r23, r23
     56c:	01 96       	adiw	r24, 0x01	; 1
     56e:	f8 94       	cli
     570:	2e bc       	out	0x2e, r2	; 46
     572:	6e b4       	in	r6, 0x2e	; 46
     574:	78 94       	sei
     576:	67 9c       	mul	r6, r7
     578:	f0 01       	movw	r30, r0
     57a:	ff 5f       	subi	r31, 0xFF	; 255
     57c:	09 94       	ijmp
     57e:	00 00       	nop

00000580 <I_20__ST8_c0_c0>:
     580:	00 c0       	rjmp	.+0      	; 0x582 <I_20__ST8_c0_c0+0x2>
     582:	d8 01       	movw	r26, r16
     584:	0c 93       	st	X, r16
     586:	01 96       	adiw	r24, 0x01	; 1
     588:	f8 94       	cli
     58a:	2e bc       	out	0x2e, r2	; 46
     58c:	6e b4       	in	r6, 0x2e	; 46
     58e:	78 94       	sei
     590:	67 9c       	mul	r6, r7
     592:	f0 01       	movw	r30, r0
     594:	ff 5f       	subi	r31, 0xFF	; 255
     596:	09 94       	ijmp
     598:	00 00       	nop
     59a:	00 00       	nop

0000059c <I_21__ST8_c0_c1>:
     59c:	00 c0       	rjmp	.+0      	; 0x59e <I_21__ST8_c0_c1+0x2>
     59e:	d8 01       	movw	r26, r16
     5a0:	2c 93       	st	X, r18
     5a2:	01 96       	adiw	r24, 0x01	; 1
     5a4:	f8 94       	cli
     5a6:	2e bc       	out	0x2e, r2	; 46
     5a8:	6e b4       	in	r6, 0x2e	; 46
     5aa:	78 94       	sei
     5ac:	67 9c       	mul	r6, r7
     5ae:	f0 01       	movw	r30, r0
     5b0:	ff 5f       	subi	r31, 0xFF	; 255
     5b2:	09 94       	ijmp
     5b4:	00 00       	nop
     5b6:	00 00       	nop

000005b8 <I_22__ST8_c0_c2>:
     5b8:	00 c0       	rjmp	.+0      	; 0x5ba <I_22__ST8_c0_c2+0x2>
     5ba:	d8 01       	movw	r26, r16
     5bc:	4c 93       	st	X, r20
     5be:	01 96       	adiw	r24, 0x01	; 1
     5c0:	f8 94       	cli
     5c2:	2e bc       	out	0x2e, r2	; 46
     5c4:	6e b4       	in	r6, 0x2e	; 46
     5c6:	78 94       	sei
     5c8:	67 9c       	mul	r6, r7
     5ca:	f0 01       	movw	r30, r0
     5cc:	ff 5f       	subi	r31, 0xFF	; 255
     5ce:	09 94       	ijmp
     5d0:	00 00       	nop
     5d2:	00 00       	nop

000005d4 <I_23__ST8_c0_c3>:
     5d4:	00 c0       	rjmp	.+0      	; 0x5d6 <I_23__ST8_c0_c3+0x2>
     5d6:	d8 01       	movw	r26, r16
     5d8:	6c 93       	st	X, r22
     5da:	01 96       	adiw	r24, 0x01	; 1
     5dc:	f8 94       	cli
     5de:	2e bc       	out	0x2e, r2	; 46
     5e0:	6e b4       	in	r6, 0x2e	; 46
     5e2:	78 94       	sei
     5e4:	67 9c       	mul	r6, r7
     5e6:	f0 01       	movw	r30, r0
     5e8:	ff 5f       	subi	r31, 0xFF	; 255
     5ea:	09 94       	ijmp
     5ec:	00 00       	nop
     5ee:	00 00       	nop

000005f0 <I_24__ST8_c1_c0>:
     5f0:	00 c0       	rjmp	.+0      	; 0x5f2 <I_24__ST8_c1_c0+0x2>
     5f2:	d9 01       	movw	r26, r18
     5f4:	0c 93       	st	X, r16
     5f6:	01 96       	adiw	r24, 0x01	; 1
     5f8:	f8 94       	cli
     5fa:	2e bc       	out	0x2e, r2	; 46
     5fc:	6e b4       	in	r6, 0x2e	; 46
     5fe:	78 94       	sei
     600:	67 9c       	mul	r6, r7
     602:	f0 01       	movw	r30, r0
     604:	ff 5f       	subi	r31, 0xFF	; 255
     606:	09 94       	ijmp
     608:	00 00       	nop
     60a:	00 00       	nop

0000060c <I_25__ST8_c1_c1>:
     60c:	00 c0       	rjmp	.+0      	; 0x60e <I_25__ST8_c1_c1+0x2>
     60e:	d9 01       	movw	r26, r18
     610:	2c 93       	st	X, r18
     612:	01 96       	adiw	r24, 0x01	; 1
     614:	f8 94       	cli
     616:	2e bc       	out	0x2e, r2	; 46
     618:	6e b4       	in	r6, 0x2e	; 46
     61a:	78 94       	sei
     61c:	67 9c       	mul	r6, r7
     61e:	f0 01       	movw	r30, r0
     620:	ff 5f       	subi	r31, 0xFF	; 255
     622:	09 94       	ijmp
     624:	00 00       	nop
     626:	00 00       	nop

00000628 <I_26__ST8_c1_c2>:
     628:	00 c0       	rjmp	.+0      	; 0x62a <I_26__ST8_c1_c2+0x2>
     62a:	d9 01       	movw	r26, r18
     62c:	4c 93       	st	X, r20
     62e:	01 96       	adiw	r24, 0x01	; 1
     630:	f8 94       	cli
     632:	2e bc       	out	0x2e, r2	; 46
     634:	6e b4       	in	r6, 0x2e	; 46
     636:	78 94       	sei
     638:	67 9c       	mul	r6, r7
     63a:	f0 01       	movw	r30, r0
     63c:	ff 5f       	subi	r31, 0xFF	; 255
     63e:	09 94       	ijmp
     640:	00 00       	nop
     642:	00 00       	nop

00000644 <I_27__ST8_c1_c3>:
     644:	00 c0       	rjmp	.+0      	; 0x646 <I_27__ST8_c1_c3+0x2>
     646:	d9 01       	movw	r26, r18
     648:	6c 93       	st	X, r22
     64a:	01 96       	adiw	r24, 0x01	; 1
     64c:	f8 94       	cli
     64e:	2e bc       	out	0x2e, r2	; 46
     650:	6e b4       	in	r6, 0x2e	; 46
     652:	78 94       	sei
     654:	67 9c       	mul	r6, r7
     656:	f0 01       	movw	r30, r0
     658:	ff 5f       	subi	r31, 0xFF	; 255
     65a:	09 94       	ijmp
     65c:	00 00       	nop
     65e:	00 00       	nop

00000660 <I_28__ST8_c2_c0>:
     660:	00 c0       	rjmp	.+0      	; 0x662 <I_28__ST8_c2_c0+0x2>
     662:	da 01       	movw	r26, r20
     664:	0c 93       	st	X, r16
     666:	01 96       	adiw	r24, 0x01	; 1
     668:	f8 94       	cli
     66a:	2e bc       	out	0x2e, r2	; 46
     66c:	6e b4       	in	r6, 0x2e	; 46
     66e:	78 94       	sei
     670:	67 9c       	mul	r6, r7
     672:	f0 01       	movw	r30, r0
     674:	ff 5f       	subi	r31, 0xFF	; 255
     676:	09 94       	ijmp
     678:	00 00       	nop
     67a:	00 00       	nop

0000067c <I_29__ST8_c2_c1>:
     67c:	00 c0       	rjmp	.+0      	; 0x67e <I_29__ST8_c2_c1+0x2>
     67e:	da 01       	movw	r26, r20
     680:	2c 93       	st	X, r18
     682:	01 96       	adiw	r24, 0x01	; 1
     684:	f8 94       	cli
     686:	2e bc       	out	0x2e, r2	; 46
     688:	6e b4       	in	r6, 0x2e	; 46
     68a:	78 94       	sei
     68c:	67 9c       	mul	r6, r7
     68e:	f0 01       	movw	r30, r0
     690:	ff 5f       	subi	r31, 0xFF	; 255
     692:	09 94       	ijmp
     694:	00 00       	nop
     696:	00 00       	nop

00000698 <I_2A__ST8_c2_c2>:
     698:	00 c0       	rjmp	.+0      	; 0x69a <I_2A__ST8_c2_c2+0x2>
     69a:	da 01       	movw	r26, r20
     69c:	4c 93       	st	X, r20
     69e:	01 96       	adiw	r24, 0x01	; 1
     6a0:	f8 94       	cli
     6a2:	2e bc       	out	0x2e, r2	; 46
     6a4:	6e b4       	in	r6, 0x2e	; 46
     6a6:	78 94       	sei
     6a8:	67 9c       	mul	r6, r7
     6aa:	f0 01       	movw	r30, r0
     6ac:	ff 5f       	subi	r31, 0xFF	; 255
     6ae:	09 94       	ijmp
     6b0:	00 00       	nop
     6b2:	00 00       	nop

000006b4 <I_2B__ST8_c2_c3>:
     6b4:	00 c0       	rjmp	.+0      	; 0x6b6 <I_2B__ST8_c2_c3+0x2>
     6b6:	da 01       	movw	r26, r20
     6b8:	6c 93       	st	X, r22
     6ba:	01 96       	adiw	r24, 0x01	; 1
     6bc:	f8 94       	cli
     6be:	2e bc       	out	0x2e, r2	; 46
     6c0:	6e b4       	in	r6, 0x2e	; 46
     6c2:	78 94       	sei
     6c4:	67 9c       	mul	r6, r7
     6c6:	f0 01       	movw	r30, r0
     6c8:	ff 5f       	subi	r31, 0xFF	; 255
     6ca:	09 94       	ijmp
     6cc:	00 00       	nop
     6ce:	00 00       	nop

000006d0 <I_2C__ST8_c3_c0>:
     6d0:	00 c0       	rjmp	.+0      	; 0x6d2 <I_2C__ST8_c3_c0+0x2>
     6d2:	db 01       	movw	r26, r22
     6d4:	0c 93       	st	X, r16
     6d6:	01 96       	adiw	r24, 0x01	; 1
     6d8:	f8 94       	cli
     6da:	2e bc       	out	0x2e, r2	; 46
     6dc:	6e b4       	in	r6, 0x2e	; 46
     6de:	78 94       	sei
     6e0:	67 9c       	mul	r6, r7
     6e2:	f0 01       	movw	r30, r0
     6e4:	ff 5f       	subi	r31, 0xFF	; 255
     6e6:	09 94       	ijmp
     6e8:	00 00       	nop
     6ea:	00 00       	nop

000006ec <I_2D__ST8_c3_c1>:
     6ec:	00 c0       	rjmp	.+0      	; 0x6ee <I_2D__ST8_c3_c1+0x2>
     6ee:	db 01       	movw	r26, r22
     6f0:	2c 93       	st	X, r18
     6f2:	01 96       	adiw	r24, 0x01	; 1
     6f4:	f8 94       	cli
     6f6:	2e bc       	out	0x2e, r2	; 46
     6f8:	6e b4       	in	r6, 0x2e	; 46
     6fa:	78 94       	sei
     6fc:	67 9c       	mul	r6, r7
     6fe:	f0 01       	movw	r30, r0
     700:	ff 5f       	subi	r31, 0xFF	; 255
     702:	09 94       	ijmp
     704:	00 00       	nop
     706:	00 00       	nop

00000708 <I_2E__ST8_c3_c2>:
     708:	00 c0       	rjmp	.+0      	; 0x70a <I_2E__ST8_c3_c2+0x2>
     70a:	db 01       	movw	r26, r22
     70c:	4c 93       	st	X, r20
     70e:	01 96       	adiw	r24, 0x01	; 1
     710:	f8 94       	cli
     712:	2e bc       	out	0x2e, r2	; 46
     714:	6e b4       	in	r6, 0x2e	; 46
     716:	78 94       	sei
     718:	67 9c       	mul	r6, r7
     71a:	f0 01       	movw	r30, r0
     71c:	ff 5f       	subi	r31, 0xFF	; 255
     71e:	09 94       	ijmp
     720:	00 00       	nop
     722:	00 00       	nop

00000724 <I_2F__ST8_c3_c3>:
     724:	00 c0       	rjmp	.+0      	; 0x726 <I_2F__ST8_c3_c3+0x2>
     726:	db 01       	movw	r26, r22
     728:	6c 93       	st	X, r22
     72a:	01 96       	adiw	r24, 0x01	; 1
     72c:	f8 94       	cli
     72e:	2e bc       	out	0x2e, r2	; 46
     730:	6e b4       	in	r6, 0x2e	; 46
     732:	78 94       	sei
     734:	67 9c       	mul	r6, r7
     736:	f0 01       	movw	r30, r0
     738:	ff 5f       	subi	r31, 0xFF	; 255
     73a:	09 94       	ijmp
     73c:	00 00       	nop
     73e:	00 00       	nop

00000740 <I_30__LD16_c0_c0>:
     740:	d8 01       	movw	r26, r16
     742:	0d 91       	ld	r16, X+
     744:	1c 91       	ld	r17, X
     746:	01 96       	adiw	r24, 0x01	; 1
     748:	f8 94       	cli
     74a:	2e bc       	out	0x2e, r2	; 46
     74c:	6e b4       	in	r6, 0x2e	; 46
     74e:	78 94       	sei
     750:	67 9c       	mul	r6, r7
     752:	f0 01       	movw	r30, r0
     754:	ff 5f       	subi	r31, 0xFF	; 255
     756:	09 94       	ijmp
     758:	00 00       	nop
     75a:	00 00       	nop

0000075c <I_31__LD16_c0_c1>:
     75c:	d9 01       	movw	r26, r18
     75e:	0d 91       	ld	r16, X+
     760:	1c 91       	ld	r17, X
     762:	01 96       	adiw	r24, 0x01	; 1
     764:	f8 94       	cli
     766:	2e bc       	out	0x2e, r2	; 46
     768:	6e b4       	in	r6, 0x2e	; 46
     76a:	78 94       	sei
     76c:	67 9c       	mul	r6, r7
     76e:	f0 01       	movw	r30, r0
     770:	ff 5f       	subi	r31, 0xFF	; 255
     772:	09 94       	ijmp
     774:	00 00       	nop
     776:	00 00       	nop

00000778 <I_32__LD16_c0_c2>:
     778:	da 01       	movw	r26, r20
     77a:	0d 91       	ld	r16, X+
     77c:	1c 91       	ld	r17, X
     77e:	01 96       	adiw	r24, 0x01	; 1
     780:	f8 94       	cli
     782:	2e bc       	out	0x2e, r2	; 46
     784:	6e b4       	in	r6, 0x2e	; 46
     786:	78 94       	sei
     788:	67 9c       	mul	r6, r7
     78a:	f0 01       	movw	r30, r0
     78c:	ff 5f       	subi	r31, 0xFF	; 255
     78e:	09 94       	ijmp
     790:	00 00       	nop
     792:	00 00       	nop

00000794 <I_33__LD16_c0_c3>:
     794:	db 01       	movw	r26, r22
     796:	0d 91       	ld	r16, X+
     798:	1c 91       	ld	r17, X
     79a:	01 96       	adiw	r24, 0x01	; 1
     79c:	f8 94       	cli
     79e:	2e bc       	out	0x2e, r2	; 46
     7a0:	6e b4       	in	r6, 0x2e	; 46
     7a2:	78 94       	sei
     7a4:	67 9c       	mul	r6, r7
     7a6:	f0 01       	movw	r30, r0
     7a8:	ff 5f       	subi	r31, 0xFF	; 255
     7aa:	09 94       	ijmp
     7ac:	00 00       	nop
     7ae:	00 00       	nop

000007b0 <I_34__LD16_c1_c0>:
     7b0:	d8 01       	movw	r26, r16
     7b2:	2d 91       	ld	r18, X+
     7b4:	3c 91       	ld	r19, X
     7b6:	01 96       	adiw	r24, 0x01	; 1
     7b8:	f8 94       	cli
     7ba:	2e bc       	out	0x2e, r2	; 46
     7bc:	6e b4       	in	r6, 0x2e	; 46
     7be:	78 94       	sei
     7c0:	67 9c       	mul	r6, r7
     7c2:	f0 01       	movw	r30, r0
     7c4:	ff 5f       	subi	r31, 0xFF	; 255
     7c6:	09 94       	ijmp
     7c8:	00 00       	nop
     7ca:	00 00       	nop

000007cc <I_35__LD16_c1_c1>:
     7cc:	d9 01       	movw	r26, r18
     7ce:	2d 91       	ld	r18, X+
     7d0:	3c 91       	ld	r19, X
     7d2:	01 96       	adiw	r24, 0x01	; 1
     7d4:	f8 94       	cli
     7d6:	2e bc       	out	0x2e, r2	; 46
     7d8:	6e b4       	in	r6, 0x2e	; 46
     7da:	78 94       	sei
     7dc:	67 9c       	mul	r6, r7
     7de:	f0 01       	movw	r30, r0
     7e0:	ff 5f       	subi	r31, 0xFF	; 255
     7e2:	09 94       	ijmp
     7e4:	00 00       	nop
     7e6:	00 00       	nop

000007e8 <I_36__LD16_c1_c2>:
     7e8:	da 01       	movw	r26, r20
     7ea:	2d 91       	ld	r18, X+
     7ec:	3c 91       	ld	r19, X
     7ee:	01 96       	adiw	r24, 0x01	; 1
     7f0:	f8 94       	cli
     7f2:	2e bc       	out	0x2e, r2	; 46
     7f4:	6e b4       	in	r6, 0x2e	; 46
     7f6:	78 94       	sei
     7f8:	67 9c       	mul	r6, r7
     7fa:	f0 01       	movw	r30, r0
     7fc:	ff 5f       	subi	r31, 0xFF	; 255
     7fe:	09 94       	ijmp
     800:	00 00       	nop
     802:	00 00       	nop

00000804 <I_37__LD16_c1_c3>:
     804:	db 01       	movw	r26, r22
     806:	2d 91       	ld	r18, X+
     808:	3c 91       	ld	r19, X
     80a:	01 96       	adiw	r24, 0x01	; 1
     80c:	f8 94       	cli
     80e:	2e bc       	out	0x2e, r2	; 46
     810:	6e b4       	in	r6, 0x2e	; 46
     812:	78 94       	sei
     814:	67 9c       	mul	r6, r7
     816:	f0 01       	movw	r30, r0
     818:	ff 5f       	subi	r31, 0xFF	; 255
     81a:	09 94       	ijmp
     81c:	00 00       	nop
     81e:	00 00       	nop

00000820 <I_38__LD16_c2_c0>:
     820:	d8 01       	movw	r26, r16
     822:	4d 91       	ld	r20, X+
     824:	5c 91       	ld	r21, X
     826:	01 96       	adiw	r24, 0x01	; 1
     828:	f8 94       	cli
     82a:	2e bc       	out	0x2e, r2	; 46
     82c:	6e b4       	in	r6, 0x2e	; 46
     82e:	78 94       	sei
     830:	67 9c       	mul	r6, r7
     832:	f0 01       	movw	r30, r0
     834:	ff 5f       	subi	r31, 0xFF	; 255
     836:	09 94       	ijmp
     838:	00 00       	nop
     83a:	00 00       	nop

0000083c <I_39__LD16_c2_c1>:
     83c:	d9 01       	movw	r26, r18
     83e:	4d 91       	ld	r20, X+
     840:	5c 91       	ld	r21, X
     842:	01 96       	adiw	r24, 0x01	; 1
     844:	f8 94       	cli
     846:	2e bc       	out	0x2e, r2	; 46
     848:	6e b4       	in	r6, 0x2e	; 46
     84a:	78 94       	sei
     84c:	67 9c       	mul	r6, r7
     84e:	f0 01       	movw	r30, r0
     850:	ff 5f       	subi	r31, 0xFF	; 255
     852:	09 94       	ijmp
     854:	00 00       	nop
     856:	00 00       	nop

00000858 <I_3A__LD16_c2_c2>:
     858:	da 01       	movw	r26, r20
     85a:	4d 91       	ld	r20, X+
     85c:	5c 91       	ld	r21, X
     85e:	01 96       	adiw	r24, 0x01	; 1
     860:	f8 94       	cli
     862:	2e bc       	out	0x2e, r2	; 46
     864:	6e b4       	in	r6, 0x2e	; 46
     866:	78 94       	sei
     868:	67 9c       	mul	r6, r7
     86a:	f0 01       	movw	r30, r0
     86c:	ff 5f       	subi	r31, 0xFF	; 255
     86e:	09 94       	ijmp
     870:	00 00       	nop
     872:	00 00       	nop

00000874 <I_3B__LD16_c2_c3>:
     874:	db 01       	movw	r26, r22
     876:	4d 91       	ld	r20, X+
     878:	5c 91       	ld	r21, X
     87a:	01 96       	adiw	r24, 0x01	; 1
     87c:	f8 94       	cli
     87e:	2e bc       	out	0x2e, r2	; 46
     880:	6e b4       	in	r6, 0x2e	; 46
     882:	78 94       	sei
     884:	67 9c       	mul	r6, r7
     886:	f0 01       	movw	r30, r0
     888:	ff 5f       	subi	r31, 0xFF	; 255
     88a:	09 94       	ijmp
     88c:	00 00       	nop
     88e:	00 00       	nop

00000890 <I_3C__LD16_c3_c0>:
     890:	d8 01       	movw	r26, r16
     892:	6d 91       	ld	r22, X+
     894:	7c 91       	ld	r23, X
     896:	01 96       	adiw	r24, 0x01	; 1
     898:	f8 94       	cli
     89a:	2e bc       	out	0x2e, r2	; 46
     89c:	6e b4       	in	r6, 0x2e	; 46
     89e:	78 94       	sei
     8a0:	67 9c       	mul	r6, r7
     8a2:	f0 01       	movw	r30, r0
     8a4:	ff 5f       	subi	r31, 0xFF	; 255
     8a6:	09 94       	ijmp
     8a8:	00 00       	nop
     8aa:	00 00       	nop

000008ac <I_3D__LD16_c3_c1>:
     8ac:	d9 01       	movw	r26, r18
     8ae:	6d 91       	ld	r22, X+
     8b0:	7c 91       	ld	r23, X
     8b2:	01 96       	adiw	r24, 0x01	; 1
     8b4:	f8 94       	cli
     8b6:	2e bc       	out	0x2e, r2	; 46
     8b8:	6e b4       	in	r6, 0x2e	; 46
     8ba:	78 94       	sei
     8bc:	67 9c       	mul	r6, r7
     8be:	f0 01       	movw	r30, r0
     8c0:	ff 5f       	subi	r31, 0xFF	; 255
     8c2:	09 94       	ijmp
     8c4:	00 00       	nop
     8c6:	00 00       	nop

000008c8 <I_3E__LD16_c3_c2>:
     8c8:	da 01       	movw	r26, r20
     8ca:	6d 91       	ld	r22, X+
     8cc:	7c 91       	ld	r23, X
     8ce:	01 96       	adiw	r24, 0x01	; 1
     8d0:	f8 94       	cli
     8d2:	2e bc       	out	0x2e, r2	; 46
     8d4:	6e b4       	in	r6, 0x2e	; 46
     8d6:	78 94       	sei
     8d8:	67 9c       	mul	r6, r7
     8da:	f0 01       	movw	r30, r0
     8dc:	ff 5f       	subi	r31, 0xFF	; 255
     8de:	09 94       	ijmp
     8e0:	00 00       	nop
     8e2:	00 00       	nop

000008e4 <I_3F__LD16_c3_c3>:
     8e4:	db 01       	movw	r26, r22
     8e6:	6d 91       	ld	r22, X+
     8e8:	7c 91       	ld	r23, X
     8ea:	01 96       	adiw	r24, 0x01	; 1
     8ec:	f8 94       	cli
     8ee:	2e bc       	out	0x2e, r2	; 46
     8f0:	6e b4       	in	r6, 0x2e	; 46
     8f2:	78 94       	sei
     8f4:	67 9c       	mul	r6, r7
     8f6:	f0 01       	movw	r30, r0
     8f8:	ff 5f       	subi	r31, 0xFF	; 255
     8fa:	09 94       	ijmp
     8fc:	00 00       	nop
     8fe:	00 00       	nop

00000900 <I_40__ST16_c0_c0>:
     900:	d8 01       	movw	r26, r16
     902:	0d 93       	st	X+, r16
     904:	1c 93       	st	X, r17
     906:	01 96       	adiw	r24, 0x01	; 1
     908:	f8 94       	cli
     90a:	2e bc       	out	0x2e, r2	; 46
     90c:	6e b4       	in	r6, 0x2e	; 46
     90e:	78 94       	sei
     910:	67 9c       	mul	r6, r7
     912:	f0 01       	movw	r30, r0
     914:	ff 5f       	subi	r31, 0xFF	; 255
     916:	09 94       	ijmp
     918:	00 00       	nop
     91a:	00 00       	nop

0000091c <I_41__ST16_c0_c1>:
     91c:	d8 01       	movw	r26, r16
     91e:	2d 93       	st	X+, r18
     920:	3c 93       	st	X, r19
     922:	01 96       	adiw	r24, 0x01	; 1
     924:	f8 94       	cli
     926:	2e bc       	out	0x2e, r2	; 46
     928:	6e b4       	in	r6, 0x2e	; 46
     92a:	78 94       	sei
     92c:	67 9c       	mul	r6, r7
     92e:	f0 01       	movw	r30, r0
     930:	ff 5f       	subi	r31, 0xFF	; 255
     932:	09 94       	ijmp
     934:	00 00       	nop
     936:	00 00       	nop

00000938 <I_42__ST16_c0_c2>:
     938:	d8 01       	movw	r26, r16
     93a:	4d 93       	st	X+, r20
     93c:	5c 93       	st	X, r21
     93e:	01 96       	adiw	r24, 0x01	; 1
     940:	f8 94       	cli
     942:	2e bc       	out	0x2e, r2	; 46
     944:	6e b4       	in	r6, 0x2e	; 46
     946:	78 94       	sei
     948:	67 9c       	mul	r6, r7
     94a:	f0 01       	movw	r30, r0
     94c:	ff 5f       	subi	r31, 0xFF	; 255
     94e:	09 94       	ijmp
     950:	00 00       	nop
     952:	00 00       	nop

00000954 <I_43__ST16_c0_c3>:
     954:	d8 01       	movw	r26, r16
     956:	6d 93       	st	X+, r22
     958:	7c 93       	st	X, r23
     95a:	01 96       	adiw	r24, 0x01	; 1
     95c:	f8 94       	cli
     95e:	2e bc       	out	0x2e, r2	; 46
     960:	6e b4       	in	r6, 0x2e	; 46
     962:	78 94       	sei
     964:	67 9c       	mul	r6, r7
     966:	f0 01       	movw	r30, r0
     968:	ff 5f       	subi	r31, 0xFF	; 255
     96a:	09 94       	ijmp
     96c:	00 00       	nop
     96e:	00 00       	nop

00000970 <I_44__ST16_c1_c0>:
     970:	d9 01       	movw	r26, r18
     972:	0d 93       	st	X+, r16
     974:	1c 93       	st	X, r17
     976:	01 96       	adiw	r24, 0x01	; 1
     978:	f8 94       	cli
     97a:	2e bc       	out	0x2e, r2	; 46
     97c:	6e b4       	in	r6, 0x2e	; 46
     97e:	78 94       	sei
     980:	67 9c       	mul	r6, r7
     982:	f0 01       	movw	r30, r0
     984:	ff 5f       	subi	r31, 0xFF	; 255
     986:	09 94       	ijmp
     988:	00 00       	nop
     98a:	00 00       	nop

0000098c <I_45__ST16_c1_c1>:
     98c:	d9 01       	movw	r26, r18
     98e:	2d 93       	st	X+, r18
     990:	3c 93       	st	X, r19
     992:	01 96       	adiw	r24, 0x01	; 1
     994:	f8 94       	cli
     996:	2e bc       	out	0x2e, r2	; 46
     998:	6e b4       	in	r6, 0x2e	; 46
     99a:	78 94       	sei
     99c:	67 9c       	mul	r6, r7
     99e:	f0 01       	movw	r30, r0
     9a0:	ff 5f       	subi	r31, 0xFF	; 255
     9a2:	09 94       	ijmp
     9a4:	00 00       	nop
     9a6:	00 00       	nop

000009a8 <I_46__ST16_c1_c2>:
     9a8:	d9 01       	movw	r26, r18
     9aa:	4d 93       	st	X+, r20
     9ac:	5c 93       	st	X, r21
     9ae:	01 96       	adiw	r24, 0x01	; 1
     9b0:	f8 94       	cli
     9b2:	2e bc       	out	0x2e, r2	; 46
     9b4:	6e b4       	in	r6, 0x2e	; 46
     9b6:	78 94       	sei
     9b8:	67 9c       	mul	r6, r7
     9ba:	f0 01       	movw	r30, r0
     9bc:	ff 5f       	subi	r31, 0xFF	; 255
     9be:	09 94       	ijmp
     9c0:	00 00       	nop
     9c2:	00 00       	nop

000009c4 <I_47__ST16_c1_c3>:
     9c4:	d9 01       	movw	r26, r18
     9c6:	6d 93       	st	X+, r22
     9c8:	7c 93       	st	X, r23
     9ca:	01 96       	adiw	r24, 0x01	; 1
     9cc:	f8 94       	cli
     9ce:	2e bc       	out	0x2e, r2	; 46
     9d0:	6e b4       	in	r6, 0x2e	; 46
     9d2:	78 94       	sei
     9d4:	67 9c       	mul	r6, r7
     9d6:	f0 01       	movw	r30, r0
     9d8:	ff 5f       	subi	r31, 0xFF	; 255
     9da:	09 94       	ijmp
     9dc:	00 00       	nop
     9de:	00 00       	nop

000009e0 <I_48__ST16_c2_c0>:
     9e0:	da 01       	movw	r26, r20
     9e2:	0d 93       	st	X+, r16
     9e4:	1c 93       	st	X, r17
     9e6:	01 96       	adiw	r24, 0x01	; 1
     9e8:	f8 94       	cli
     9ea:	2e bc       	out	0x2e, r2	; 46
     9ec:	6e b4       	in	r6, 0x2e	; 46
     9ee:	78 94       	sei
     9f0:	67 9c       	mul	r6, r7
     9f2:	f0 01       	movw	r30, r0
     9f4:	ff 5f       	subi	r31, 0xFF	; 255
     9f6:	09 94       	ijmp
     9f8:	00 00       	nop
     9fa:	00 00       	nop

000009fc <I_49__ST16_c2_c1>:
     9fc:	da 01       	movw	r26, r20
     9fe:	2d 93       	st	X+, r18
     a00:	3c 93       	st	X, r19
     a02:	01 96       	adiw	r24, 0x01	; 1
     a04:	f8 94       	cli
     a06:	2e bc       	out	0x2e, r2	; 46
     a08:	6e b4       	in	r6, 0x2e	; 46
     a0a:	78 94       	sei
     a0c:	67 9c       	mul	r6, r7
     a0e:	f0 01       	movw	r30, r0
     a10:	ff 5f       	subi	r31, 0xFF	; 255
     a12:	09 94       	ijmp
     a14:	00 00       	nop
     a16:	00 00       	nop

00000a18 <I_4A__ST16_c2_c2>:
     a18:	da 01       	movw	r26, r20
     a1a:	4d 93       	st	X+, r20
     a1c:	5c 93       	st	X, r21
     a1e:	01 96       	adiw	r24, 0x01	; 1
     a20:	f8 94       	cli
     a22:	2e bc       	out	0x2e, r2	; 46
     a24:	6e b4       	in	r6, 0x2e	; 46
     a26:	78 94       	sei
     a28:	67 9c       	mul	r6, r7
     a2a:	f0 01       	movw	r30, r0
     a2c:	ff 5f       	subi	r31, 0xFF	; 255
     a2e:	09 94       	ijmp
     a30:	00 00       	nop
     a32:	00 00       	nop

00000a34 <I_4B__ST16_c2_c3>:
     a34:	da 01       	movw	r26, r20
     a36:	6d 93       	st	X+, r22
     a38:	7c 93       	st	X, r23
     a3a:	01 96       	adiw	r24, 0x01	; 1
     a3c:	f8 94       	cli
     a3e:	2e bc       	out	0x2e, r2	; 46
     a40:	6e b4       	in	r6, 0x2e	; 46
     a42:	78 94       	sei
     a44:	67 9c       	mul	r6, r7
     a46:	f0 01       	movw	r30, r0
     a48:	ff 5f       	subi	r31, 0xFF	; 255
     a4a:	09 94       	ijmp
     a4c:	00 00       	nop
     a4e:	00 00       	nop

00000a50 <I_4C__ST16_c3_c0>:
     a50:	db 01       	movw	r26, r22
     a52:	0d 93       	st	X+, r16
     a54:	1c 93       	st	X, r17
     a56:	01 96       	adiw	r24, 0x01	; 1
     a58:	f8 94       	cli
     a5a:	2e bc       	out	0x2e, r2	; 46
     a5c:	6e b4       	in	r6, 0x2e	; 46
     a5e:	78 94       	sei
     a60:	67 9c       	mul	r6, r7
     a62:	f0 01       	movw	r30, r0
     a64:	ff 5f       	subi	r31, 0xFF	; 255
     a66:	09 94       	ijmp
     a68:	00 00       	nop
     a6a:	00 00       	nop

00000a6c <I_4D__ST16_c3_c1>:
     a6c:	db 01       	movw	r26, r22
     a6e:	2d 93       	st	X+, r18
     a70:	3c 93       	st	X, r19
     a72:	01 96       	adiw	r24, 0x01	; 1
     a74:	f8 94       	cli
     a76:	2e bc       	out	0x2e, r2	; 46
     a78:	6e b4       	in	r6, 0x2e	; 46
     a7a:	78 94       	sei
     a7c:	67 9c       	mul	r6, r7
     a7e:	f0 01       	movw	r30, r0
     a80:	ff 5f       	subi	r31, 0xFF	; 255
     a82:	09 94       	ijmp
     a84:	00 00       	nop
     a86:	00 00       	nop

00000a88 <I_4E__ST16_c3_c2>:
     a88:	db 01       	movw	r26, r22
     a8a:	4d 93       	st	X+, r20
     a8c:	5c 93       	st	X, r21
     a8e:	01 96       	adiw	r24, 0x01	; 1
     a90:	f8 94       	cli
     a92:	2e bc       	out	0x2e, r2	; 46
     a94:	6e b4       	in	r6, 0x2e	; 46
     a96:	78 94       	sei
     a98:	67 9c       	mul	r6, r7
     a9a:	f0 01       	movw	r30, r0
     a9c:	ff 5f       	subi	r31, 0xFF	; 255
     a9e:	09 94       	ijmp
     aa0:	00 00       	nop
     aa2:	00 00       	nop

00000aa4 <I_4F__ST16_c3_c3>:
     aa4:	db 01       	movw	r26, r22
     aa6:	6d 93       	st	X+, r22
     aa8:	7c 93       	st	X, r23
     aaa:	01 96       	adiw	r24, 0x01	; 1
     aac:	f8 94       	cli
     aae:	2e bc       	out	0x2e, r2	; 46
     ab0:	6e b4       	in	r6, 0x2e	; 46
     ab2:	78 94       	sei
     ab4:	67 9c       	mul	r6, r7
     ab6:	f0 01       	movw	r30, r0
     ab8:	ff 5f       	subi	r31, 0xFF	; 255
     aba:	09 94       	ijmp
     abc:	00 00       	nop
     abe:	00 00       	nop

00000ac0 <I_50__RESERVED>:
     ac0:	ff cf       	rjmp	.-2      	; 0xac0 <I_50__RESERVED>
     ac2:	00 00       	nop
     ac4:	00 00       	nop
     ac6:	00 00       	nop
     ac8:	00 00       	nop
     aca:	00 00       	nop
     acc:	00 00       	nop
     ace:	00 00       	nop
     ad0:	00 00       	nop
     ad2:	00 00       	nop
     ad4:	00 00       	nop
     ad6:	00 00       	nop
     ad8:	00 00       	nop
     ada:	00 00       	nop

00000adc <I_51__RESERVED>:
     adc:	ff cf       	rjmp	.-2      	; 0xadc <I_51__RESERVED>
     ade:	00 00       	nop
     ae0:	00 00       	nop
     ae2:	00 00       	nop
     ae4:	00 00       	nop
     ae6:	00 00       	nop
     ae8:	00 00       	nop
     aea:	00 00       	nop
     aec:	00 00       	nop
     aee:	00 00       	nop
     af0:	00 00       	nop
     af2:	00 00       	nop
     af4:	00 00       	nop
     af6:	00 00       	nop

00000af8 <I_52__RESERVED>:
     af8:	ff cf       	rjmp	.-2      	; 0xaf8 <I_52__RESERVED>
     afa:	00 00       	nop
     afc:	00 00       	nop
     afe:	00 00       	nop
     b00:	00 00       	nop
     b02:	00 00       	nop
     b04:	00 00       	nop
     b06:	00 00       	nop
     b08:	00 00       	nop
     b0a:	00 00       	nop
     b0c:	00 00       	nop
     b0e:	00 00       	nop
     b10:	00 00       	nop
     b12:	00 00       	nop

00000b14 <I_53__RESERVED>:
     b14:	ff cf       	rjmp	.-2      	; 0xb14 <I_53__RESERVED>
     b16:	00 00       	nop
     b18:	00 00       	nop
     b1a:	00 00       	nop
     b1c:	00 00       	nop
     b1e:	00 00       	nop
     b20:	00 00       	nop
     b22:	00 00       	nop
     b24:	00 00       	nop
     b26:	00 00       	nop
     b28:	00 00       	nop
     b2a:	00 00       	nop
     b2c:	00 00       	nop
     b2e:	00 00       	nop

00000b30 <I_54__RESERVED>:
     b30:	ff cf       	rjmp	.-2      	; 0xb30 <I_54__RESERVED>
     b32:	00 00       	nop
     b34:	00 00       	nop
     b36:	00 00       	nop
     b38:	00 00       	nop
     b3a:	00 00       	nop
     b3c:	00 00       	nop
     b3e:	00 00       	nop
     b40:	00 00       	nop
     b42:	00 00       	nop
     b44:	00 00       	nop
     b46:	00 00       	nop
     b48:	00 00       	nop
     b4a:	00 00       	nop

00000b4c <I_55__RESERVED>:
     b4c:	ff cf       	rjmp	.-2      	; 0xb4c <I_55__RESERVED>
     b4e:	00 00       	nop
     b50:	00 00       	nop
     b52:	00 00       	nop
     b54:	00 00       	nop
     b56:	00 00       	nop
     b58:	00 00       	nop
     b5a:	00 00       	nop
     b5c:	00 00       	nop
     b5e:	00 00       	nop
     b60:	00 00       	nop
     b62:	00 00       	nop
     b64:	00 00       	nop
     b66:	00 00       	nop

00000b68 <I_56__RESERVED>:
     b68:	ff cf       	rjmp	.-2      	; 0xb68 <I_56__RESERVED>
     b6a:	00 00       	nop
     b6c:	00 00       	nop
     b6e:	00 00       	nop
     b70:	00 00       	nop
     b72:	00 00       	nop
     b74:	00 00       	nop
     b76:	00 00       	nop
     b78:	00 00       	nop
     b7a:	00 00       	nop
     b7c:	00 00       	nop
     b7e:	00 00       	nop
     b80:	00 00       	nop
     b82:	00 00       	nop

00000b84 <I_57__RESERVED>:
     b84:	ff cf       	rjmp	.-2      	; 0xb84 <I_57__RESERVED>
     b86:	00 00       	nop
     b88:	00 00       	nop
     b8a:	00 00       	nop
     b8c:	00 00       	nop
     b8e:	00 00       	nop
     b90:	00 00       	nop
     b92:	00 00       	nop
     b94:	00 00       	nop
     b96:	00 00       	nop
     b98:	00 00       	nop
     b9a:	00 00       	nop
     b9c:	00 00       	nop
     b9e:	00 00       	nop

00000ba0 <I_58__RESERVED>:
     ba0:	ff cf       	rjmp	.-2      	; 0xba0 <I_58__RESERVED>
     ba2:	00 00       	nop
     ba4:	00 00       	nop
     ba6:	00 00       	nop
     ba8:	00 00       	nop
     baa:	00 00       	nop
     bac:	00 00       	nop
     bae:	00 00       	nop
     bb0:	00 00       	nop
     bb2:	00 00       	nop
     bb4:	00 00       	nop
     bb6:	00 00       	nop
     bb8:	00 00       	nop
     bba:	00 00       	nop

00000bbc <I_59__RESERVED>:
     bbc:	ff cf       	rjmp	.-2      	; 0xbbc <I_59__RESERVED>
     bbe:	00 00       	nop
     bc0:	00 00       	nop
     bc2:	00 00       	nop
     bc4:	00 00       	nop
     bc6:	00 00       	nop
     bc8:	00 00       	nop
     bca:	00 00       	nop
     bcc:	00 00       	nop
     bce:	00 00       	nop
     bd0:	00 00       	nop
     bd2:	00 00       	nop
     bd4:	00 00       	nop
     bd6:	00 00       	nop

00000bd8 <I_5A__RESERVED>:
     bd8:	ff cf       	rjmp	.-2      	; 0xbd8 <I_5A__RESERVED>
     bda:	00 00       	nop
     bdc:	00 00       	nop
     bde:	00 00       	nop
     be0:	00 00       	nop
     be2:	00 00       	nop
     be4:	00 00       	nop
     be6:	00 00       	nop
     be8:	00 00       	nop
     bea:	00 00       	nop
     bec:	00 00       	nop
     bee:	00 00       	nop
     bf0:	00 00       	nop
     bf2:	00 00       	nop

00000bf4 <I_5B__RESERVED>:
     bf4:	ff cf       	rjmp	.-2      	; 0xbf4 <I_5B__RESERVED>
     bf6:	00 00       	nop
     bf8:	00 00       	nop
     bfa:	00 00       	nop
     bfc:	00 00       	nop
     bfe:	00 00       	nop
     c00:	00 00       	nop
     c02:	00 00       	nop
     c04:	00 00       	nop
     c06:	00 00       	nop
     c08:	00 00       	nop
     c0a:	00 00       	nop
     c0c:	00 00       	nop
     c0e:	00 00       	nop

00000c10 <I_5C__RESERVED>:
     c10:	ff cf       	rjmp	.-2      	; 0xc10 <I_5C__RESERVED>
     c12:	00 00       	nop
     c14:	00 00       	nop
     c16:	00 00       	nop
     c18:	00 00       	nop
     c1a:	00 00       	nop
     c1c:	00 00       	nop
     c1e:	00 00       	nop
     c20:	00 00       	nop
     c22:	00 00       	nop
     c24:	00 00       	nop
     c26:	00 00       	nop
     c28:	00 00       	nop
     c2a:	00 00       	nop

00000c2c <I_5D__RESERVED>:
     c2c:	ff cf       	rjmp	.-2      	; 0xc2c <I_5D__RESERVED>
     c2e:	00 00       	nop
     c30:	00 00       	nop
     c32:	00 00       	nop
     c34:	00 00       	nop
     c36:	00 00       	nop
     c38:	00 00       	nop
     c3a:	00 00       	nop
     c3c:	00 00       	nop
     c3e:	00 00       	nop
     c40:	00 00       	nop
     c42:	00 00       	nop
     c44:	00 00       	nop
     c46:	00 00       	nop

00000c48 <I_5E__RESERVED>:
     c48:	ff cf       	rjmp	.-2      	; 0xc48 <I_5E__RESERVED>
     c4a:	00 00       	nop
     c4c:	00 00       	nop
     c4e:	00 00       	nop
     c50:	00 00       	nop
     c52:	00 00       	nop
     c54:	00 00       	nop
     c56:	00 00       	nop
     c58:	00 00       	nop
     c5a:	00 00       	nop
     c5c:	00 00       	nop
     c5e:	00 00       	nop
     c60:	00 00       	nop
     c62:	00 00       	nop

00000c64 <I_5F__RESERVED>:
     c64:	ff cf       	rjmp	.-2      	; 0xc64 <I_5F__RESERVED>
     c66:	00 00       	nop
     c68:	00 00       	nop
     c6a:	00 00       	nop
     c6c:	00 00       	nop
     c6e:	00 00       	nop
     c70:	00 00       	nop
     c72:	00 00       	nop
     c74:	00 00       	nop
     c76:	00 00       	nop
     c78:	00 00       	nop
     c7a:	00 00       	nop
     c7c:	00 00       	nop
     c7e:	00 00       	nop

00000c80 <I_60__RESERVED>:
     c80:	ff cf       	rjmp	.-2      	; 0xc80 <I_60__RESERVED>
     c82:	00 00       	nop
     c84:	00 00       	nop
     c86:	00 00       	nop
     c88:	00 00       	nop
     c8a:	00 00       	nop
     c8c:	00 00       	nop
     c8e:	00 00       	nop
     c90:	00 00       	nop
     c92:	00 00       	nop
     c94:	00 00       	nop
     c96:	00 00       	nop
     c98:	00 00       	nop
     c9a:	00 00       	nop

00000c9c <I_61__RESERVED>:
     c9c:	ff cf       	rjmp	.-2      	; 0xc9c <I_61__RESERVED>
     c9e:	00 00       	nop
     ca0:	00 00       	nop
     ca2:	00 00       	nop
     ca4:	00 00       	nop
     ca6:	00 00       	nop
     ca8:	00 00       	nop
     caa:	00 00       	nop
     cac:	00 00       	nop
     cae:	00 00       	nop
     cb0:	00 00       	nop
     cb2:	00 00       	nop
     cb4:	00 00       	nop
     cb6:	00 00       	nop

00000cb8 <I_62__RESERVED>:
     cb8:	ff cf       	rjmp	.-2      	; 0xcb8 <I_62__RESERVED>
     cba:	00 00       	nop
     cbc:	00 00       	nop
     cbe:	00 00       	nop
     cc0:	00 00       	nop
     cc2:	00 00       	nop
     cc4:	00 00       	nop
     cc6:	00 00       	nop
     cc8:	00 00       	nop
     cca:	00 00       	nop
     ccc:	00 00       	nop
     cce:	00 00       	nop
     cd0:	00 00       	nop
     cd2:	00 00       	nop

00000cd4 <I_63__RESERVED>:
     cd4:	ff cf       	rjmp	.-2      	; 0xcd4 <I_63__RESERVED>
     cd6:	00 00       	nop
     cd8:	00 00       	nop
     cda:	00 00       	nop
     cdc:	00 00       	nop
     cde:	00 00       	nop
     ce0:	00 00       	nop
     ce2:	00 00       	nop
     ce4:	00 00       	nop
     ce6:	00 00       	nop
     ce8:	00 00       	nop
     cea:	00 00       	nop
     cec:	00 00       	nop
     cee:	00 00       	nop

00000cf0 <I_64__RESERVED>:
     cf0:	ff cf       	rjmp	.-2      	; 0xcf0 <I_64__RESERVED>
     cf2:	00 00       	nop
     cf4:	00 00       	nop
     cf6:	00 00       	nop
     cf8:	00 00       	nop
     cfa:	00 00       	nop
     cfc:	00 00       	nop
     cfe:	00 00       	nop
     d00:	00 00       	nop
     d02:	00 00       	nop
     d04:	00 00       	nop
     d06:	00 00       	nop
     d08:	00 00       	nop
     d0a:	00 00       	nop

00000d0c <I_65__RESERVED>:
     d0c:	ff cf       	rjmp	.-2      	; 0xd0c <I_65__RESERVED>
     d0e:	00 00       	nop
     d10:	00 00       	nop
     d12:	00 00       	nop
     d14:	00 00       	nop
     d16:	00 00       	nop
     d18:	00 00       	nop
     d1a:	00 00       	nop
     d1c:	00 00       	nop
     d1e:	00 00       	nop
     d20:	00 00       	nop
     d22:	00 00       	nop
     d24:	00 00       	nop
     d26:	00 00       	nop

00000d28 <I_66__RESERVED>:
     d28:	ff cf       	rjmp	.-2      	; 0xd28 <I_66__RESERVED>
     d2a:	00 00       	nop
     d2c:	00 00       	nop
     d2e:	00 00       	nop
     d30:	00 00       	nop
     d32:	00 00       	nop
     d34:	00 00       	nop
     d36:	00 00       	nop
     d38:	00 00       	nop
     d3a:	00 00       	nop
     d3c:	00 00       	nop
     d3e:	00 00       	nop
     d40:	00 00       	nop
     d42:	00 00       	nop

00000d44 <I_67__RESERVED>:
     d44:	ff cf       	rjmp	.-2      	; 0xd44 <I_67__RESERVED>
     d46:	00 00       	nop
     d48:	00 00       	nop
     d4a:	00 00       	nop
     d4c:	00 00       	nop
     d4e:	00 00       	nop
     d50:	00 00       	nop
     d52:	00 00       	nop
     d54:	00 00       	nop
     d56:	00 00       	nop
     d58:	00 00       	nop
     d5a:	00 00       	nop
     d5c:	00 00       	nop
     d5e:	00 00       	nop

00000d60 <I_68__RESERVED>:
     d60:	ff cf       	rjmp	.-2      	; 0xd60 <I_68__RESERVED>
     d62:	00 00       	nop
     d64:	00 00       	nop
     d66:	00 00       	nop
     d68:	00 00       	nop
     d6a:	00 00       	nop
     d6c:	00 00       	nop
     d6e:	00 00       	nop
     d70:	00 00       	nop
     d72:	00 00       	nop
     d74:	00 00       	nop
     d76:	00 00       	nop
     d78:	00 00       	nop
     d7a:	00 00       	nop

00000d7c <I_69__RESERVED>:
     d7c:	ff cf       	rjmp	.-2      	; 0xd7c <I_69__RESERVED>
     d7e:	00 00       	nop
     d80:	00 00       	nop
     d82:	00 00       	nop
     d84:	00 00       	nop
     d86:	00 00       	nop
     d88:	00 00       	nop
     d8a:	00 00       	nop
     d8c:	00 00       	nop
     d8e:	00 00       	nop
     d90:	00 00       	nop
     d92:	00 00       	nop
     d94:	00 00       	nop
     d96:	00 00       	nop

00000d98 <I_6A__RESERVED>:
     d98:	ff cf       	rjmp	.-2      	; 0xd98 <I_6A__RESERVED>
     d9a:	00 00       	nop
     d9c:	00 00       	nop
     d9e:	00 00       	nop
     da0:	00 00       	nop
     da2:	00 00       	nop
     da4:	00 00       	nop
     da6:	00 00       	nop
     da8:	00 00       	nop
     daa:	00 00       	nop
     dac:	00 00       	nop
     dae:	00 00       	nop
     db0:	00 00       	nop
     db2:	00 00       	nop

00000db4 <I_6B__RESERVED>:
     db4:	ff cf       	rjmp	.-2      	; 0xdb4 <I_6B__RESERVED>
     db6:	00 00       	nop
     db8:	00 00       	nop
     dba:	00 00       	nop
     dbc:	00 00       	nop
     dbe:	00 00       	nop
     dc0:	00 00       	nop
     dc2:	00 00       	nop
     dc4:	00 00       	nop
     dc6:	00 00       	nop
     dc8:	00 00       	nop
     dca:	00 00       	nop
     dcc:	00 00       	nop
     dce:	00 00       	nop

00000dd0 <I_6C__RESERVED>:
     dd0:	ff cf       	rjmp	.-2      	; 0xdd0 <I_6C__RESERVED>
     dd2:	00 00       	nop
     dd4:	00 00       	nop
     dd6:	00 00       	nop
     dd8:	00 00       	nop
     dda:	00 00       	nop
     ddc:	00 00       	nop
     dde:	00 00       	nop
     de0:	00 00       	nop
     de2:	00 00       	nop
     de4:	00 00       	nop
     de6:	00 00       	nop
     de8:	00 00       	nop
     dea:	00 00       	nop

00000dec <I_6D__RESERVED>:
     dec:	ff cf       	rjmp	.-2      	; 0xdec <I_6D__RESERVED>
     dee:	00 00       	nop
     df0:	00 00       	nop
     df2:	00 00       	nop
     df4:	00 00       	nop
     df6:	00 00       	nop
     df8:	00 00       	nop
     dfa:	00 00       	nop
     dfc:	00 00       	nop
     dfe:	00 00       	nop
     e00:	00 00       	nop
     e02:	00 00       	nop
     e04:	00 00       	nop
     e06:	00 00       	nop

00000e08 <I_6E__RESERVED>:
     e08:	ff cf       	rjmp	.-2      	; 0xe08 <I_6E__RESERVED>
     e0a:	00 00       	nop
     e0c:	00 00       	nop
     e0e:	00 00       	nop
     e10:	00 00       	nop
     e12:	00 00       	nop
     e14:	00 00       	nop
     e16:	00 00       	nop
     e18:	00 00       	nop
     e1a:	00 00       	nop
     e1c:	00 00       	nop
     e1e:	00 00       	nop
     e20:	00 00       	nop
     e22:	00 00       	nop

00000e24 <I_6F__RESERVED>:
     e24:	ff cf       	rjmp	.-2      	; 0xe24 <I_6F__RESERVED>
     e26:	00 00       	nop
     e28:	00 00       	nop
     e2a:	00 00       	nop
     e2c:	00 00       	nop
     e2e:	00 00       	nop
     e30:	00 00       	nop
     e32:	00 00       	nop
     e34:	00 00       	nop
     e36:	00 00       	nop
     e38:	00 00       	nop
     e3a:	00 00       	nop
     e3c:	00 00       	nop
     e3e:	00 00       	nop

00000e40 <I_70__PUSH16_r0>:
     e40:	00 00       	nop
     e42:	9a 92       	st	-Y, r9
     e44:	8a 92       	st	-Y, r8
     e46:	01 96       	adiw	r24, 0x01	; 1
     e48:	f8 94       	cli
     e4a:	2e bc       	out	0x2e, r2	; 46
     e4c:	6e b4       	in	r6, 0x2e	; 46
     e4e:	78 94       	sei
     e50:	67 9c       	mul	r6, r7
     e52:	f0 01       	movw	r30, r0
     e54:	ff 5f       	subi	r31, 0xFF	; 255
     e56:	09 94       	ijmp
     e58:	00 00       	nop
     e5a:	00 00       	nop

00000e5c <I_71__PUSH16_r1>:
     e5c:	00 00       	nop
     e5e:	ba 92       	st	-Y, r11
     e60:	aa 92       	st	-Y, r10
     e62:	01 96       	adiw	r24, 0x01	; 1
     e64:	f8 94       	cli
     e66:	2e bc       	out	0x2e, r2	; 46
     e68:	6e b4       	in	r6, 0x2e	; 46
     e6a:	78 94       	sei
     e6c:	67 9c       	mul	r6, r7
     e6e:	f0 01       	movw	r30, r0
     e70:	ff 5f       	subi	r31, 0xFF	; 255
     e72:	09 94       	ijmp
     e74:	00 00       	nop
     e76:	00 00       	nop

00000e78 <I_72__PUSH16_r2>:
     e78:	00 00       	nop
     e7a:	da 92       	st	-Y, r13
     e7c:	ca 92       	st	-Y, r12
     e7e:	01 96       	adiw	r24, 0x01	; 1
     e80:	f8 94       	cli
     e82:	2e bc       	out	0x2e, r2	; 46
     e84:	6e b4       	in	r6, 0x2e	; 46
     e86:	78 94       	sei
     e88:	67 9c       	mul	r6, r7
     e8a:	f0 01       	movw	r30, r0
     e8c:	ff 5f       	subi	r31, 0xFF	; 255
     e8e:	09 94       	ijmp
     e90:	00 00       	nop
     e92:	00 00       	nop

00000e94 <I_73__PUSH16_r3>:
     e94:	00 00       	nop
     e96:	fa 92       	st	-Y, r15
     e98:	ea 92       	st	-Y, r14
     e9a:	01 96       	adiw	r24, 0x01	; 1
     e9c:	f8 94       	cli
     e9e:	2e bc       	out	0x2e, r2	; 46
     ea0:	6e b4       	in	r6, 0x2e	; 46
     ea2:	78 94       	sei
     ea4:	67 9c       	mul	r6, r7
     ea6:	f0 01       	movw	r30, r0
     ea8:	ff 5f       	subi	r31, 0xFF	; 255
     eaa:	09 94       	ijmp
     eac:	00 00       	nop
     eae:	00 00       	nop

00000eb0 <I_74__PUSH16_r4>:
     eb0:	00 00       	nop
     eb2:	1a 93       	st	-Y, r17
     eb4:	0a 93       	st	-Y, r16
     eb6:	01 96       	adiw	r24, 0x01	; 1
     eb8:	f8 94       	cli
     eba:	2e bc       	out	0x2e, r2	; 46
     ebc:	6e b4       	in	r6, 0x2e	; 46
     ebe:	78 94       	sei
     ec0:	67 9c       	mul	r6, r7
     ec2:	f0 01       	movw	r30, r0
     ec4:	ff 5f       	subi	r31, 0xFF	; 255
     ec6:	09 94       	ijmp
     ec8:	00 00       	nop
     eca:	00 00       	nop

00000ecc <I_75__PUSH16_r5>:
     ecc:	00 00       	nop
     ece:	3a 93       	st	-Y, r19
     ed0:	2a 93       	st	-Y, r18
     ed2:	01 96       	adiw	r24, 0x01	; 1
     ed4:	f8 94       	cli
     ed6:	2e bc       	out	0x2e, r2	; 46
     ed8:	6e b4       	in	r6, 0x2e	; 46
     eda:	78 94       	sei
     edc:	67 9c       	mul	r6, r7
     ede:	f0 01       	movw	r30, r0
     ee0:	ff 5f       	subi	r31, 0xFF	; 255
     ee2:	09 94       	ijmp
     ee4:	00 00       	nop
     ee6:	00 00       	nop

00000ee8 <I_76__PUSH16_r6>:
     ee8:	00 00       	nop
     eea:	5a 93       	st	-Y, r21
     eec:	4a 93       	st	-Y, r20
     eee:	01 96       	adiw	r24, 0x01	; 1
     ef0:	f8 94       	cli
     ef2:	2e bc       	out	0x2e, r2	; 46
     ef4:	6e b4       	in	r6, 0x2e	; 46
     ef6:	78 94       	sei
     ef8:	67 9c       	mul	r6, r7
     efa:	f0 01       	movw	r30, r0
     efc:	ff 5f       	subi	r31, 0xFF	; 255
     efe:	09 94       	ijmp
     f00:	00 00       	nop
     f02:	00 00       	nop

00000f04 <I_77__PUSH16_r7>:
     f04:	00 00       	nop
     f06:	7a 93       	st	-Y, r23
     f08:	6a 93       	st	-Y, r22
     f0a:	01 96       	adiw	r24, 0x01	; 1
     f0c:	f8 94       	cli
     f0e:	2e bc       	out	0x2e, r2	; 46
     f10:	6e b4       	in	r6, 0x2e	; 46
     f12:	78 94       	sei
     f14:	67 9c       	mul	r6, r7
     f16:	f0 01       	movw	r30, r0
     f18:	ff 5f       	subi	r31, 0xFF	; 255
     f1a:	09 94       	ijmp
     f1c:	00 00       	nop
     f1e:	00 00       	nop

00000f20 <I_78__POP16_r0>:
     f20:	00 00       	nop
     f22:	89 90       	ld	r8, Y+
     f24:	99 90       	ld	r9, Y+
     f26:	01 96       	adiw	r24, 0x01	; 1
     f28:	f8 94       	cli
     f2a:	2e bc       	out	0x2e, r2	; 46
     f2c:	6e b4       	in	r6, 0x2e	; 46
     f2e:	78 94       	sei
     f30:	67 9c       	mul	r6, r7
     f32:	f0 01       	movw	r30, r0
     f34:	ff 5f       	subi	r31, 0xFF	; 255
     f36:	09 94       	ijmp
     f38:	00 00       	nop
     f3a:	00 00       	nop

00000f3c <I_79__POP16_r1>:
     f3c:	00 00       	nop
     f3e:	a9 90       	ld	r10, Y+
     f40:	b9 90       	ld	r11, Y+
     f42:	01 96       	adiw	r24, 0x01	; 1
     f44:	f8 94       	cli
     f46:	2e bc       	out	0x2e, r2	; 46
     f48:	6e b4       	in	r6, 0x2e	; 46
     f4a:	78 94       	sei
     f4c:	67 9c       	mul	r6, r7
     f4e:	f0 01       	movw	r30, r0
     f50:	ff 5f       	subi	r31, 0xFF	; 255
     f52:	09 94       	ijmp
     f54:	00 00       	nop
     f56:	00 00       	nop

00000f58 <I_7A__POP16_r2>:
     f58:	00 00       	nop
     f5a:	c9 90       	ld	r12, Y+
     f5c:	d9 90       	ld	r13, Y+
     f5e:	01 96       	adiw	r24, 0x01	; 1
     f60:	f8 94       	cli
     f62:	2e bc       	out	0x2e, r2	; 46
     f64:	6e b4       	in	r6, 0x2e	; 46
     f66:	78 94       	sei
     f68:	67 9c       	mul	r6, r7
     f6a:	f0 01       	movw	r30, r0
     f6c:	ff 5f       	subi	r31, 0xFF	; 255
     f6e:	09 94       	ijmp
     f70:	00 00       	nop
     f72:	00 00       	nop

00000f74 <I_7B__POP16_r3>:
     f74:	00 00       	nop
     f76:	e9 90       	ld	r14, Y+
     f78:	f9 90       	ld	r15, Y+
     f7a:	01 96       	adiw	r24, 0x01	; 1
     f7c:	f8 94       	cli
     f7e:	2e bc       	out	0x2e, r2	; 46
     f80:	6e b4       	in	r6, 0x2e	; 46
     f82:	78 94       	sei
     f84:	67 9c       	mul	r6, r7
     f86:	f0 01       	movw	r30, r0
     f88:	ff 5f       	subi	r31, 0xFF	; 255
     f8a:	09 94       	ijmp
     f8c:	00 00       	nop
     f8e:	00 00       	nop

00000f90 <I_7C__POP16_r4>:
     f90:	00 00       	nop
     f92:	09 91       	ld	r16, Y+
     f94:	19 91       	ld	r17, Y+
     f96:	01 96       	adiw	r24, 0x01	; 1
     f98:	f8 94       	cli
     f9a:	2e bc       	out	0x2e, r2	; 46
     f9c:	6e b4       	in	r6, 0x2e	; 46
     f9e:	78 94       	sei
     fa0:	67 9c       	mul	r6, r7
     fa2:	f0 01       	movw	r30, r0
     fa4:	ff 5f       	subi	r31, 0xFF	; 255
     fa6:	09 94       	ijmp
     fa8:	00 00       	nop
     faa:	00 00       	nop

00000fac <I_7D__POP16_r5>:
     fac:	00 00       	nop
     fae:	29 91       	ld	r18, Y+
     fb0:	39 91       	ld	r19, Y+
     fb2:	01 96       	adiw	r24, 0x01	; 1
     fb4:	f8 94       	cli
     fb6:	2e bc       	out	0x2e, r2	; 46
     fb8:	6e b4       	in	r6, 0x2e	; 46
     fba:	78 94       	sei
     fbc:	67 9c       	mul	r6, r7
     fbe:	f0 01       	movw	r30, r0
     fc0:	ff 5f       	subi	r31, 0xFF	; 255
     fc2:	09 94       	ijmp
     fc4:	00 00       	nop
     fc6:	00 00       	nop

00000fc8 <I_7E__POP16_r6>:
     fc8:	00 00       	nop
     fca:	49 91       	ld	r20, Y+
     fcc:	59 91       	ld	r21, Y+
     fce:	01 96       	adiw	r24, 0x01	; 1
     fd0:	f8 94       	cli
     fd2:	2e bc       	out	0x2e, r2	; 46
     fd4:	6e b4       	in	r6, 0x2e	; 46
     fd6:	78 94       	sei
     fd8:	67 9c       	mul	r6, r7
     fda:	f0 01       	movw	r30, r0
     fdc:	ff 5f       	subi	r31, 0xFF	; 255
     fde:	09 94       	ijmp
     fe0:	00 00       	nop
     fe2:	00 00       	nop

00000fe4 <I_7F__POP16_r7>:
     fe4:	00 00       	nop
     fe6:	69 91       	ld	r22, Y+
     fe8:	79 91       	ld	r23, Y+
     fea:	01 96       	adiw	r24, 0x01	; 1
     fec:	f8 94       	cli
     fee:	2e bc       	out	0x2e, r2	; 46
     ff0:	6e b4       	in	r6, 0x2e	; 46
     ff2:	78 94       	sei
     ff4:	67 9c       	mul	r6, r7
     ff6:	f0 01       	movw	r30, r0
     ff8:	ff 5f       	subi	r31, 0xFF	; 255
     ffa:	09 94       	ijmp
     ffc:	00 00       	nop
     ffe:	00 00       	nop

00001000 <I_80__ADD_c0_c0>:
    1000:	00 c0       	rjmp	.+0      	; 0x1002 <I_80__ADD_c0_c0+0x2>
    1002:	00 0f       	add	r16, r16
    1004:	11 1f       	adc	r17, r17
    1006:	3f b6       	in	r3, 0x3f	; 63
    1008:	01 96       	adiw	r24, 0x01	; 1
    100a:	f8 94       	cli
    100c:	2e bc       	out	0x2e, r2	; 46
    100e:	6e b4       	in	r6, 0x2e	; 46
    1010:	78 94       	sei
    1012:	67 9c       	mul	r6, r7
    1014:	f0 01       	movw	r30, r0
    1016:	ff 5f       	subi	r31, 0xFF	; 255
    1018:	09 94       	ijmp
    101a:	00 00       	nop

0000101c <I_81__ADD_c0_c1>:
    101c:	00 c0       	rjmp	.+0      	; 0x101e <I_81__ADD_c0_c1+0x2>
    101e:	02 0f       	add	r16, r18
    1020:	13 1f       	adc	r17, r19
    1022:	3f b6       	in	r3, 0x3f	; 63
    1024:	01 96       	adiw	r24, 0x01	; 1
    1026:	f8 94       	cli
    1028:	2e bc       	out	0x2e, r2	; 46
    102a:	6e b4       	in	r6, 0x2e	; 46
    102c:	78 94       	sei
    102e:	67 9c       	mul	r6, r7
    1030:	f0 01       	movw	r30, r0
    1032:	ff 5f       	subi	r31, 0xFF	; 255
    1034:	09 94       	ijmp
    1036:	00 00       	nop

00001038 <I_82__ADD_c0_c2>:
    1038:	00 c0       	rjmp	.+0      	; 0x103a <I_82__ADD_c0_c2+0x2>
    103a:	04 0f       	add	r16, r20
    103c:	15 1f       	adc	r17, r21
    103e:	3f b6       	in	r3, 0x3f	; 63
    1040:	01 96       	adiw	r24, 0x01	; 1
    1042:	f8 94       	cli
    1044:	2e bc       	out	0x2e, r2	; 46
    1046:	6e b4       	in	r6, 0x2e	; 46
    1048:	78 94       	sei
    104a:	67 9c       	mul	r6, r7
    104c:	f0 01       	movw	r30, r0
    104e:	ff 5f       	subi	r31, 0xFF	; 255
    1050:	09 94       	ijmp
    1052:	00 00       	nop

00001054 <I_83__ADD_c0_c3>:
    1054:	00 c0       	rjmp	.+0      	; 0x1056 <I_83__ADD_c0_c3+0x2>
    1056:	06 0f       	add	r16, r22
    1058:	17 1f       	adc	r17, r23
    105a:	3f b6       	in	r3, 0x3f	; 63
    105c:	01 96       	adiw	r24, 0x01	; 1
    105e:	f8 94       	cli
    1060:	2e bc       	out	0x2e, r2	; 46
    1062:	6e b4       	in	r6, 0x2e	; 46
    1064:	78 94       	sei
    1066:	67 9c       	mul	r6, r7
    1068:	f0 01       	movw	r30, r0
    106a:	ff 5f       	subi	r31, 0xFF	; 255
    106c:	09 94       	ijmp
    106e:	00 00       	nop

00001070 <I_84__ADD_c1_c0>:
    1070:	00 c0       	rjmp	.+0      	; 0x1072 <I_84__ADD_c1_c0+0x2>
    1072:	20 0f       	add	r18, r16
    1074:	31 1f       	adc	r19, r17
    1076:	3f b6       	in	r3, 0x3f	; 63
    1078:	01 96       	adiw	r24, 0x01	; 1
    107a:	f8 94       	cli
    107c:	2e bc       	out	0x2e, r2	; 46
    107e:	6e b4       	in	r6, 0x2e	; 46
    1080:	78 94       	sei
    1082:	67 9c       	mul	r6, r7
    1084:	f0 01       	movw	r30, r0
    1086:	ff 5f       	subi	r31, 0xFF	; 255
    1088:	09 94       	ijmp
    108a:	00 00       	nop

0000108c <I_85__ADD_c1_c1>:
    108c:	00 c0       	rjmp	.+0      	; 0x108e <I_85__ADD_c1_c1+0x2>
    108e:	22 0f       	add	r18, r18
    1090:	33 1f       	adc	r19, r19
    1092:	3f b6       	in	r3, 0x3f	; 63
    1094:	01 96       	adiw	r24, 0x01	; 1
    1096:	f8 94       	cli
    1098:	2e bc       	out	0x2e, r2	; 46
    109a:	6e b4       	in	r6, 0x2e	; 46
    109c:	78 94       	sei
    109e:	67 9c       	mul	r6, r7
    10a0:	f0 01       	movw	r30, r0
    10a2:	ff 5f       	subi	r31, 0xFF	; 255
    10a4:	09 94       	ijmp
    10a6:	00 00       	nop

000010a8 <I_86__ADD_c1_c2>:
    10a8:	00 c0       	rjmp	.+0      	; 0x10aa <I_86__ADD_c1_c2+0x2>
    10aa:	24 0f       	add	r18, r20
    10ac:	35 1f       	adc	r19, r21
    10ae:	3f b6       	in	r3, 0x3f	; 63
    10b0:	01 96       	adiw	r24, 0x01	; 1
    10b2:	f8 94       	cli
    10b4:	2e bc       	out	0x2e, r2	; 46
    10b6:	6e b4       	in	r6, 0x2e	; 46
    10b8:	78 94       	sei
    10ba:	67 9c       	mul	r6, r7
    10bc:	f0 01       	movw	r30, r0
    10be:	ff 5f       	subi	r31, 0xFF	; 255
    10c0:	09 94       	ijmp
    10c2:	00 00       	nop

000010c4 <I_87__ADD_c1_c3>:
    10c4:	00 c0       	rjmp	.+0      	; 0x10c6 <I_87__ADD_c1_c3+0x2>
    10c6:	26 0f       	add	r18, r22
    10c8:	37 1f       	adc	r19, r23
    10ca:	3f b6       	in	r3, 0x3f	; 63
    10cc:	01 96       	adiw	r24, 0x01	; 1
    10ce:	f8 94       	cli
    10d0:	2e bc       	out	0x2e, r2	; 46
    10d2:	6e b4       	in	r6, 0x2e	; 46
    10d4:	78 94       	sei
    10d6:	67 9c       	mul	r6, r7
    10d8:	f0 01       	movw	r30, r0
    10da:	ff 5f       	subi	r31, 0xFF	; 255
    10dc:	09 94       	ijmp
    10de:	00 00       	nop

000010e0 <I_88__ADD_c2_c0>:
    10e0:	00 c0       	rjmp	.+0      	; 0x10e2 <I_88__ADD_c2_c0+0x2>
    10e2:	40 0f       	add	r20, r16
    10e4:	51 1f       	adc	r21, r17
    10e6:	3f b6       	in	r3, 0x3f	; 63
    10e8:	01 96       	adiw	r24, 0x01	; 1
    10ea:	f8 94       	cli
    10ec:	2e bc       	out	0x2e, r2	; 46
    10ee:	6e b4       	in	r6, 0x2e	; 46
    10f0:	78 94       	sei
    10f2:	67 9c       	mul	r6, r7
    10f4:	f0 01       	movw	r30, r0
    10f6:	ff 5f       	subi	r31, 0xFF	; 255
    10f8:	09 94       	ijmp
    10fa:	00 00       	nop

000010fc <I_89__ADD_c2_c1>:
    10fc:	00 c0       	rjmp	.+0      	; 0x10fe <I_89__ADD_c2_c1+0x2>
    10fe:	42 0f       	add	r20, r18
    1100:	53 1f       	adc	r21, r19
    1102:	3f b6       	in	r3, 0x3f	; 63
    1104:	01 96       	adiw	r24, 0x01	; 1
    1106:	f8 94       	cli
    1108:	2e bc       	out	0x2e, r2	; 46
    110a:	6e b4       	in	r6, 0x2e	; 46
    110c:	78 94       	sei
    110e:	67 9c       	mul	r6, r7
    1110:	f0 01       	movw	r30, r0
    1112:	ff 5f       	subi	r31, 0xFF	; 255
    1114:	09 94       	ijmp
    1116:	00 00       	nop

00001118 <I_8A__ADD_c2_c2>:
    1118:	00 c0       	rjmp	.+0      	; 0x111a <I_8A__ADD_c2_c2+0x2>
    111a:	44 0f       	add	r20, r20
    111c:	55 1f       	adc	r21, r21
    111e:	3f b6       	in	r3, 0x3f	; 63
    1120:	01 96       	adiw	r24, 0x01	; 1
    1122:	f8 94       	cli
    1124:	2e bc       	out	0x2e, r2	; 46
    1126:	6e b4       	in	r6, 0x2e	; 46
    1128:	78 94       	sei
    112a:	67 9c       	mul	r6, r7
    112c:	f0 01       	movw	r30, r0
    112e:	ff 5f       	subi	r31, 0xFF	; 255
    1130:	09 94       	ijmp
    1132:	00 00       	nop

00001134 <I_8B__ADD_c2_c3>:
    1134:	00 c0       	rjmp	.+0      	; 0x1136 <I_8B__ADD_c2_c3+0x2>
    1136:	46 0f       	add	r20, r22
    1138:	57 1f       	adc	r21, r23
    113a:	3f b6       	in	r3, 0x3f	; 63
    113c:	01 96       	adiw	r24, 0x01	; 1
    113e:	f8 94       	cli
    1140:	2e bc       	out	0x2e, r2	; 46
    1142:	6e b4       	in	r6, 0x2e	; 46
    1144:	78 94       	sei
    1146:	67 9c       	mul	r6, r7
    1148:	f0 01       	movw	r30, r0
    114a:	ff 5f       	subi	r31, 0xFF	; 255
    114c:	09 94       	ijmp
    114e:	00 00       	nop

00001150 <I_8C__ADD_c3_c0>:
    1150:	00 c0       	rjmp	.+0      	; 0x1152 <I_8C__ADD_c3_c0+0x2>
    1152:	60 0f       	add	r22, r16
    1154:	71 1f       	adc	r23, r17
    1156:	3f b6       	in	r3, 0x3f	; 63
    1158:	01 96       	adiw	r24, 0x01	; 1
    115a:	f8 94       	cli
    115c:	2e bc       	out	0x2e, r2	; 46
    115e:	6e b4       	in	r6, 0x2e	; 46
    1160:	78 94       	sei
    1162:	67 9c       	mul	r6, r7
    1164:	f0 01       	movw	r30, r0
    1166:	ff 5f       	subi	r31, 0xFF	; 255
    1168:	09 94       	ijmp
    116a:	00 00       	nop

0000116c <I_8D__ADD_c3_c1>:
    116c:	00 c0       	rjmp	.+0      	; 0x116e <I_8D__ADD_c3_c1+0x2>
    116e:	62 0f       	add	r22, r18
    1170:	73 1f       	adc	r23, r19
    1172:	3f b6       	in	r3, 0x3f	; 63
    1174:	01 96       	adiw	r24, 0x01	; 1
    1176:	f8 94       	cli
    1178:	2e bc       	out	0x2e, r2	; 46
    117a:	6e b4       	in	r6, 0x2e	; 46
    117c:	78 94       	sei
    117e:	67 9c       	mul	r6, r7
    1180:	f0 01       	movw	r30, r0
    1182:	ff 5f       	subi	r31, 0xFF	; 255
    1184:	09 94       	ijmp
    1186:	00 00       	nop

00001188 <I_8E__ADD_c3_c2>:
    1188:	00 c0       	rjmp	.+0      	; 0x118a <I_8E__ADD_c3_c2+0x2>
    118a:	64 0f       	add	r22, r20
    118c:	75 1f       	adc	r23, r21
    118e:	3f b6       	in	r3, 0x3f	; 63
    1190:	01 96       	adiw	r24, 0x01	; 1
    1192:	f8 94       	cli
    1194:	2e bc       	out	0x2e, r2	; 46
    1196:	6e b4       	in	r6, 0x2e	; 46
    1198:	78 94       	sei
    119a:	67 9c       	mul	r6, r7
    119c:	f0 01       	movw	r30, r0
    119e:	ff 5f       	subi	r31, 0xFF	; 255
    11a0:	09 94       	ijmp
    11a2:	00 00       	nop

000011a4 <I_8F__ADD_c3_c3>:
    11a4:	00 c0       	rjmp	.+0      	; 0x11a6 <I_8F__ADD_c3_c3+0x2>
    11a6:	66 0f       	add	r22, r22
    11a8:	77 1f       	adc	r23, r23
    11aa:	3f b6       	in	r3, 0x3f	; 63
    11ac:	01 96       	adiw	r24, 0x01	; 1
    11ae:	f8 94       	cli
    11b0:	2e bc       	out	0x2e, r2	; 46
    11b2:	6e b4       	in	r6, 0x2e	; 46
    11b4:	78 94       	sei
    11b6:	67 9c       	mul	r6, r7
    11b8:	f0 01       	movw	r30, r0
    11ba:	ff 5f       	subi	r31, 0xFF	; 255
    11bc:	09 94       	ijmp
    11be:	00 00       	nop

000011c0 <I_90__SUB_c0_c0>:
    11c0:	00 c0       	rjmp	.+0      	; 0x11c2 <I_90__SUB_c0_c0+0x2>
    11c2:	00 1b       	sub	r16, r16
    11c4:	11 0b       	sbc	r17, r17
    11c6:	3f b6       	in	r3, 0x3f	; 63
    11c8:	01 96       	adiw	r24, 0x01	; 1
    11ca:	f8 94       	cli
    11cc:	2e bc       	out	0x2e, r2	; 46
    11ce:	6e b4       	in	r6, 0x2e	; 46
    11d0:	78 94       	sei
    11d2:	67 9c       	mul	r6, r7
    11d4:	f0 01       	movw	r30, r0
    11d6:	ff 5f       	subi	r31, 0xFF	; 255
    11d8:	09 94       	ijmp
    11da:	00 00       	nop

000011dc <I_91__SUB_c0_c1>:
    11dc:	00 c0       	rjmp	.+0      	; 0x11de <I_91__SUB_c0_c1+0x2>
    11de:	02 1b       	sub	r16, r18
    11e0:	13 0b       	sbc	r17, r19
    11e2:	3f b6       	in	r3, 0x3f	; 63
    11e4:	01 96       	adiw	r24, 0x01	; 1
    11e6:	f8 94       	cli
    11e8:	2e bc       	out	0x2e, r2	; 46
    11ea:	6e b4       	in	r6, 0x2e	; 46
    11ec:	78 94       	sei
    11ee:	67 9c       	mul	r6, r7
    11f0:	f0 01       	movw	r30, r0
    11f2:	ff 5f       	subi	r31, 0xFF	; 255
    11f4:	09 94       	ijmp
    11f6:	00 00       	nop

000011f8 <I_92__SUB_c0_c2>:
    11f8:	00 c0       	rjmp	.+0      	; 0x11fa <I_92__SUB_c0_c2+0x2>
    11fa:	04 1b       	sub	r16, r20
    11fc:	15 0b       	sbc	r17, r21
    11fe:	3f b6       	in	r3, 0x3f	; 63
    1200:	01 96       	adiw	r24, 0x01	; 1
    1202:	f8 94       	cli
    1204:	2e bc       	out	0x2e, r2	; 46
    1206:	6e b4       	in	r6, 0x2e	; 46
    1208:	78 94       	sei
    120a:	67 9c       	mul	r6, r7
    120c:	f0 01       	movw	r30, r0
    120e:	ff 5f       	subi	r31, 0xFF	; 255
    1210:	09 94       	ijmp
    1212:	00 00       	nop

00001214 <I_93__SUB_c0_c3>:
    1214:	00 c0       	rjmp	.+0      	; 0x1216 <I_93__SUB_c0_c3+0x2>
    1216:	06 1b       	sub	r16, r22
    1218:	17 0b       	sbc	r17, r23
    121a:	3f b6       	in	r3, 0x3f	; 63
    121c:	01 96       	adiw	r24, 0x01	; 1
    121e:	f8 94       	cli
    1220:	2e bc       	out	0x2e, r2	; 46
    1222:	6e b4       	in	r6, 0x2e	; 46
    1224:	78 94       	sei
    1226:	67 9c       	mul	r6, r7
    1228:	f0 01       	movw	r30, r0
    122a:	ff 5f       	subi	r31, 0xFF	; 255
    122c:	09 94       	ijmp
    122e:	00 00       	nop

00001230 <I_94__SUB_c1_c0>:
    1230:	00 c0       	rjmp	.+0      	; 0x1232 <I_94__SUB_c1_c0+0x2>
    1232:	20 1b       	sub	r18, r16
    1234:	31 0b       	sbc	r19, r17
    1236:	3f b6       	in	r3, 0x3f	; 63
    1238:	01 96       	adiw	r24, 0x01	; 1
    123a:	f8 94       	cli
    123c:	2e bc       	out	0x2e, r2	; 46
    123e:	6e b4       	in	r6, 0x2e	; 46
    1240:	78 94       	sei
    1242:	67 9c       	mul	r6, r7
    1244:	f0 01       	movw	r30, r0
    1246:	ff 5f       	subi	r31, 0xFF	; 255
    1248:	09 94       	ijmp
    124a:	00 00       	nop

0000124c <I_95__SUB_c1_c1>:
    124c:	00 c0       	rjmp	.+0      	; 0x124e <I_95__SUB_c1_c1+0x2>
    124e:	22 1b       	sub	r18, r18
    1250:	33 0b       	sbc	r19, r19
    1252:	3f b6       	in	r3, 0x3f	; 63
    1254:	01 96       	adiw	r24, 0x01	; 1
    1256:	f8 94       	cli
    1258:	2e bc       	out	0x2e, r2	; 46
    125a:	6e b4       	in	r6, 0x2e	; 46
    125c:	78 94       	sei
    125e:	67 9c       	mul	r6, r7
    1260:	f0 01       	movw	r30, r0
    1262:	ff 5f       	subi	r31, 0xFF	; 255
    1264:	09 94       	ijmp
    1266:	00 00       	nop

00001268 <I_96__SUB_c1_c2>:
    1268:	00 c0       	rjmp	.+0      	; 0x126a <I_96__SUB_c1_c2+0x2>
    126a:	24 1b       	sub	r18, r20
    126c:	35 0b       	sbc	r19, r21
    126e:	3f b6       	in	r3, 0x3f	; 63
    1270:	01 96       	adiw	r24, 0x01	; 1
    1272:	f8 94       	cli
    1274:	2e bc       	out	0x2e, r2	; 46
    1276:	6e b4       	in	r6, 0x2e	; 46
    1278:	78 94       	sei
    127a:	67 9c       	mul	r6, r7
    127c:	f0 01       	movw	r30, r0
    127e:	ff 5f       	subi	r31, 0xFF	; 255
    1280:	09 94       	ijmp
    1282:	00 00       	nop

00001284 <I_97__SUB_c1_c3>:
    1284:	00 c0       	rjmp	.+0      	; 0x1286 <I_97__SUB_c1_c3+0x2>
    1286:	26 1b       	sub	r18, r22
    1288:	37 0b       	sbc	r19, r23
    128a:	3f b6       	in	r3, 0x3f	; 63
    128c:	01 96       	adiw	r24, 0x01	; 1
    128e:	f8 94       	cli
    1290:	2e bc       	out	0x2e, r2	; 46
    1292:	6e b4       	in	r6, 0x2e	; 46
    1294:	78 94       	sei
    1296:	67 9c       	mul	r6, r7
    1298:	f0 01       	movw	r30, r0
    129a:	ff 5f       	subi	r31, 0xFF	; 255
    129c:	09 94       	ijmp
    129e:	00 00       	nop

000012a0 <I_98__SUB_c2_c0>:
    12a0:	00 c0       	rjmp	.+0      	; 0x12a2 <I_98__SUB_c2_c0+0x2>
    12a2:	40 1b       	sub	r20, r16
    12a4:	51 0b       	sbc	r21, r17
    12a6:	3f b6       	in	r3, 0x3f	; 63
    12a8:	01 96       	adiw	r24, 0x01	; 1
    12aa:	f8 94       	cli
    12ac:	2e bc       	out	0x2e, r2	; 46
    12ae:	6e b4       	in	r6, 0x2e	; 46
    12b0:	78 94       	sei
    12b2:	67 9c       	mul	r6, r7
    12b4:	f0 01       	movw	r30, r0
    12b6:	ff 5f       	subi	r31, 0xFF	; 255
    12b8:	09 94       	ijmp
    12ba:	00 00       	nop

000012bc <I_99__SUB_c2_c1>:
    12bc:	00 c0       	rjmp	.+0      	; 0x12be <I_99__SUB_c2_c1+0x2>
    12be:	42 1b       	sub	r20, r18
    12c0:	53 0b       	sbc	r21, r19
    12c2:	3f b6       	in	r3, 0x3f	; 63
    12c4:	01 96       	adiw	r24, 0x01	; 1
    12c6:	f8 94       	cli
    12c8:	2e bc       	out	0x2e, r2	; 46
    12ca:	6e b4       	in	r6, 0x2e	; 46
    12cc:	78 94       	sei
    12ce:	67 9c       	mul	r6, r7
    12d0:	f0 01       	movw	r30, r0
    12d2:	ff 5f       	subi	r31, 0xFF	; 255
    12d4:	09 94       	ijmp
    12d6:	00 00       	nop

000012d8 <I_9A__SUB_c2_c2>:
    12d8:	00 c0       	rjmp	.+0      	; 0x12da <I_9A__SUB_c2_c2+0x2>
    12da:	44 1b       	sub	r20, r20
    12dc:	55 0b       	sbc	r21, r21
    12de:	3f b6       	in	r3, 0x3f	; 63
    12e0:	01 96       	adiw	r24, 0x01	; 1
    12e2:	f8 94       	cli
    12e4:	2e bc       	out	0x2e, r2	; 46
    12e6:	6e b4       	in	r6, 0x2e	; 46
    12e8:	78 94       	sei
    12ea:	67 9c       	mul	r6, r7
    12ec:	f0 01       	movw	r30, r0
    12ee:	ff 5f       	subi	r31, 0xFF	; 255
    12f0:	09 94       	ijmp
    12f2:	00 00       	nop

000012f4 <I_9B__SUB_c2_c3>:
    12f4:	00 c0       	rjmp	.+0      	; 0x12f6 <I_9B__SUB_c2_c3+0x2>
    12f6:	46 1b       	sub	r20, r22
    12f8:	57 0b       	sbc	r21, r23
    12fa:	3f b6       	in	r3, 0x3f	; 63
    12fc:	01 96       	adiw	r24, 0x01	; 1
    12fe:	f8 94       	cli
    1300:	2e bc       	out	0x2e, r2	; 46
    1302:	6e b4       	in	r6, 0x2e	; 46
    1304:	78 94       	sei
    1306:	67 9c       	mul	r6, r7
    1308:	f0 01       	movw	r30, r0
    130a:	ff 5f       	subi	r31, 0xFF	; 255
    130c:	09 94       	ijmp
    130e:	00 00       	nop

00001310 <I_9C__SUB_c3_c0>:
    1310:	00 c0       	rjmp	.+0      	; 0x1312 <I_9C__SUB_c3_c0+0x2>
    1312:	60 1b       	sub	r22, r16
    1314:	71 0b       	sbc	r23, r17
    1316:	3f b6       	in	r3, 0x3f	; 63
    1318:	01 96       	adiw	r24, 0x01	; 1
    131a:	f8 94       	cli
    131c:	2e bc       	out	0x2e, r2	; 46
    131e:	6e b4       	in	r6, 0x2e	; 46
    1320:	78 94       	sei
    1322:	67 9c       	mul	r6, r7
    1324:	f0 01       	movw	r30, r0
    1326:	ff 5f       	subi	r31, 0xFF	; 255
    1328:	09 94       	ijmp
    132a:	00 00       	nop

0000132c <I_9D__SUB_c3_c1>:
    132c:	00 c0       	rjmp	.+0      	; 0x132e <I_9D__SUB_c3_c1+0x2>
    132e:	62 1b       	sub	r22, r18
    1330:	73 0b       	sbc	r23, r19
    1332:	3f b6       	in	r3, 0x3f	; 63
    1334:	01 96       	adiw	r24, 0x01	; 1
    1336:	f8 94       	cli
    1338:	2e bc       	out	0x2e, r2	; 46
    133a:	6e b4       	in	r6, 0x2e	; 46
    133c:	78 94       	sei
    133e:	67 9c       	mul	r6, r7
    1340:	f0 01       	movw	r30, r0
    1342:	ff 5f       	subi	r31, 0xFF	; 255
    1344:	09 94       	ijmp
    1346:	00 00       	nop

00001348 <I_9E__SUB_c3_c2>:
    1348:	00 c0       	rjmp	.+0      	; 0x134a <I_9E__SUB_c3_c2+0x2>
    134a:	64 1b       	sub	r22, r20
    134c:	75 0b       	sbc	r23, r21
    134e:	3f b6       	in	r3, 0x3f	; 63
    1350:	01 96       	adiw	r24, 0x01	; 1
    1352:	f8 94       	cli
    1354:	2e bc       	out	0x2e, r2	; 46
    1356:	6e b4       	in	r6, 0x2e	; 46
    1358:	78 94       	sei
    135a:	67 9c       	mul	r6, r7
    135c:	f0 01       	movw	r30, r0
    135e:	ff 5f       	subi	r31, 0xFF	; 255
    1360:	09 94       	ijmp
    1362:	00 00       	nop

00001364 <I_9F__SUB_c3_c3>:
    1364:	00 c0       	rjmp	.+0      	; 0x1366 <I_9F__SUB_c3_c3+0x2>
    1366:	66 1b       	sub	r22, r22
    1368:	77 0b       	sbc	r23, r23
    136a:	3f b6       	in	r3, 0x3f	; 63
    136c:	01 96       	adiw	r24, 0x01	; 1
    136e:	f8 94       	cli
    1370:	2e bc       	out	0x2e, r2	; 46
    1372:	6e b4       	in	r6, 0x2e	; 46
    1374:	78 94       	sei
    1376:	67 9c       	mul	r6, r7
    1378:	f0 01       	movw	r30, r0
    137a:	ff 5f       	subi	r31, 0xFF	; 255
    137c:	09 94       	ijmp
    137e:	00 00       	nop

00001380 <I_A0__TST16_c0>:
    1380:	30 fa       	bst	r3, 0
    1382:	02 15       	cp	r16, r2
    1384:	12 05       	cpc	r17, r2
    1386:	3f b6       	in	r3, 0x3f	; 63
    1388:	30 f8       	bld	r3, 0
    138a:	01 96       	adiw	r24, 0x01	; 1
    138c:	f8 94       	cli
    138e:	2e bc       	out	0x2e, r2	; 46
    1390:	6e b4       	in	r6, 0x2e	; 46
    1392:	78 94       	sei
    1394:	67 9c       	mul	r6, r7
    1396:	f0 01       	movw	r30, r0
    1398:	ff 5f       	subi	r31, 0xFF	; 255
    139a:	09 94       	ijmp

0000139c <I_A1__CMP16_c0_c1>:
    139c:	00 c0       	rjmp	.+0      	; 0x139e <I_A1__CMP16_c0_c1+0x2>
    139e:	02 17       	cp	r16, r18
    13a0:	13 07       	cpc	r17, r19
    13a2:	3f b6       	in	r3, 0x3f	; 63
    13a4:	01 96       	adiw	r24, 0x01	; 1
    13a6:	f8 94       	cli
    13a8:	2e bc       	out	0x2e, r2	; 46
    13aa:	6e b4       	in	r6, 0x2e	; 46
    13ac:	78 94       	sei
    13ae:	67 9c       	mul	r6, r7
    13b0:	f0 01       	movw	r30, r0
    13b2:	ff 5f       	subi	r31, 0xFF	; 255
    13b4:	09 94       	ijmp
    13b6:	00 00       	nop

000013b8 <I_A2__CMP16_c0_c2>:
    13b8:	00 c0       	rjmp	.+0      	; 0x13ba <I_A2__CMP16_c0_c2+0x2>
    13ba:	04 17       	cp	r16, r20
    13bc:	15 07       	cpc	r17, r21
    13be:	3f b6       	in	r3, 0x3f	; 63
    13c0:	01 96       	adiw	r24, 0x01	; 1
    13c2:	f8 94       	cli
    13c4:	2e bc       	out	0x2e, r2	; 46
    13c6:	6e b4       	in	r6, 0x2e	; 46
    13c8:	78 94       	sei
    13ca:	67 9c       	mul	r6, r7
    13cc:	f0 01       	movw	r30, r0
    13ce:	ff 5f       	subi	r31, 0xFF	; 255
    13d0:	09 94       	ijmp
    13d2:	00 00       	nop

000013d4 <I_A3__CMP16_c0_c3>:
    13d4:	00 c0       	rjmp	.+0      	; 0x13d6 <I_A3__CMP16_c0_c3+0x2>
    13d6:	06 17       	cp	r16, r22
    13d8:	17 07       	cpc	r17, r23
    13da:	3f b6       	in	r3, 0x3f	; 63
    13dc:	01 96       	adiw	r24, 0x01	; 1
    13de:	f8 94       	cli
    13e0:	2e bc       	out	0x2e, r2	; 46
    13e2:	6e b4       	in	r6, 0x2e	; 46
    13e4:	78 94       	sei
    13e6:	67 9c       	mul	r6, r7
    13e8:	f0 01       	movw	r30, r0
    13ea:	ff 5f       	subi	r31, 0xFF	; 255
    13ec:	09 94       	ijmp
    13ee:	00 00       	nop

000013f0 <I_A4__CMP16_c1_c0>:
    13f0:	00 c0       	rjmp	.+0      	; 0x13f2 <I_A4__CMP16_c1_c0+0x2>
    13f2:	20 17       	cp	r18, r16
    13f4:	31 07       	cpc	r19, r17
    13f6:	3f b6       	in	r3, 0x3f	; 63
    13f8:	01 96       	adiw	r24, 0x01	; 1
    13fa:	f8 94       	cli
    13fc:	2e bc       	out	0x2e, r2	; 46
    13fe:	6e b4       	in	r6, 0x2e	; 46
    1400:	78 94       	sei
    1402:	67 9c       	mul	r6, r7
    1404:	f0 01       	movw	r30, r0
    1406:	ff 5f       	subi	r31, 0xFF	; 255
    1408:	09 94       	ijmp
    140a:	00 00       	nop

0000140c <I_A5__TST16_c1>:
    140c:	30 fa       	bst	r3, 0
    140e:	22 15       	cp	r18, r2
    1410:	32 05       	cpc	r19, r2
    1412:	3f b6       	in	r3, 0x3f	; 63
    1414:	30 f8       	bld	r3, 0
    1416:	01 96       	adiw	r24, 0x01	; 1
    1418:	f8 94       	cli
    141a:	2e bc       	out	0x2e, r2	; 46
    141c:	6e b4       	in	r6, 0x2e	; 46
    141e:	78 94       	sei
    1420:	67 9c       	mul	r6, r7
    1422:	f0 01       	movw	r30, r0
    1424:	ff 5f       	subi	r31, 0xFF	; 255
    1426:	09 94       	ijmp

00001428 <I_A6__CMP16_c1_c2>:
    1428:	00 c0       	rjmp	.+0      	; 0x142a <I_A6__CMP16_c1_c2+0x2>
    142a:	24 17       	cp	r18, r20
    142c:	35 07       	cpc	r19, r21
    142e:	3f b6       	in	r3, 0x3f	; 63
    1430:	01 96       	adiw	r24, 0x01	; 1
    1432:	f8 94       	cli
    1434:	2e bc       	out	0x2e, r2	; 46
    1436:	6e b4       	in	r6, 0x2e	; 46
    1438:	78 94       	sei
    143a:	67 9c       	mul	r6, r7
    143c:	f0 01       	movw	r30, r0
    143e:	ff 5f       	subi	r31, 0xFF	; 255
    1440:	09 94       	ijmp
    1442:	00 00       	nop

00001444 <I_A7__CMP16_c1_c3>:
    1444:	00 c0       	rjmp	.+0      	; 0x1446 <I_A7__CMP16_c1_c3+0x2>
    1446:	26 17       	cp	r18, r22
    1448:	37 07       	cpc	r19, r23
    144a:	3f b6       	in	r3, 0x3f	; 63
    144c:	01 96       	adiw	r24, 0x01	; 1
    144e:	f8 94       	cli
    1450:	2e bc       	out	0x2e, r2	; 46
    1452:	6e b4       	in	r6, 0x2e	; 46
    1454:	78 94       	sei
    1456:	67 9c       	mul	r6, r7
    1458:	f0 01       	movw	r30, r0
    145a:	ff 5f       	subi	r31, 0xFF	; 255
    145c:	09 94       	ijmp
    145e:	00 00       	nop

00001460 <I_A8__CMP16_c2_c0>:
    1460:	00 c0       	rjmp	.+0      	; 0x1462 <I_A8__CMP16_c2_c0+0x2>
    1462:	40 17       	cp	r20, r16
    1464:	51 07       	cpc	r21, r17
    1466:	3f b6       	in	r3, 0x3f	; 63
    1468:	01 96       	adiw	r24, 0x01	; 1
    146a:	f8 94       	cli
    146c:	2e bc       	out	0x2e, r2	; 46
    146e:	6e b4       	in	r6, 0x2e	; 46
    1470:	78 94       	sei
    1472:	67 9c       	mul	r6, r7
    1474:	f0 01       	movw	r30, r0
    1476:	ff 5f       	subi	r31, 0xFF	; 255
    1478:	09 94       	ijmp
    147a:	00 00       	nop

0000147c <I_A9__CMP16_c2_c1>:
    147c:	00 c0       	rjmp	.+0      	; 0x147e <I_A9__CMP16_c2_c1+0x2>
    147e:	42 17       	cp	r20, r18
    1480:	53 07       	cpc	r21, r19
    1482:	3f b6       	in	r3, 0x3f	; 63
    1484:	01 96       	adiw	r24, 0x01	; 1
    1486:	f8 94       	cli
    1488:	2e bc       	out	0x2e, r2	; 46
    148a:	6e b4       	in	r6, 0x2e	; 46
    148c:	78 94       	sei
    148e:	67 9c       	mul	r6, r7
    1490:	f0 01       	movw	r30, r0
    1492:	ff 5f       	subi	r31, 0xFF	; 255
    1494:	09 94       	ijmp
    1496:	00 00       	nop

00001498 <I_AA__TST16_c2>:
    1498:	30 fa       	bst	r3, 0
    149a:	42 15       	cp	r20, r2
    149c:	52 05       	cpc	r21, r2
    149e:	3f b6       	in	r3, 0x3f	; 63
    14a0:	30 f8       	bld	r3, 0
    14a2:	01 96       	adiw	r24, 0x01	; 1
    14a4:	f8 94       	cli
    14a6:	2e bc       	out	0x2e, r2	; 46
    14a8:	6e b4       	in	r6, 0x2e	; 46
    14aa:	78 94       	sei
    14ac:	67 9c       	mul	r6, r7
    14ae:	f0 01       	movw	r30, r0
    14b0:	ff 5f       	subi	r31, 0xFF	; 255
    14b2:	09 94       	ijmp

000014b4 <I_AB__CMP16_c2_c3>:
    14b4:	00 c0       	rjmp	.+0      	; 0x14b6 <I_AB__CMP16_c2_c3+0x2>
    14b6:	46 17       	cp	r20, r22
    14b8:	57 07       	cpc	r21, r23
    14ba:	3f b6       	in	r3, 0x3f	; 63
    14bc:	01 96       	adiw	r24, 0x01	; 1
    14be:	f8 94       	cli
    14c0:	2e bc       	out	0x2e, r2	; 46
    14c2:	6e b4       	in	r6, 0x2e	; 46
    14c4:	78 94       	sei
    14c6:	67 9c       	mul	r6, r7
    14c8:	f0 01       	movw	r30, r0
    14ca:	ff 5f       	subi	r31, 0xFF	; 255
    14cc:	09 94       	ijmp
    14ce:	00 00       	nop

000014d0 <I_AC__CMP16_c3_c0>:
    14d0:	00 c0       	rjmp	.+0      	; 0x14d2 <I_AC__CMP16_c3_c0+0x2>
    14d2:	60 17       	cp	r22, r16
    14d4:	71 07       	cpc	r23, r17
    14d6:	3f b6       	in	r3, 0x3f	; 63
    14d8:	01 96       	adiw	r24, 0x01	; 1
    14da:	f8 94       	cli
    14dc:	2e bc       	out	0x2e, r2	; 46
    14de:	6e b4       	in	r6, 0x2e	; 46
    14e0:	78 94       	sei
    14e2:	67 9c       	mul	r6, r7
    14e4:	f0 01       	movw	r30, r0
    14e6:	ff 5f       	subi	r31, 0xFF	; 255
    14e8:	09 94       	ijmp
    14ea:	00 00       	nop

000014ec <I_AD__CMP16_c3_c1>:
    14ec:	00 c0       	rjmp	.+0      	; 0x14ee <I_AD__CMP16_c3_c1+0x2>
    14ee:	62 17       	cp	r22, r18
    14f0:	73 07       	cpc	r23, r19
    14f2:	3f b6       	in	r3, 0x3f	; 63
    14f4:	01 96       	adiw	r24, 0x01	; 1
    14f6:	f8 94       	cli
    14f8:	2e bc       	out	0x2e, r2	; 46
    14fa:	6e b4       	in	r6, 0x2e	; 46
    14fc:	78 94       	sei
    14fe:	67 9c       	mul	r6, r7
    1500:	f0 01       	movw	r30, r0
    1502:	ff 5f       	subi	r31, 0xFF	; 255
    1504:	09 94       	ijmp
    1506:	00 00       	nop

00001508 <I_AE__CMP16_c3_c2>:
    1508:	00 c0       	rjmp	.+0      	; 0x150a <I_AE__CMP16_c3_c2+0x2>
    150a:	64 17       	cp	r22, r20
    150c:	75 07       	cpc	r23, r21
    150e:	3f b6       	in	r3, 0x3f	; 63
    1510:	01 96       	adiw	r24, 0x01	; 1
    1512:	f8 94       	cli
    1514:	2e bc       	out	0x2e, r2	; 46
    1516:	6e b4       	in	r6, 0x2e	; 46
    1518:	78 94       	sei
    151a:	67 9c       	mul	r6, r7
    151c:	f0 01       	movw	r30, r0
    151e:	ff 5f       	subi	r31, 0xFF	; 255
    1520:	09 94       	ijmp
    1522:	00 00       	nop

00001524 <I_AF__TST16_c3>:
    1524:	30 fa       	bst	r3, 0
    1526:	62 15       	cp	r22, r2
    1528:	72 05       	cpc	r23, r2
    152a:	3f b6       	in	r3, 0x3f	; 63
    152c:	30 f8       	bld	r3, 0
    152e:	01 96       	adiw	r24, 0x01	; 1
    1530:	f8 94       	cli
    1532:	2e bc       	out	0x2e, r2	; 46
    1534:	6e b4       	in	r6, 0x2e	; 46
    1536:	78 94       	sei
    1538:	67 9c       	mul	r6, r7
    153a:	f0 01       	movw	r30, r0
    153c:	ff 5f       	subi	r31, 0xFF	; 255
    153e:	09 94       	ijmp

00001540 <I_B0__TST8_c0>:
    1540:	00 00       	nop
    1542:	30 fa       	bst	r3, 0
    1544:	00 23       	and	r16, r16
    1546:	3f b6       	in	r3, 0x3f	; 63
    1548:	30 f8       	bld	r3, 0
    154a:	01 96       	adiw	r24, 0x01	; 1
    154c:	f8 94       	cli
    154e:	2e bc       	out	0x2e, r2	; 46
    1550:	6e b4       	in	r6, 0x2e	; 46
    1552:	78 94       	sei
    1554:	67 9c       	mul	r6, r7
    1556:	f0 01       	movw	r30, r0
    1558:	ff 5f       	subi	r31, 0xFF	; 255
    155a:	09 94       	ijmp

0000155c <I_B1__CMP8_c0_c1>:
    155c:	c8 95       	lpm
    155e:	02 17       	cp	r16, r18
    1560:	3f b6       	in	r3, 0x3f	; 63
    1562:	01 96       	adiw	r24, 0x01	; 1
    1564:	f8 94       	cli
    1566:	2e bc       	out	0x2e, r2	; 46
    1568:	6e b4       	in	r6, 0x2e	; 46
    156a:	78 94       	sei
    156c:	67 9c       	mul	r6, r7
    156e:	f0 01       	movw	r30, r0
    1570:	ff 5f       	subi	r31, 0xFF	; 255
    1572:	09 94       	ijmp
    1574:	00 00       	nop
    1576:	00 00       	nop

00001578 <I_B2__CMP8_c0_c2>:
    1578:	c8 95       	lpm
    157a:	04 17       	cp	r16, r20
    157c:	3f b6       	in	r3, 0x3f	; 63
    157e:	01 96       	adiw	r24, 0x01	; 1
    1580:	f8 94       	cli
    1582:	2e bc       	out	0x2e, r2	; 46
    1584:	6e b4       	in	r6, 0x2e	; 46
    1586:	78 94       	sei
    1588:	67 9c       	mul	r6, r7
    158a:	f0 01       	movw	r30, r0
    158c:	ff 5f       	subi	r31, 0xFF	; 255
    158e:	09 94       	ijmp
    1590:	00 00       	nop
    1592:	00 00       	nop

00001594 <I_B3__CMP8_c0_c3>:
    1594:	c8 95       	lpm
    1596:	06 17       	cp	r16, r22
    1598:	3f b6       	in	r3, 0x3f	; 63
    159a:	01 96       	adiw	r24, 0x01	; 1
    159c:	f8 94       	cli
    159e:	2e bc       	out	0x2e, r2	; 46
    15a0:	6e b4       	in	r6, 0x2e	; 46
    15a2:	78 94       	sei
    15a4:	67 9c       	mul	r6, r7
    15a6:	f0 01       	movw	r30, r0
    15a8:	ff 5f       	subi	r31, 0xFF	; 255
    15aa:	09 94       	ijmp
    15ac:	00 00       	nop
    15ae:	00 00       	nop

000015b0 <I_B4__CMP8_c1_c0>:
    15b0:	c8 95       	lpm
    15b2:	20 17       	cp	r18, r16
    15b4:	3f b6       	in	r3, 0x3f	; 63
    15b6:	01 96       	adiw	r24, 0x01	; 1
    15b8:	f8 94       	cli
    15ba:	2e bc       	out	0x2e, r2	; 46
    15bc:	6e b4       	in	r6, 0x2e	; 46
    15be:	78 94       	sei
    15c0:	67 9c       	mul	r6, r7
    15c2:	f0 01       	movw	r30, r0
    15c4:	ff 5f       	subi	r31, 0xFF	; 255
    15c6:	09 94       	ijmp
    15c8:	00 00       	nop
    15ca:	00 00       	nop

000015cc <I_B5__TST8_c1>:
    15cc:	00 00       	nop
    15ce:	30 fa       	bst	r3, 0
    15d0:	22 23       	and	r18, r18
    15d2:	3f b6       	in	r3, 0x3f	; 63
    15d4:	30 f8       	bld	r3, 0
    15d6:	01 96       	adiw	r24, 0x01	; 1
    15d8:	f8 94       	cli
    15da:	2e bc       	out	0x2e, r2	; 46
    15dc:	6e b4       	in	r6, 0x2e	; 46
    15de:	78 94       	sei
    15e0:	67 9c       	mul	r6, r7
    15e2:	f0 01       	movw	r30, r0
    15e4:	ff 5f       	subi	r31, 0xFF	; 255
    15e6:	09 94       	ijmp

000015e8 <I_B6__CMP8_c1_c2>:
    15e8:	c8 95       	lpm
    15ea:	24 17       	cp	r18, r20
    15ec:	3f b6       	in	r3, 0x3f	; 63
    15ee:	01 96       	adiw	r24, 0x01	; 1
    15f0:	f8 94       	cli
    15f2:	2e bc       	out	0x2e, r2	; 46
    15f4:	6e b4       	in	r6, 0x2e	; 46
    15f6:	78 94       	sei
    15f8:	67 9c       	mul	r6, r7
    15fa:	f0 01       	movw	r30, r0
    15fc:	ff 5f       	subi	r31, 0xFF	; 255
    15fe:	09 94       	ijmp
    1600:	00 00       	nop
    1602:	00 00       	nop

00001604 <I_B7__CMP8_c1_c3>:
    1604:	c8 95       	lpm
    1606:	26 17       	cp	r18, r22
    1608:	3f b6       	in	r3, 0x3f	; 63
    160a:	01 96       	adiw	r24, 0x01	; 1
    160c:	f8 94       	cli
    160e:	2e bc       	out	0x2e, r2	; 46
    1610:	6e b4       	in	r6, 0x2e	; 46
    1612:	78 94       	sei
    1614:	67 9c       	mul	r6, r7
    1616:	f0 01       	movw	r30, r0
    1618:	ff 5f       	subi	r31, 0xFF	; 255
    161a:	09 94       	ijmp
    161c:	00 00       	nop
    161e:	00 00       	nop

00001620 <I_B8__CMP8_c2_c0>:
    1620:	c8 95       	lpm
    1622:	40 17       	cp	r20, r16
    1624:	3f b6       	in	r3, 0x3f	; 63
    1626:	01 96       	adiw	r24, 0x01	; 1
    1628:	f8 94       	cli
    162a:	2e bc       	out	0x2e, r2	; 46
    162c:	6e b4       	in	r6, 0x2e	; 46
    162e:	78 94       	sei
    1630:	67 9c       	mul	r6, r7
    1632:	f0 01       	movw	r30, r0
    1634:	ff 5f       	subi	r31, 0xFF	; 255
    1636:	09 94       	ijmp
    1638:	00 00       	nop
    163a:	00 00       	nop

0000163c <I_B9__CMP8_c2_c1>:
    163c:	c8 95       	lpm
    163e:	42 17       	cp	r20, r18
    1640:	3f b6       	in	r3, 0x3f	; 63
    1642:	01 96       	adiw	r24, 0x01	; 1
    1644:	f8 94       	cli
    1646:	2e bc       	out	0x2e, r2	; 46
    1648:	6e b4       	in	r6, 0x2e	; 46
    164a:	78 94       	sei
    164c:	67 9c       	mul	r6, r7
    164e:	f0 01       	movw	r30, r0
    1650:	ff 5f       	subi	r31, 0xFF	; 255
    1652:	09 94       	ijmp
    1654:	00 00       	nop
    1656:	00 00       	nop

00001658 <I_BA__TST8_c2>:
    1658:	00 00       	nop
    165a:	30 fa       	bst	r3, 0
    165c:	44 23       	and	r20, r20
    165e:	3f b6       	in	r3, 0x3f	; 63
    1660:	30 f8       	bld	r3, 0
    1662:	01 96       	adiw	r24, 0x01	; 1
    1664:	f8 94       	cli
    1666:	2e bc       	out	0x2e, r2	; 46
    1668:	6e b4       	in	r6, 0x2e	; 46
    166a:	78 94       	sei
    166c:	67 9c       	mul	r6, r7
    166e:	f0 01       	movw	r30, r0
    1670:	ff 5f       	subi	r31, 0xFF	; 255
    1672:	09 94       	ijmp

00001674 <I_BB__CMP8_c2_c3>:
    1674:	c8 95       	lpm
    1676:	46 17       	cp	r20, r22
    1678:	3f b6       	in	r3, 0x3f	; 63
    167a:	01 96       	adiw	r24, 0x01	; 1
    167c:	f8 94       	cli
    167e:	2e bc       	out	0x2e, r2	; 46
    1680:	6e b4       	in	r6, 0x2e	; 46
    1682:	78 94       	sei
    1684:	67 9c       	mul	r6, r7
    1686:	f0 01       	movw	r30, r0
    1688:	ff 5f       	subi	r31, 0xFF	; 255
    168a:	09 94       	ijmp
    168c:	00 00       	nop
    168e:	00 00       	nop

00001690 <I_BC__CMP8_c3_c0>:
    1690:	c8 95       	lpm
    1692:	60 17       	cp	r22, r16
    1694:	3f b6       	in	r3, 0x3f	; 63
    1696:	01 96       	adiw	r24, 0x01	; 1
    1698:	f8 94       	cli
    169a:	2e bc       	out	0x2e, r2	; 46
    169c:	6e b4       	in	r6, 0x2e	; 46
    169e:	78 94       	sei
    16a0:	67 9c       	mul	r6, r7
    16a2:	f0 01       	movw	r30, r0
    16a4:	ff 5f       	subi	r31, 0xFF	; 255
    16a6:	09 94       	ijmp
    16a8:	00 00       	nop
    16aa:	00 00       	nop

000016ac <I_BD__CMP8_c3_c1>:
    16ac:	c8 95       	lpm
    16ae:	62 17       	cp	r22, r18
    16b0:	3f b6       	in	r3, 0x3f	; 63
    16b2:	01 96       	adiw	r24, 0x01	; 1
    16b4:	f8 94       	cli
    16b6:	2e bc       	out	0x2e, r2	; 46
    16b8:	6e b4       	in	r6, 0x2e	; 46
    16ba:	78 94       	sei
    16bc:	67 9c       	mul	r6, r7
    16be:	f0 01       	movw	r30, r0
    16c0:	ff 5f       	subi	r31, 0xFF	; 255
    16c2:	09 94       	ijmp
    16c4:	00 00       	nop
    16c6:	00 00       	nop

000016c8 <I_BE__CMP8_c3_c2>:
    16c8:	c8 95       	lpm
    16ca:	64 17       	cp	r22, r20
    16cc:	3f b6       	in	r3, 0x3f	; 63
    16ce:	01 96       	adiw	r24, 0x01	; 1
    16d0:	f8 94       	cli
    16d2:	2e bc       	out	0x2e, r2	; 46
    16d4:	6e b4       	in	r6, 0x2e	; 46
    16d6:	78 94       	sei
    16d8:	67 9c       	mul	r6, r7
    16da:	f0 01       	movw	r30, r0
    16dc:	ff 5f       	subi	r31, 0xFF	; 255
    16de:	09 94       	ijmp
    16e0:	00 00       	nop
    16e2:	00 00       	nop

000016e4 <I_BF__TST8_c3>:
    16e4:	00 00       	nop
    16e6:	30 fa       	bst	r3, 0
    16e8:	66 23       	and	r22, r22
    16ea:	3f b6       	in	r3, 0x3f	; 63
    16ec:	30 f8       	bld	r3, 0
    16ee:	01 96       	adiw	r24, 0x01	; 1
    16f0:	f8 94       	cli
    16f2:	2e bc       	out	0x2e, r2	; 46
    16f4:	6e b4       	in	r6, 0x2e	; 46
    16f6:	78 94       	sei
    16f8:	67 9c       	mul	r6, r7
    16fa:	f0 01       	movw	r30, r0
    16fc:	ff 5f       	subi	r31, 0xFF	; 255
    16fe:	09 94       	ijmp

00001700 <I_C0__BEQ_S_m8>:
    1700:	31 fe       	sbrs	r3, 1
    1702:	80 c3       	rjmp	.+1792   	; 0x1e04 <branch_short_dispatch_reverse_func>
    1704:	01 96       	adiw	r24, 0x01	; 1
    1706:	88 50       	subi	r24, 0x08	; 8
    1708:	90 40       	sbci	r25, 0x00	; 0
    170a:	bd d3       	rcall	.+1914   	; 0x1e86 <fx_seek_to_pc>
    170c:	6e b4       	in	r6, 0x2e	; 46
    170e:	2e bc       	out	0x2e, r2	; 46
    1710:	67 9c       	mul	r6, r7
    1712:	f0 01       	movw	r30, r0
    1714:	fe 5f       	subi	r31, 0xFE	; 254
    1716:	09 94       	ijmp
    1718:	00 00       	nop
    171a:	00 00       	nop

0000171c <I_C1__BEQ_S_m7>:
    171c:	31 fe       	sbrs	r3, 1
    171e:	72 c3       	rjmp	.+1764   	; 0x1e04 <branch_short_dispatch_reverse_func>
    1720:	01 96       	adiw	r24, 0x01	; 1
    1722:	87 50       	subi	r24, 0x07	; 7
    1724:	90 40       	sbci	r25, 0x00	; 0
    1726:	af d3       	rcall	.+1886   	; 0x1e86 <fx_seek_to_pc>
    1728:	6e b4       	in	r6, 0x2e	; 46
    172a:	2e bc       	out	0x2e, r2	; 46
    172c:	67 9c       	mul	r6, r7
    172e:	f0 01       	movw	r30, r0
    1730:	fe 5f       	subi	r31, 0xFE	; 254
    1732:	09 94       	ijmp
    1734:	00 00       	nop
    1736:	00 00       	nop

00001738 <I_C2__BEQ_S_m6>:
    1738:	31 fe       	sbrs	r3, 1
    173a:	64 c3       	rjmp	.+1736   	; 0x1e04 <branch_short_dispatch_reverse_func>
    173c:	01 96       	adiw	r24, 0x01	; 1
    173e:	86 50       	subi	r24, 0x06	; 6
    1740:	90 40       	sbci	r25, 0x00	; 0
    1742:	a1 d3       	rcall	.+1858   	; 0x1e86 <fx_seek_to_pc>
    1744:	6e b4       	in	r6, 0x2e	; 46
    1746:	2e bc       	out	0x2e, r2	; 46
    1748:	67 9c       	mul	r6, r7
    174a:	f0 01       	movw	r30, r0
    174c:	fe 5f       	subi	r31, 0xFE	; 254
    174e:	09 94       	ijmp
    1750:	00 00       	nop
    1752:	00 00       	nop

00001754 <I_C3__BEQ_S_m5>:
    1754:	31 fe       	sbrs	r3, 1
    1756:	56 c3       	rjmp	.+1708   	; 0x1e04 <branch_short_dispatch_reverse_func>
    1758:	01 96       	adiw	r24, 0x01	; 1
    175a:	85 50       	subi	r24, 0x05	; 5
    175c:	90 40       	sbci	r25, 0x00	; 0
    175e:	93 d3       	rcall	.+1830   	; 0x1e86 <fx_seek_to_pc>
    1760:	6e b4       	in	r6, 0x2e	; 46
    1762:	2e bc       	out	0x2e, r2	; 46
    1764:	67 9c       	mul	r6, r7
    1766:	f0 01       	movw	r30, r0
    1768:	fe 5f       	subi	r31, 0xFE	; 254
    176a:	09 94       	ijmp
    176c:	00 00       	nop
    176e:	00 00       	nop

00001770 <I_C4__BEQ_S_m4>:
    1770:	31 fe       	sbrs	r3, 1
    1772:	48 c3       	rjmp	.+1680   	; 0x1e04 <branch_short_dispatch_reverse_func>
    1774:	01 96       	adiw	r24, 0x01	; 1
    1776:	84 50       	subi	r24, 0x04	; 4
    1778:	90 40       	sbci	r25, 0x00	; 0
    177a:	85 d3       	rcall	.+1802   	; 0x1e86 <fx_seek_to_pc>
    177c:	6e b4       	in	r6, 0x2e	; 46
    177e:	2e bc       	out	0x2e, r2	; 46
    1780:	67 9c       	mul	r6, r7
    1782:	f0 01       	movw	r30, r0
    1784:	fe 5f       	subi	r31, 0xFE	; 254
    1786:	09 94       	ijmp
    1788:	00 00       	nop
    178a:	00 00       	nop

0000178c <I_C5__BEQ_S_m3>:
    178c:	31 fe       	sbrs	r3, 1
    178e:	3a c3       	rjmp	.+1652   	; 0x1e04 <branch_short_dispatch_reverse_func>
    1790:	01 96       	adiw	r24, 0x01	; 1
    1792:	83 50       	subi	r24, 0x03	; 3
    1794:	90 40       	sbci	r25, 0x00	; 0
    1796:	77 d3       	rcall	.+1774   	; 0x1e86 <fx_seek_to_pc>
    1798:	6e b4       	in	r6, 0x2e	; 46
    179a:	2e bc       	out	0x2e, r2	; 46
    179c:	67 9c       	mul	r6, r7
    179e:	f0 01       	movw	r30, r0
    17a0:	fe 5f       	subi	r31, 0xFE	; 254
    17a2:	09 94       	ijmp
    17a4:	00 00       	nop
    17a6:	00 00       	nop

000017a8 <I_C6__BEQ_S_m2>:
    17a8:	31 fe       	sbrs	r3, 1
    17aa:	2c c3       	rjmp	.+1624   	; 0x1e04 <branch_short_dispatch_reverse_func>
    17ac:	01 96       	adiw	r24, 0x01	; 1
    17ae:	82 50       	subi	r24, 0x02	; 2
    17b0:	90 40       	sbci	r25, 0x00	; 0
    17b2:	69 d3       	rcall	.+1746   	; 0x1e86 <fx_seek_to_pc>
    17b4:	6e b4       	in	r6, 0x2e	; 46
    17b6:	2e bc       	out	0x2e, r2	; 46
    17b8:	67 9c       	mul	r6, r7
    17ba:	f0 01       	movw	r30, r0
    17bc:	fe 5f       	subi	r31, 0xFE	; 254
    17be:	09 94       	ijmp
    17c0:	00 00       	nop
    17c2:	00 00       	nop

000017c4 <I_C7__BEQ_S_m1>:
    17c4:	31 fe       	sbrs	r3, 1
    17c6:	1e c3       	rjmp	.+1596   	; 0x1e04 <branch_short_dispatch_reverse_func>
    17c8:	01 96       	adiw	r24, 0x01	; 1
    17ca:	81 50       	subi	r24, 0x01	; 1
    17cc:	90 40       	sbci	r25, 0x00	; 0
    17ce:	5b d3       	rcall	.+1718   	; 0x1e86 <fx_seek_to_pc>
    17d0:	6e b4       	in	r6, 0x2e	; 46
    17d2:	2e bc       	out	0x2e, r2	; 46
    17d4:	67 9c       	mul	r6, r7
    17d6:	f0 01       	movw	r30, r0
    17d8:	fe 5f       	subi	r31, 0xFE	; 254
    17da:	09 94       	ijmp
    17dc:	00 00       	nop
    17de:	00 00       	nop

000017e0 <I_C8__BEQ_S_p1>:
    17e0:	31 fe       	sbrs	r3, 1
    17e2:	10 c3       	rjmp	.+1568   	; 0x1e04 <branch_short_dispatch_reverse_func>
    17e4:	01 96       	adiw	r24, 0x01	; 1
    17e6:	8f 5f       	subi	r24, 0xFF	; 255
    17e8:	9f 4f       	sbci	r25, 0xFF	; 255
    17ea:	4d d3       	rcall	.+1690   	; 0x1e86 <fx_seek_to_pc>
    17ec:	6e b4       	in	r6, 0x2e	; 46
    17ee:	2e bc       	out	0x2e, r2	; 46
    17f0:	67 9c       	mul	r6, r7
    17f2:	f0 01       	movw	r30, r0
    17f4:	fe 5f       	subi	r31, 0xFE	; 254
    17f6:	09 94       	ijmp
    17f8:	00 00       	nop
    17fa:	00 00       	nop

000017fc <I_C9__BEQ_S_p2>:
    17fc:	31 fe       	sbrs	r3, 1
    17fe:	02 c3       	rjmp	.+1540   	; 0x1e04 <branch_short_dispatch_reverse_func>
    1800:	01 96       	adiw	r24, 0x01	; 1
    1802:	8e 5f       	subi	r24, 0xFE	; 254
    1804:	9f 4f       	sbci	r25, 0xFF	; 255
    1806:	3f d3       	rcall	.+1662   	; 0x1e86 <fx_seek_to_pc>
    1808:	6e b4       	in	r6, 0x2e	; 46
    180a:	2e bc       	out	0x2e, r2	; 46
    180c:	67 9c       	mul	r6, r7
    180e:	f0 01       	movw	r30, r0
    1810:	fe 5f       	subi	r31, 0xFE	; 254
    1812:	09 94       	ijmp
    1814:	00 00       	nop
    1816:	00 00       	nop

00001818 <I_CA__BEQ_S_p3>:
    1818:	31 fe       	sbrs	r3, 1
    181a:	f4 c2       	rjmp	.+1512   	; 0x1e04 <branch_short_dispatch_reverse_func>
    181c:	01 96       	adiw	r24, 0x01	; 1
    181e:	8d 5f       	subi	r24, 0xFD	; 253
    1820:	9f 4f       	sbci	r25, 0xFF	; 255
    1822:	31 d3       	rcall	.+1634   	; 0x1e86 <fx_seek_to_pc>
    1824:	6e b4       	in	r6, 0x2e	; 46
    1826:	2e bc       	out	0x2e, r2	; 46
    1828:	67 9c       	mul	r6, r7
    182a:	f0 01       	movw	r30, r0
    182c:	fe 5f       	subi	r31, 0xFE	; 254
    182e:	09 94       	ijmp
    1830:	00 00       	nop
    1832:	00 00       	nop

00001834 <I_CB__BEQ_S_p4>:
    1834:	31 fe       	sbrs	r3, 1
    1836:	e6 c2       	rjmp	.+1484   	; 0x1e04 <branch_short_dispatch_reverse_func>
    1838:	01 96       	adiw	r24, 0x01	; 1
    183a:	8c 5f       	subi	r24, 0xFC	; 252
    183c:	9f 4f       	sbci	r25, 0xFF	; 255
    183e:	23 d3       	rcall	.+1606   	; 0x1e86 <fx_seek_to_pc>
    1840:	6e b4       	in	r6, 0x2e	; 46
    1842:	2e bc       	out	0x2e, r2	; 46
    1844:	67 9c       	mul	r6, r7
    1846:	f0 01       	movw	r30, r0
    1848:	fe 5f       	subi	r31, 0xFE	; 254
    184a:	09 94       	ijmp
    184c:	00 00       	nop
    184e:	00 00       	nop

00001850 <I_CC__BEQ_S_p5>:
    1850:	31 fe       	sbrs	r3, 1
    1852:	d8 c2       	rjmp	.+1456   	; 0x1e04 <branch_short_dispatch_reverse_func>
    1854:	01 96       	adiw	r24, 0x01	; 1
    1856:	8b 5f       	subi	r24, 0xFB	; 251
    1858:	9f 4f       	sbci	r25, 0xFF	; 255
    185a:	15 d3       	rcall	.+1578   	; 0x1e86 <fx_seek_to_pc>
    185c:	6e b4       	in	r6, 0x2e	; 46
    185e:	2e bc       	out	0x2e, r2	; 46
    1860:	67 9c       	mul	r6, r7
    1862:	f0 01       	movw	r30, r0
    1864:	fe 5f       	subi	r31, 0xFE	; 254
    1866:	09 94       	ijmp
    1868:	00 00       	nop
    186a:	00 00       	nop

0000186c <I_CD__BEQ_S_p6>:
    186c:	31 fe       	sbrs	r3, 1
    186e:	ca c2       	rjmp	.+1428   	; 0x1e04 <branch_short_dispatch_reverse_func>
    1870:	01 96       	adiw	r24, 0x01	; 1
    1872:	8a 5f       	subi	r24, 0xFA	; 250
    1874:	9f 4f       	sbci	r25, 0xFF	; 255
    1876:	07 d3       	rcall	.+1550   	; 0x1e86 <fx_seek_to_pc>
    1878:	6e b4       	in	r6, 0x2e	; 46
    187a:	2e bc       	out	0x2e, r2	; 46
    187c:	67 9c       	mul	r6, r7
    187e:	f0 01       	movw	r30, r0
    1880:	fe 5f       	subi	r31, 0xFE	; 254
    1882:	09 94       	ijmp
    1884:	00 00       	nop
    1886:	00 00       	nop

00001888 <I_CE__BEQ_S_p7>:
    1888:	31 fe       	sbrs	r3, 1
    188a:	bc c2       	rjmp	.+1400   	; 0x1e04 <branch_short_dispatch_reverse_func>
    188c:	01 96       	adiw	r24, 0x01	; 1
    188e:	89 5f       	subi	r24, 0xF9	; 249
    1890:	9f 4f       	sbci	r25, 0xFF	; 255
    1892:	f9 d2       	rcall	.+1522   	; 0x1e86 <fx_seek_to_pc>
    1894:	6e b4       	in	r6, 0x2e	; 46
    1896:	2e bc       	out	0x2e, r2	; 46
    1898:	67 9c       	mul	r6, r7
    189a:	f0 01       	movw	r30, r0
    189c:	fe 5f       	subi	r31, 0xFE	; 254
    189e:	09 94       	ijmp
    18a0:	00 00       	nop
    18a2:	00 00       	nop

000018a4 <I_CF__BEQ_S_p8>:
    18a4:	31 fe       	sbrs	r3, 1
    18a6:	ae c2       	rjmp	.+1372   	; 0x1e04 <branch_short_dispatch_reverse_func>
    18a8:	01 96       	adiw	r24, 0x01	; 1
    18aa:	88 5f       	subi	r24, 0xF8	; 248
    18ac:	9f 4f       	sbci	r25, 0xFF	; 255
    18ae:	eb d2       	rcall	.+1494   	; 0x1e86 <fx_seek_to_pc>
    18b0:	6e b4       	in	r6, 0x2e	; 46
    18b2:	2e bc       	out	0x2e, r2	; 46
    18b4:	67 9c       	mul	r6, r7
    18b6:	f0 01       	movw	r30, r0
    18b8:	fe 5f       	subi	r31, 0xFE	; 254
    18ba:	09 94       	ijmp
    18bc:	00 00       	nop
    18be:	00 00       	nop

000018c0 <I_D0__BNE_S_m8>:
    18c0:	31 fc       	sbrc	r3, 1
    18c2:	a0 c2       	rjmp	.+1344   	; 0x1e04 <branch_short_dispatch_reverse_func>
    18c4:	01 96       	adiw	r24, 0x01	; 1
    18c6:	88 50       	subi	r24, 0x08	; 8
    18c8:	90 40       	sbci	r25, 0x00	; 0
    18ca:	dd d2       	rcall	.+1466   	; 0x1e86 <fx_seek_to_pc>
    18cc:	6e b4       	in	r6, 0x2e	; 46
    18ce:	2e bc       	out	0x2e, r2	; 46
    18d0:	67 9c       	mul	r6, r7
    18d2:	f0 01       	movw	r30, r0
    18d4:	fe 5f       	subi	r31, 0xFE	; 254
    18d6:	09 94       	ijmp
    18d8:	00 00       	nop
    18da:	00 00       	nop

000018dc <I_D1__BNE_S_m7>:
    18dc:	31 fc       	sbrc	r3, 1
    18de:	92 c2       	rjmp	.+1316   	; 0x1e04 <branch_short_dispatch_reverse_func>
    18e0:	01 96       	adiw	r24, 0x01	; 1
    18e2:	87 50       	subi	r24, 0x07	; 7
    18e4:	90 40       	sbci	r25, 0x00	; 0
    18e6:	cf d2       	rcall	.+1438   	; 0x1e86 <fx_seek_to_pc>
    18e8:	6e b4       	in	r6, 0x2e	; 46
    18ea:	2e bc       	out	0x2e, r2	; 46
    18ec:	67 9c       	mul	r6, r7
    18ee:	f0 01       	movw	r30, r0
    18f0:	fe 5f       	subi	r31, 0xFE	; 254
    18f2:	09 94       	ijmp
    18f4:	00 00       	nop
    18f6:	00 00       	nop

000018f8 <I_D2__BNE_S_m6>:
    18f8:	31 fc       	sbrc	r3, 1
    18fa:	84 c2       	rjmp	.+1288   	; 0x1e04 <branch_short_dispatch_reverse_func>
    18fc:	01 96       	adiw	r24, 0x01	; 1
    18fe:	86 50       	subi	r24, 0x06	; 6
    1900:	90 40       	sbci	r25, 0x00	; 0
    1902:	c1 d2       	rcall	.+1410   	; 0x1e86 <fx_seek_to_pc>
    1904:	6e b4       	in	r6, 0x2e	; 46
    1906:	2e bc       	out	0x2e, r2	; 46
    1908:	67 9c       	mul	r6, r7
    190a:	f0 01       	movw	r30, r0
    190c:	fe 5f       	subi	r31, 0xFE	; 254
    190e:	09 94       	ijmp
    1910:	00 00       	nop
    1912:	00 00       	nop

00001914 <I_D3__BNE_S_m5>:
    1914:	31 fc       	sbrc	r3, 1
    1916:	76 c2       	rjmp	.+1260   	; 0x1e04 <branch_short_dispatch_reverse_func>
    1918:	01 96       	adiw	r24, 0x01	; 1
    191a:	85 50       	subi	r24, 0x05	; 5
    191c:	90 40       	sbci	r25, 0x00	; 0
    191e:	b3 d2       	rcall	.+1382   	; 0x1e86 <fx_seek_to_pc>
    1920:	6e b4       	in	r6, 0x2e	; 46
    1922:	2e bc       	out	0x2e, r2	; 46
    1924:	67 9c       	mul	r6, r7
    1926:	f0 01       	movw	r30, r0
    1928:	fe 5f       	subi	r31, 0xFE	; 254
    192a:	09 94       	ijmp
    192c:	00 00       	nop
    192e:	00 00       	nop

00001930 <I_D4__BNE_S_m4>:
    1930:	31 fc       	sbrc	r3, 1
    1932:	68 c2       	rjmp	.+1232   	; 0x1e04 <branch_short_dispatch_reverse_func>
    1934:	01 96       	adiw	r24, 0x01	; 1
    1936:	84 50       	subi	r24, 0x04	; 4
    1938:	90 40       	sbci	r25, 0x00	; 0
    193a:	a5 d2       	rcall	.+1354   	; 0x1e86 <fx_seek_to_pc>
    193c:	6e b4       	in	r6, 0x2e	; 46
    193e:	2e bc       	out	0x2e, r2	; 46
    1940:	67 9c       	mul	r6, r7
    1942:	f0 01       	movw	r30, r0
    1944:	fe 5f       	subi	r31, 0xFE	; 254
    1946:	09 94       	ijmp
    1948:	00 00       	nop
    194a:	00 00       	nop

0000194c <I_D5__BNE_S_m3>:
    194c:	31 fc       	sbrc	r3, 1
    194e:	5a c2       	rjmp	.+1204   	; 0x1e04 <branch_short_dispatch_reverse_func>
    1950:	01 96       	adiw	r24, 0x01	; 1
    1952:	83 50       	subi	r24, 0x03	; 3
    1954:	90 40       	sbci	r25, 0x00	; 0
    1956:	97 d2       	rcall	.+1326   	; 0x1e86 <fx_seek_to_pc>
    1958:	6e b4       	in	r6, 0x2e	; 46
    195a:	2e bc       	out	0x2e, r2	; 46
    195c:	67 9c       	mul	r6, r7
    195e:	f0 01       	movw	r30, r0
    1960:	fe 5f       	subi	r31, 0xFE	; 254
    1962:	09 94       	ijmp
    1964:	00 00       	nop
    1966:	00 00       	nop

00001968 <I_D6__BNE_S_m2>:
    1968:	31 fc       	sbrc	r3, 1
    196a:	4c c2       	rjmp	.+1176   	; 0x1e04 <branch_short_dispatch_reverse_func>
    196c:	01 96       	adiw	r24, 0x01	; 1
    196e:	82 50       	subi	r24, 0x02	; 2
    1970:	90 40       	sbci	r25, 0x00	; 0
    1972:	89 d2       	rcall	.+1298   	; 0x1e86 <fx_seek_to_pc>
    1974:	6e b4       	in	r6, 0x2e	; 46
    1976:	2e bc       	out	0x2e, r2	; 46
    1978:	67 9c       	mul	r6, r7
    197a:	f0 01       	movw	r30, r0
    197c:	fe 5f       	subi	r31, 0xFE	; 254
    197e:	09 94       	ijmp
    1980:	00 00       	nop
    1982:	00 00       	nop

00001984 <I_D7__BNE_S_m1>:
    1984:	31 fc       	sbrc	r3, 1
    1986:	3e c2       	rjmp	.+1148   	; 0x1e04 <branch_short_dispatch_reverse_func>
    1988:	01 96       	adiw	r24, 0x01	; 1
    198a:	81 50       	subi	r24, 0x01	; 1
    198c:	90 40       	sbci	r25, 0x00	; 0
    198e:	7b d2       	rcall	.+1270   	; 0x1e86 <fx_seek_to_pc>
    1990:	6e b4       	in	r6, 0x2e	; 46
    1992:	2e bc       	out	0x2e, r2	; 46
    1994:	67 9c       	mul	r6, r7
    1996:	f0 01       	movw	r30, r0
    1998:	fe 5f       	subi	r31, 0xFE	; 254
    199a:	09 94       	ijmp
    199c:	00 00       	nop
    199e:	00 00       	nop

000019a0 <I_D8__BNE_S_p1>:
    19a0:	31 fc       	sbrc	r3, 1
    19a2:	30 c2       	rjmp	.+1120   	; 0x1e04 <branch_short_dispatch_reverse_func>
    19a4:	01 96       	adiw	r24, 0x01	; 1
    19a6:	8f 5f       	subi	r24, 0xFF	; 255
    19a8:	9f 4f       	sbci	r25, 0xFF	; 255
    19aa:	6d d2       	rcall	.+1242   	; 0x1e86 <fx_seek_to_pc>
    19ac:	6e b4       	in	r6, 0x2e	; 46
    19ae:	2e bc       	out	0x2e, r2	; 46
    19b0:	67 9c       	mul	r6, r7
    19b2:	f0 01       	movw	r30, r0
    19b4:	fe 5f       	subi	r31, 0xFE	; 254
    19b6:	09 94       	ijmp
    19b8:	00 00       	nop
    19ba:	00 00       	nop

000019bc <I_D9__BNE_S_p2>:
    19bc:	31 fc       	sbrc	r3, 1
    19be:	22 c2       	rjmp	.+1092   	; 0x1e04 <branch_short_dispatch_reverse_func>
    19c0:	01 96       	adiw	r24, 0x01	; 1
    19c2:	8e 5f       	subi	r24, 0xFE	; 254
    19c4:	9f 4f       	sbci	r25, 0xFF	; 255
    19c6:	5f d2       	rcall	.+1214   	; 0x1e86 <fx_seek_to_pc>
    19c8:	6e b4       	in	r6, 0x2e	; 46
    19ca:	2e bc       	out	0x2e, r2	; 46
    19cc:	67 9c       	mul	r6, r7
    19ce:	f0 01       	movw	r30, r0
    19d0:	fe 5f       	subi	r31, 0xFE	; 254
    19d2:	09 94       	ijmp
    19d4:	00 00       	nop
    19d6:	00 00       	nop

000019d8 <I_DA__BNE_S_p3>:
    19d8:	31 fc       	sbrc	r3, 1
    19da:	14 c2       	rjmp	.+1064   	; 0x1e04 <branch_short_dispatch_reverse_func>
    19dc:	01 96       	adiw	r24, 0x01	; 1
    19de:	8d 5f       	subi	r24, 0xFD	; 253
    19e0:	9f 4f       	sbci	r25, 0xFF	; 255
    19e2:	51 d2       	rcall	.+1186   	; 0x1e86 <fx_seek_to_pc>
    19e4:	6e b4       	in	r6, 0x2e	; 46
    19e6:	2e bc       	out	0x2e, r2	; 46
    19e8:	67 9c       	mul	r6, r7
    19ea:	f0 01       	movw	r30, r0
    19ec:	fe 5f       	subi	r31, 0xFE	; 254
    19ee:	09 94       	ijmp
    19f0:	00 00       	nop
    19f2:	00 00       	nop

000019f4 <I_DB__BNE_S_p4>:
    19f4:	31 fc       	sbrc	r3, 1
    19f6:	06 c2       	rjmp	.+1036   	; 0x1e04 <branch_short_dispatch_reverse_func>
    19f8:	01 96       	adiw	r24, 0x01	; 1
    19fa:	8c 5f       	subi	r24, 0xFC	; 252
    19fc:	9f 4f       	sbci	r25, 0xFF	; 255
    19fe:	43 d2       	rcall	.+1158   	; 0x1e86 <fx_seek_to_pc>
    1a00:	6e b4       	in	r6, 0x2e	; 46
    1a02:	2e bc       	out	0x2e, r2	; 46
    1a04:	67 9c       	mul	r6, r7
    1a06:	f0 01       	movw	r30, r0
    1a08:	fe 5f       	subi	r31, 0xFE	; 254
    1a0a:	09 94       	ijmp
    1a0c:	00 00       	nop
    1a0e:	00 00       	nop

00001a10 <I_DC__BNE_S_p5>:
    1a10:	31 fc       	sbrc	r3, 1
    1a12:	f8 c1       	rjmp	.+1008   	; 0x1e04 <branch_short_dispatch_reverse_func>
    1a14:	01 96       	adiw	r24, 0x01	; 1
    1a16:	8b 5f       	subi	r24, 0xFB	; 251
    1a18:	9f 4f       	sbci	r25, 0xFF	; 255
    1a1a:	35 d2       	rcall	.+1130   	; 0x1e86 <fx_seek_to_pc>
    1a1c:	6e b4       	in	r6, 0x2e	; 46
    1a1e:	2e bc       	out	0x2e, r2	; 46
    1a20:	67 9c       	mul	r6, r7
    1a22:	f0 01       	movw	r30, r0
    1a24:	fe 5f       	subi	r31, 0xFE	; 254
    1a26:	09 94       	ijmp
    1a28:	00 00       	nop
    1a2a:	00 00       	nop

00001a2c <I_DD__BNE_S_p6>:
    1a2c:	31 fc       	sbrc	r3, 1
    1a2e:	ea c1       	rjmp	.+980    	; 0x1e04 <branch_short_dispatch_reverse_func>
    1a30:	01 96       	adiw	r24, 0x01	; 1
    1a32:	8a 5f       	subi	r24, 0xFA	; 250
    1a34:	9f 4f       	sbci	r25, 0xFF	; 255
    1a36:	27 d2       	rcall	.+1102   	; 0x1e86 <fx_seek_to_pc>
    1a38:	6e b4       	in	r6, 0x2e	; 46
    1a3a:	2e bc       	out	0x2e, r2	; 46
    1a3c:	67 9c       	mul	r6, r7
    1a3e:	f0 01       	movw	r30, r0
    1a40:	fe 5f       	subi	r31, 0xFE	; 254
    1a42:	09 94       	ijmp
    1a44:	00 00       	nop
    1a46:	00 00       	nop

00001a48 <I_DE__BNE_S_p7>:
    1a48:	31 fc       	sbrc	r3, 1
    1a4a:	dc c1       	rjmp	.+952    	; 0x1e04 <branch_short_dispatch_reverse_func>
    1a4c:	01 96       	adiw	r24, 0x01	; 1
    1a4e:	89 5f       	subi	r24, 0xF9	; 249
    1a50:	9f 4f       	sbci	r25, 0xFF	; 255
    1a52:	19 d2       	rcall	.+1074   	; 0x1e86 <fx_seek_to_pc>
    1a54:	6e b4       	in	r6, 0x2e	; 46
    1a56:	2e bc       	out	0x2e, r2	; 46
    1a58:	67 9c       	mul	r6, r7
    1a5a:	f0 01       	movw	r30, r0
    1a5c:	fe 5f       	subi	r31, 0xFE	; 254
    1a5e:	09 94       	ijmp
    1a60:	00 00       	nop
    1a62:	00 00       	nop

00001a64 <I_DF__BNE_S_p8>:
    1a64:	31 fc       	sbrc	r3, 1
    1a66:	ce c1       	rjmp	.+924    	; 0x1e04 <branch_short_dispatch_reverse_func>
    1a68:	01 96       	adiw	r24, 0x01	; 1
    1a6a:	88 5f       	subi	r24, 0xF8	; 248
    1a6c:	9f 4f       	sbci	r25, 0xFF	; 255
    1a6e:	0b d2       	rcall	.+1046   	; 0x1e86 <fx_seek_to_pc>
    1a70:	6e b4       	in	r6, 0x2e	; 46
    1a72:	2e bc       	out	0x2e, r2	; 46
    1a74:	67 9c       	mul	r6, r7
    1a76:	f0 01       	movw	r30, r0
    1a78:	fe 5f       	subi	r31, 0xFE	; 254
    1a7a:	09 94       	ijmp
    1a7c:	00 00       	nop
    1a7e:	00 00       	nop

00001a80 <I_E0__INC16_r0>:
    1a80:	30 fa       	bst	r3, 0
    1a82:	a1 e0       	ldi	r26, 0x01	; 1
    1a84:	8a 0e       	add	r8, r26
    1a86:	92 1c       	adc	r9, r2
    1a88:	3f b6       	in	r3, 0x3f	; 63
    1a8a:	30 f8       	bld	r3, 0
    1a8c:	f5 c1       	rjmp	.+1002   	; 0x1e78 <dispatch_func>
    1a8e:	00 00       	nop
    1a90:	00 00       	nop
    1a92:	00 00       	nop
    1a94:	00 00       	nop
    1a96:	00 00       	nop
    1a98:	00 00       	nop
    1a9a:	00 00       	nop

00001a9c <I_E1__INC16_r1>:
    1a9c:	30 fa       	bst	r3, 0
    1a9e:	a1 e0       	ldi	r26, 0x01	; 1
    1aa0:	aa 0e       	add	r10, r26
    1aa2:	b2 1c       	adc	r11, r2
    1aa4:	3f b6       	in	r3, 0x3f	; 63
    1aa6:	30 f8       	bld	r3, 0
    1aa8:	e7 c1       	rjmp	.+974    	; 0x1e78 <dispatch_func>
    1aaa:	00 00       	nop
    1aac:	00 00       	nop
    1aae:	00 00       	nop
    1ab0:	00 00       	nop
    1ab2:	00 00       	nop
    1ab4:	00 00       	nop
    1ab6:	00 00       	nop

00001ab8 <I_E2__INC16_r2>:
    1ab8:	30 fa       	bst	r3, 0
    1aba:	a1 e0       	ldi	r26, 0x01	; 1
    1abc:	ca 0e       	add	r12, r26
    1abe:	d2 1c       	adc	r13, r2
    1ac0:	3f b6       	in	r3, 0x3f	; 63
    1ac2:	30 f8       	bld	r3, 0
    1ac4:	d9 c1       	rjmp	.+946    	; 0x1e78 <dispatch_func>
    1ac6:	00 00       	nop
    1ac8:	00 00       	nop
    1aca:	00 00       	nop
    1acc:	00 00       	nop
    1ace:	00 00       	nop
    1ad0:	00 00       	nop
    1ad2:	00 00       	nop

00001ad4 <I_E3__INC16_r3>:
    1ad4:	30 fa       	bst	r3, 0
    1ad6:	a1 e0       	ldi	r26, 0x01	; 1
    1ad8:	ea 0e       	add	r14, r26
    1ada:	f2 1c       	adc	r15, r2
    1adc:	3f b6       	in	r3, 0x3f	; 63
    1ade:	30 f8       	bld	r3, 0
    1ae0:	cb c1       	rjmp	.+918    	; 0x1e78 <dispatch_func>
    1ae2:	00 00       	nop
    1ae4:	00 00       	nop
    1ae6:	00 00       	nop
    1ae8:	00 00       	nop
    1aea:	00 00       	nop
    1aec:	00 00       	nop
    1aee:	00 00       	nop

00001af0 <I_E4__INC16_r4>:
    1af0:	30 fa       	bst	r3, 0
    1af2:	a1 e0       	ldi	r26, 0x01	; 1
    1af4:	0a 0f       	add	r16, r26
    1af6:	12 1d       	adc	r17, r2
    1af8:	3f b6       	in	r3, 0x3f	; 63
    1afa:	30 f8       	bld	r3, 0
    1afc:	bd c1       	rjmp	.+890    	; 0x1e78 <dispatch_func>
    1afe:	00 00       	nop
    1b00:	00 00       	nop
    1b02:	00 00       	nop
    1b04:	00 00       	nop
    1b06:	00 00       	nop
    1b08:	00 00       	nop
    1b0a:	00 00       	nop

00001b0c <I_E5__INC16_r5>:
    1b0c:	30 fa       	bst	r3, 0
    1b0e:	a1 e0       	ldi	r26, 0x01	; 1
    1b10:	2a 0f       	add	r18, r26
    1b12:	32 1d       	adc	r19, r2
    1b14:	3f b6       	in	r3, 0x3f	; 63
    1b16:	30 f8       	bld	r3, 0
    1b18:	af c1       	rjmp	.+862    	; 0x1e78 <dispatch_func>
    1b1a:	00 00       	nop
    1b1c:	00 00       	nop
    1b1e:	00 00       	nop
    1b20:	00 00       	nop
    1b22:	00 00       	nop
    1b24:	00 00       	nop
    1b26:	00 00       	nop

00001b28 <I_E6__INC16_r6>:
    1b28:	30 fa       	bst	r3, 0
    1b2a:	a1 e0       	ldi	r26, 0x01	; 1
    1b2c:	4a 0f       	add	r20, r26
    1b2e:	52 1d       	adc	r21, r2
    1b30:	3f b6       	in	r3, 0x3f	; 63
    1b32:	30 f8       	bld	r3, 0
    1b34:	a1 c1       	rjmp	.+834    	; 0x1e78 <dispatch_func>
    1b36:	00 00       	nop
    1b38:	00 00       	nop
    1b3a:	00 00       	nop
    1b3c:	00 00       	nop
    1b3e:	00 00       	nop
    1b40:	00 00       	nop
    1b42:	00 00       	nop

00001b44 <I_E7__INC16_r7>:
    1b44:	30 fa       	bst	r3, 0
    1b46:	a1 e0       	ldi	r26, 0x01	; 1
    1b48:	6a 0f       	add	r22, r26
    1b4a:	72 1d       	adc	r23, r2
    1b4c:	3f b6       	in	r3, 0x3f	; 63
    1b4e:	30 f8       	bld	r3, 0
    1b50:	93 c1       	rjmp	.+806    	; 0x1e78 <dispatch_func>
    1b52:	00 00       	nop
    1b54:	00 00       	nop
    1b56:	00 00       	nop
    1b58:	00 00       	nop
    1b5a:	00 00       	nop
    1b5c:	00 00       	nop
    1b5e:	00 00       	nop

00001b60 <I_E8__DEC16_r0>:
    1b60:	30 fa       	bst	r3, 0
    1b62:	af ef       	ldi	r26, 0xFF	; 255
    1b64:	8a 0e       	add	r8, r26
    1b66:	92 1c       	adc	r9, r2
    1b68:	3f b6       	in	r3, 0x3f	; 63
    1b6a:	30 f8       	bld	r3, 0
    1b6c:	85 c1       	rjmp	.+778    	; 0x1e78 <dispatch_func>
    1b6e:	00 00       	nop
    1b70:	00 00       	nop
    1b72:	00 00       	nop
    1b74:	00 00       	nop
    1b76:	00 00       	nop
    1b78:	00 00       	nop
    1b7a:	00 00       	nop

00001b7c <I_E9__DEC16_r1>:
    1b7c:	30 fa       	bst	r3, 0
    1b7e:	af ef       	ldi	r26, 0xFF	; 255
    1b80:	aa 0e       	add	r10, r26
    1b82:	b2 1c       	adc	r11, r2
    1b84:	3f b6       	in	r3, 0x3f	; 63
    1b86:	30 f8       	bld	r3, 0
    1b88:	77 c1       	rjmp	.+750    	; 0x1e78 <dispatch_func>
    1b8a:	00 00       	nop
    1b8c:	00 00       	nop
    1b8e:	00 00       	nop
    1b90:	00 00       	nop
    1b92:	00 00       	nop
    1b94:	00 00       	nop
    1b96:	00 00       	nop

00001b98 <I_EA__DEC16_r2>:
    1b98:	30 fa       	bst	r3, 0
    1b9a:	af ef       	ldi	r26, 0xFF	; 255
    1b9c:	ca 0e       	add	r12, r26
    1b9e:	d2 1c       	adc	r13, r2
    1ba0:	3f b6       	in	r3, 0x3f	; 63
    1ba2:	30 f8       	bld	r3, 0
    1ba4:	69 c1       	rjmp	.+722    	; 0x1e78 <dispatch_func>
    1ba6:	00 00       	nop
    1ba8:	00 00       	nop
    1baa:	00 00       	nop
    1bac:	00 00       	nop
    1bae:	00 00       	nop
    1bb0:	00 00       	nop
    1bb2:	00 00       	nop

00001bb4 <I_EB__DEC16_r3>:
    1bb4:	30 fa       	bst	r3, 0
    1bb6:	af ef       	ldi	r26, 0xFF	; 255
    1bb8:	ea 0e       	add	r14, r26
    1bba:	f2 1c       	adc	r15, r2
    1bbc:	3f b6       	in	r3, 0x3f	; 63
    1bbe:	30 f8       	bld	r3, 0
    1bc0:	5b c1       	rjmp	.+694    	; 0x1e78 <dispatch_func>
    1bc2:	00 00       	nop
    1bc4:	00 00       	nop
    1bc6:	00 00       	nop
    1bc8:	00 00       	nop
    1bca:	00 00       	nop
    1bcc:	00 00       	nop
    1bce:	00 00       	nop

00001bd0 <I_EC__DEC16_r4>:
    1bd0:	30 fa       	bst	r3, 0
    1bd2:	af ef       	ldi	r26, 0xFF	; 255
    1bd4:	0a 0f       	add	r16, r26
    1bd6:	12 1d       	adc	r17, r2
    1bd8:	3f b6       	in	r3, 0x3f	; 63
    1bda:	30 f8       	bld	r3, 0
    1bdc:	4d c1       	rjmp	.+666    	; 0x1e78 <dispatch_func>
    1bde:	00 00       	nop
    1be0:	00 00       	nop
    1be2:	00 00       	nop
    1be4:	00 00       	nop
    1be6:	00 00       	nop
    1be8:	00 00       	nop
    1bea:	00 00       	nop

00001bec <I_ED__DEC16_r5>:
    1bec:	30 fa       	bst	r3, 0
    1bee:	af ef       	ldi	r26, 0xFF	; 255
    1bf0:	2a 0f       	add	r18, r26
    1bf2:	32 1d       	adc	r19, r2
    1bf4:	3f b6       	in	r3, 0x3f	; 63
    1bf6:	30 f8       	bld	r3, 0
    1bf8:	3f c1       	rjmp	.+638    	; 0x1e78 <dispatch_func>
    1bfa:	00 00       	nop
    1bfc:	00 00       	nop
    1bfe:	00 00       	nop
    1c00:	00 00       	nop
    1c02:	00 00       	nop
    1c04:	00 00       	nop
    1c06:	00 00       	nop

00001c08 <I_EE__DEC16_r6>:
    1c08:	30 fa       	bst	r3, 0
    1c0a:	af ef       	ldi	r26, 0xFF	; 255
    1c0c:	4a 0f       	add	r20, r26
    1c0e:	52 1d       	adc	r21, r2
    1c10:	3f b6       	in	r3, 0x3f	; 63
    1c12:	30 f8       	bld	r3, 0
    1c14:	31 c1       	rjmp	.+610    	; 0x1e78 <dispatch_func>
    1c16:	00 00       	nop
    1c18:	00 00       	nop
    1c1a:	00 00       	nop
    1c1c:	00 00       	nop
    1c1e:	00 00       	nop
    1c20:	00 00       	nop
    1c22:	00 00       	nop

00001c24 <I_EF__DEC16_r7>:
    1c24:	30 fa       	bst	r3, 0
    1c26:	af ef       	ldi	r26, 0xFF	; 255
    1c28:	6a 0f       	add	r22, r26
    1c2a:	72 1d       	adc	r23, r2
    1c2c:	3f b6       	in	r3, 0x3f	; 63
    1c2e:	30 f8       	bld	r3, 0
    1c30:	23 c1       	rjmp	.+582    	; 0x1e78 <dispatch_func>
    1c32:	00 00       	nop
    1c34:	00 00       	nop
    1c36:	00 00       	nop
    1c38:	00 00       	nop
    1c3a:	00 00       	nop
    1c3c:	00 00       	nop
    1c3e:	00 00       	nop

00001c40 <I_F0__LDI8_c0>:
    1c40:	00 c0       	rjmp	.+0      	; 0x1c42 <I_F0__LDI8_c0+0x2>
    1c42:	00 c0       	rjmp	.+0      	; 0x1c44 <I_F0__LDI8_c0+0x4>
    1c44:	c8 95       	lpm
    1c46:	f8 94       	cli
    1c48:	2e bc       	out	0x2e, r2	; 46
    1c4a:	0e b5       	in	r16, 0x2e	; 46
    1c4c:	78 94       	sei
    1c4e:	01 96       	adiw	r24, 0x01	; 1
    1c50:	11 27       	eor	r17, r17
    1c52:	d6 c0       	rjmp	.+428    	; 0x1e00 <ldi8_dispatch_reverse_func>
    1c54:	00 00       	nop
    1c56:	00 00       	nop
    1c58:	00 00       	nop
    1c5a:	00 00       	nop

00001c5c <I_F1__LDI8_c1>:
    1c5c:	00 c0       	rjmp	.+0      	; 0x1c5e <I_F1__LDI8_c1+0x2>
    1c5e:	00 c0       	rjmp	.+0      	; 0x1c60 <I_F1__LDI8_c1+0x4>
    1c60:	c8 95       	lpm
    1c62:	f8 94       	cli
    1c64:	2e bc       	out	0x2e, r2	; 46
    1c66:	2e b5       	in	r18, 0x2e	; 46
    1c68:	78 94       	sei
    1c6a:	01 96       	adiw	r24, 0x01	; 1
    1c6c:	33 27       	eor	r19, r19
    1c6e:	c8 c0       	rjmp	.+400    	; 0x1e00 <ldi8_dispatch_reverse_func>
    1c70:	00 00       	nop
    1c72:	00 00       	nop
    1c74:	00 00       	nop
    1c76:	00 00       	nop

00001c78 <I_F2__LDI8_c2>:
    1c78:	00 c0       	rjmp	.+0      	; 0x1c7a <I_F2__LDI8_c2+0x2>
    1c7a:	00 c0       	rjmp	.+0      	; 0x1c7c <I_F2__LDI8_c2+0x4>
    1c7c:	c8 95       	lpm
    1c7e:	f8 94       	cli
    1c80:	2e bc       	out	0x2e, r2	; 46
    1c82:	4e b5       	in	r20, 0x2e	; 46
    1c84:	78 94       	sei
    1c86:	01 96       	adiw	r24, 0x01	; 1
    1c88:	55 27       	eor	r21, r21
    1c8a:	ba c0       	rjmp	.+372    	; 0x1e00 <ldi8_dispatch_reverse_func>
    1c8c:	00 00       	nop
    1c8e:	00 00       	nop
    1c90:	00 00       	nop
    1c92:	00 00       	nop

00001c94 <I_F3__LDI8_c3>:
    1c94:	00 c0       	rjmp	.+0      	; 0x1c96 <I_F3__LDI8_c3+0x2>
    1c96:	00 c0       	rjmp	.+0      	; 0x1c98 <I_F3__LDI8_c3+0x4>
    1c98:	c8 95       	lpm
    1c9a:	f8 94       	cli
    1c9c:	2e bc       	out	0x2e, r2	; 46
    1c9e:	6e b5       	in	r22, 0x2e	; 46
    1ca0:	78 94       	sei
    1ca2:	01 96       	adiw	r24, 0x01	; 1
    1ca4:	77 27       	eor	r23, r23
    1ca6:	ac c0       	rjmp	.+344    	; 0x1e00 <ldi8_dispatch_reverse_func>
    1ca8:	00 00       	nop
    1caa:	00 00       	nop
    1cac:	00 00       	nop
    1cae:	00 00       	nop

00001cb0 <I_F4__ext_alu_ctrl_sys_core>:
    1cb0:	01 96       	adiw	r24, 0x01	; 1
    1cb2:	c8 95       	lpm
    1cb4:	b1 c0       	rjmp	.+354    	; 0x1e18 <f4_extension_decode_func>
    1cb6:	00 00       	nop
    1cb8:	00 00       	nop
    1cba:	00 00       	nop
    1cbc:	00 00       	nop
    1cbe:	00 00       	nop
    1cc0:	00 00       	nop
    1cc2:	00 00       	nop
    1cc4:	00 00       	nop
    1cc6:	00 00       	nop
    1cc8:	00 00       	nop
    1cca:	00 00       	nop

00001ccc <I_F5__BREQ_rel8>:
    1ccc:	01 96       	adiw	r24, 0x01	; 1
    1cce:	00 c0       	rjmp	.+0      	; 0x1cd0 <I_F5__BREQ_rel8+0x4>
    1cd0:	00 c0       	rjmp	.+0      	; 0x1cd2 <I_F5__BREQ_rel8+0x6>
    1cd2:	00 00       	nop
    1cd4:	f8 94       	cli
    1cd6:	2e bc       	out	0x2e, r2	; 46
    1cd8:	6e b4       	in	r6, 0x2e	; 46
    1cda:	78 94       	sei
    1cdc:	31 fe       	sbrs	r3, 1
    1cde:	bd c0       	rjmp	.+378    	; 0x1e5a <branch_rel8_not_taken_func>
    1ce0:	be c0       	rjmp	.+380    	; 0x1e5e <branch_rel8_taken_func>
    1ce2:	00 00       	nop
    1ce4:	00 00       	nop
    1ce6:	00 00       	nop

00001ce8 <I_F6__BRNE_rel8>:
    1ce8:	01 96       	adiw	r24, 0x01	; 1
    1cea:	00 c0       	rjmp	.+0      	; 0x1cec <I_F6__BRNE_rel8+0x4>
    1cec:	00 c0       	rjmp	.+0      	; 0x1cee <I_F6__BRNE_rel8+0x6>
    1cee:	00 00       	nop
    1cf0:	f8 94       	cli
    1cf2:	2e bc       	out	0x2e, r2	; 46
    1cf4:	6e b4       	in	r6, 0x2e	; 46
    1cf6:	78 94       	sei
    1cf8:	31 fc       	sbrc	r3, 1
    1cfa:	af c0       	rjmp	.+350    	; 0x1e5a <branch_rel8_not_taken_func>
    1cfc:	b0 c0       	rjmp	.+352    	; 0x1e5e <branch_rel8_taken_func>
    1cfe:	00 00       	nop
    1d00:	00 00       	nop
    1d02:	00 00       	nop

00001d04 <I_F7__BRULT_rel8>:
    1d04:	01 96       	adiw	r24, 0x01	; 1
    1d06:	00 c0       	rjmp	.+0      	; 0x1d08 <I_F7__BRULT_rel8+0x4>
    1d08:	00 c0       	rjmp	.+0      	; 0x1d0a <I_F7__BRULT_rel8+0x6>
    1d0a:	00 00       	nop
    1d0c:	f8 94       	cli
    1d0e:	2e bc       	out	0x2e, r2	; 46
    1d10:	6e b4       	in	r6, 0x2e	; 46
    1d12:	78 94       	sei
    1d14:	30 fe       	sbrs	r3, 0
    1d16:	a1 c0       	rjmp	.+322    	; 0x1e5a <branch_rel8_not_taken_func>
    1d18:	a2 c0       	rjmp	.+324    	; 0x1e5e <branch_rel8_taken_func>
    1d1a:	00 00       	nop
    1d1c:	00 00       	nop
    1d1e:	00 00       	nop

00001d20 <I_F8__BRUGE_rel8>:
    1d20:	01 96       	adiw	r24, 0x01	; 1
    1d22:	00 c0       	rjmp	.+0      	; 0x1d24 <I_F8__BRUGE_rel8+0x4>
    1d24:	00 c0       	rjmp	.+0      	; 0x1d26 <I_F8__BRUGE_rel8+0x6>
    1d26:	00 00       	nop
    1d28:	f8 94       	cli
    1d2a:	2e bc       	out	0x2e, r2	; 46
    1d2c:	6e b4       	in	r6, 0x2e	; 46
    1d2e:	78 94       	sei
    1d30:	30 fc       	sbrc	r3, 0
    1d32:	93 c0       	rjmp	.+294    	; 0x1e5a <branch_rel8_not_taken_func>
    1d34:	94 c0       	rjmp	.+296    	; 0x1e5e <branch_rel8_taken_func>
    1d36:	00 00       	nop
    1d38:	00 00       	nop
    1d3a:	00 00       	nop

00001d3c <I_F9__BRSLT_rel8>:
    1d3c:	01 96       	adiw	r24, 0x01	; 1
    1d3e:	00 c0       	rjmp	.+0      	; 0x1d40 <I_F9__BRSLT_rel8+0x4>
    1d40:	00 c0       	rjmp	.+0      	; 0x1d42 <I_F9__BRSLT_rel8+0x6>
    1d42:	00 00       	nop
    1d44:	f8 94       	cli
    1d46:	2e bc       	out	0x2e, r2	; 46
    1d48:	6e b4       	in	r6, 0x2e	; 46
    1d4a:	78 94       	sei
    1d4c:	34 fe       	sbrs	r3, 4
    1d4e:	85 c0       	rjmp	.+266    	; 0x1e5a <branch_rel8_not_taken_func>
    1d50:	86 c0       	rjmp	.+268    	; 0x1e5e <branch_rel8_taken_func>
    1d52:	00 00       	nop
    1d54:	00 00       	nop
    1d56:	00 00       	nop

00001d58 <I_FA__BRSGE_rel8>:
    1d58:	01 96       	adiw	r24, 0x01	; 1
    1d5a:	00 c0       	rjmp	.+0      	; 0x1d5c <I_FA__BRSGE_rel8+0x4>
    1d5c:	00 c0       	rjmp	.+0      	; 0x1d5e <I_FA__BRSGE_rel8+0x6>
    1d5e:	00 00       	nop
    1d60:	f8 94       	cli
    1d62:	2e bc       	out	0x2e, r2	; 46
    1d64:	6e b4       	in	r6, 0x2e	; 46
    1d66:	78 94       	sei
    1d68:	34 fc       	sbrc	r3, 4
    1d6a:	77 c0       	rjmp	.+238    	; 0x1e5a <branch_rel8_not_taken_func>
    1d6c:	78 c0       	rjmp	.+240    	; 0x1e5e <branch_rel8_taken_func>
    1d6e:	00 00       	nop
    1d70:	00 00       	nop
    1d72:	00 00       	nop

00001d74 <I_FB__BRULE_rel8>:
    1d74:	01 96       	adiw	r24, 0x01	; 1
    1d76:	00 c0       	rjmp	.+0      	; 0x1d78 <I_FB__BRULE_rel8+0x4>
    1d78:	00 c0       	rjmp	.+0      	; 0x1d7a <I_FB__BRULE_rel8+0x6>
    1d7a:	00 00       	nop
    1d7c:	f8 94       	cli
    1d7e:	2e bc       	out	0x2e, r2	; 46
    1d80:	6e b4       	in	r6, 0x2e	; 46
    1d82:	78 94       	sei
    1d84:	a3 2d       	mov	r26, r3
    1d86:	a3 70       	andi	r26, 0x03	; 3
    1d88:	09 f4       	brne	.+2      	; 0x1d8c <.L1^B2>
    1d8a:	67 c0       	rjmp	.+206    	; 0x1e5a <branch_rel8_not_taken_func>

00001d8c <.L1^B2>:
    1d8c:	68 c0       	rjmp	.+208    	; 0x1e5e <branch_rel8_taken_func>
    1d8e:	00 00       	nop

00001d90 <I_FC__BRUGT_rel8>:
    1d90:	01 96       	adiw	r24, 0x01	; 1
    1d92:	00 c0       	rjmp	.+0      	; 0x1d94 <I_FC__BRUGT_rel8+0x4>
    1d94:	00 c0       	rjmp	.+0      	; 0x1d96 <I_FC__BRUGT_rel8+0x6>
    1d96:	00 00       	nop
    1d98:	f8 94       	cli
    1d9a:	2e bc       	out	0x2e, r2	; 46
    1d9c:	6e b4       	in	r6, 0x2e	; 46
    1d9e:	78 94       	sei
    1da0:	a3 2d       	mov	r26, r3
    1da2:	a3 70       	andi	r26, 0x03	; 3
    1da4:	09 f0       	breq	.+2      	; 0x1da8 <.L1^B3>
    1da6:	59 c0       	rjmp	.+178    	; 0x1e5a <branch_rel8_not_taken_func>

00001da8 <.L1^B3>:
    1da8:	5a c0       	rjmp	.+180    	; 0x1e5e <branch_rel8_taken_func>
    1daa:	00 00       	nop

00001dac <I_FD__ext_memory_program>:
    1dac:	00 00       	nop
    1dae:	00 00       	nop
    1db0:	00 00       	nop
    1db2:	00 00       	nop
    1db4:	00 00       	nop
    1db6:	00 00       	nop
    1db8:	00 00       	nop
    1dba:	00 00       	nop
    1dbc:	00 00       	nop
    1dbe:	00 00       	nop
    1dc0:	00 00       	nop
    1dc2:	00 00       	nop
    1dc4:	00 00       	nop
    1dc6:	00 00       	nop

00001dc8 <I_FE__JMPF_CALLF>:
    1dc8:	00 00       	nop
    1dca:	00 00       	nop
    1dcc:	00 00       	nop
    1dce:	00 00       	nop
    1dd0:	00 00       	nop
    1dd2:	00 00       	nop
    1dd4:	00 00       	nop
    1dd6:	00 00       	nop
    1dd8:	00 00       	nop
    1dda:	00 00       	nop
    1ddc:	00 00       	nop
    1dde:	00 00       	nop
    1de0:	00 00       	nop
    1de2:	00 00       	nop

00001de4 <I_FF__RET>:
    1de4:	00 00       	nop
    1de6:	00 00       	nop
    1de8:	00 00       	nop
    1dea:	00 00       	nop
    1dec:	00 00       	nop
    1dee:	00 00       	nop
    1df0:	00 00       	nop
    1df2:	00 00       	nop
    1df4:	00 00       	nop
    1df6:	00 00       	nop
    1df8:	00 00       	nop
    1dfa:	00 00       	nop
    1dfc:	00 00       	nop
    1dfe:	00 00       	nop

00001e00 <ldi8_dispatch_reverse_func>:
    1e00:	00 c0       	rjmp	.+0      	; 0x1e02 <ldi8_dispatch_reverse_func+0x2>
    1e02:	00 c0       	rjmp	.+0      	; 0x1e04 <branch_short_dispatch_reverse_func>

00001e04 <branch_short_dispatch_reverse_func>:
    1e04:	00 c0       	rjmp	.+0      	; 0x1e06 <dispatch_reverse_func>

00001e06 <dispatch_reverse_func>:
    1e06:	01 96       	adiw	r24, 0x01	; 1
    1e08:	f8 94       	cli
    1e0a:	2e bc       	out	0x2e, r2	; 46
    1e0c:	6e b4       	in	r6, 0x2e	; 46
    1e0e:	78 94       	sei
    1e10:	67 9c       	mul	r6, r7
    1e12:	f0 01       	movw	r30, r0
    1e14:	ff 5f       	subi	r31, 0xFF	; 255
    1e16:	09 94       	ijmp

00001e18 <f4_extension_decode_func>:
    1e18:	f8 94       	cli
    1e1a:	2e bc       	out	0x2e, r2	; 46
    1e1c:	6e b4       	in	r6, 0x2e	; 46
    1e1e:	78 94       	sei
    1e20:	a6 2d       	mov	r26, r6
    1e22:	ac 3b       	cpi	r26, 0xBC	; 188
    1e24:	09 f0       	breq	.+2      	; 0x1e28 <f4_cmpi6_decode_func>
    1e26:	27 c0       	rjmp	.+78     	; 0x1e76 <unimplemented_instruction_func>

00001e28 <f4_cmpi6_decode_func>:
    1e28:	01 96       	adiw	r24, 0x01	; 1
    1e2a:	00 c0       	rjmp	.+0      	; 0x1e2c <f4_cmpi6_decode_func+0x4>
    1e2c:	00 c0       	rjmp	.+0      	; 0x1e2e <f4_cmpi6_decode_func+0x6>
    1e2e:	00 c0       	rjmp	.+0      	; 0x1e30 <f4_cmpi6_decode_func+0x8>
    1e30:	00 c0       	rjmp	.+0      	; 0x1e32 <f4_cmpi6_decode_func+0xa>
    1e32:	f8 94       	cli
    1e34:	2e bc       	out	0x2e, r2	; 46
    1e36:	6e b4       	in	r6, 0x2e	; 46
    1e38:	78 94       	sei
    1e3a:	a6 2d       	mov	r26, r6
    1e3c:	a3 70       	andi	r26, 0x03	; 3
    1e3e:	aa 0f       	add	r26, r26
    1e40:	a0 5f       	subi	r26, 0xF0	; 240
    1e42:	bb 27       	eor	r27, r27
    1e44:	65 94       	asr	r6
    1e46:	65 94       	asr	r6
    1e48:	4d 90       	ld	r4, X+
    1e4a:	5c 90       	ld	r5, X
    1e4c:	06 2c       	mov	r0, r6
    1e4e:	00 0c       	add	r0, r0
    1e50:	00 08       	sbc	r0, r0
    1e52:	46 14       	cp	r4, r6
    1e54:	50 04       	cpc	r5, r0
    1e56:	3f b6       	in	r3, 0x3f	; 63
    1e58:	0f c0       	rjmp	.+30     	; 0x1e78 <dispatch_func>

00001e5a <branch_rel8_not_taken_func>:
    1e5a:	2d d0       	rcall	.+90     	; 0x1eb6 <fx_seek_delay_7>
    1e5c:	d4 cf       	rjmp	.-88     	; 0x1e06 <dispatch_reverse_func>

00001e5e <branch_rel8_taken_func>:
    1e5e:	01 96       	adiw	r24, 0x01	; 1
    1e60:	86 0d       	add	r24, r6
    1e62:	92 1d       	adc	r25, r2
    1e64:	67 fc       	sbrc	r6, 7
    1e66:	9a 95       	dec	r25
    1e68:	0e d0       	rcall	.+28     	; 0x1e86 <fx_seek_to_pc>
    1e6a:	6e b4       	in	r6, 0x2e	; 46
    1e6c:	2e bc       	out	0x2e, r2	; 46
    1e6e:	67 9c       	mul	r6, r7
    1e70:	f0 01       	movw	r30, r0
    1e72:	fe 5f       	subi	r31, 0xFE	; 254
    1e74:	09 94       	ijmp

00001e76 <unimplemented_instruction_func>:
    1e76:	ff cf       	rjmp	.-2      	; 0x1e76 <unimplemented_instruction_func>

00001e78 <dispatch_func>:
    1e78:	6e b4       	in	r6, 0x2e	; 46
    1e7a:	2e bc       	out	0x2e, r2	; 46
    1e7c:	01 96       	adiw	r24, 0x01	; 1
    1e7e:	67 9c       	mul	r6, r7
    1e80:	f0 01       	movw	r30, r0
    1e82:	ff 5f       	subi	r31, 0xFF	; 255
    1e84:	09 94       	ijmp

00001e86 <fx_seek_to_pc>:
    1e86:	5a 9a       	sbi	0x0b, 2	; 11
    1e88:	e3 e0       	ldi	r30, 0x03	; 3
    1e8a:	5a 98       	cbi	0x0b, 2	; 11
    1e8c:	ee bd       	out	0x2e, r30	; 46
    1e8e:	a0 91 00 0a 	lds	r26, 0x0A00	; 0x800a00 <_edata+0x900>
    1e92:	a9 0f       	add	r26, r25
    1e94:	b0 91 01 0a 	lds	r27, 0x0A01	; 0x800a01 <_edata+0x901>
    1e98:	ea b5       	in	r30, 0x2a	; 42
    1e9a:	be 1f       	adc	r27, r30
    1e9c:	0b d0       	rcall	.+22     	; 0x1eb4 <fx_seek_delay_10>
    1e9e:	be bd       	out	0x2e, r27	; 46
    1ea0:	08 d0       	rcall	.+16     	; 0x1eb2 <fx_seek_delay_17>
    1ea2:	ae bd       	out	0x2e, r26	; 46
    1ea4:	06 d0       	rcall	.+12     	; 0x1eb2 <fx_seek_delay_17>
    1ea6:	8e bd       	out	0x2e, r24	; 46
    1ea8:	04 d0       	rcall	.+8      	; 0x1eb2 <fx_seek_delay_17>
    1eaa:	2e bc       	out	0x2e, r2	; 46
    1eac:	00 c0       	rjmp	.+0      	; 0x1eae <fx_seek_to_pc+0x28>
    1eae:	02 d0       	rcall	.+4      	; 0x1eb4 <fx_seek_delay_10>
    1eb0:	08 95       	ret

00001eb2 <fx_seek_delay_17>:
    1eb2:	01 d0       	rcall	.+2      	; 0x1eb6 <fx_seek_delay_7>

00001eb4 <fx_seek_delay_10>:
    1eb4:	c8 95       	lpm

00001eb6 <fx_seek_delay_7>:
    1eb6:	08 95       	ret
