
C:/Users/Brown/Documents/GitHub/avm/interp/build/interp.elf:     file format elf32-avr

SYMBOL TABLE:
00000000 l    d  .text	00000000 .text
000000ea l       .text	00000000 reset_handler
000000ac l       .text	00000000 default_isr
000000ae l       .text	00000000 timer0_compa_isr
000000e2 l       .text	00000000 timer0_compa_isr_done
00002d30 l       .text	00000000 startup_func
00000200 l       .text	00000000 primary_00
00000ad4 l       .text	00000000 cluster_tail_17_delay_1
00000208 l       .text	00000000 primary_01
00000210 l       .text	00000000 primary_02
00000218 l       .text	00000000 primary_03
00000220 l       .text	00000000 primary_04
00000228 l       .text	00000000 primary_05
00000230 l       .text	00000000 primary_06
00000238 l       .text	00000000 primary_07
00000240 l       .text	00000000 primary_08
00000248 l       .text	00000000 primary_09
00000250 l       .text	00000000 primary_0A
00000258 l       .text	00000000 primary_0B
00000260 l       .text	00000000 primary_0C
00000268 l       .text	00000000 primary_0D
00000270 l       .text	00000000 primary_0E
00000278 l       .text	00000000 primary_0F
00000280 l       .text	00000000 primary_10
00000ad6 l       .text	00000000 cluster_tail_17
00000288 l       .text	00000000 primary_11
00000290 l       .text	00000000 primary_12
00000298 l       .text	00000000 primary_13
000002a0 l       .text	00000000 primary_14
000002a8 l       .text	00000000 primary_15
000002b0 l       .text	00000000 primary_16
000002b8 l       .text	00000000 primary_17
000002c0 l       .text	00000000 primary_18
000002c8 l       .text	00000000 primary_19
000002d0 l       .text	00000000 primary_1A
000002d8 l       .text	00000000 primary_1B
000002e0 l       .text	00000000 primary_1C
000002e8 l       .text	00000000 primary_1D
000002f0 l       .text	00000000 primary_1E
000002f8 l       .text	00000000 primary_1F
00000300 l       .text	00000000 primary_20
00000308 l       .text	00000000 primary_21
00000310 l       .text	00000000 primary_22
00000318 l       .text	00000000 primary_23
00000320 l       .text	00000000 primary_24
00000328 l       .text	00000000 primary_25
00000330 l       .text	00000000 primary_26
00000338 l       .text	00000000 primary_27
00000340 l       .text	00000000 primary_28
00000348 l       .text	00000000 primary_29
00000350 l       .text	00000000 primary_2A
00000358 l       .text	00000000 primary_2B
00000360 l       .text	00000000 primary_2C
00000368 l       .text	00000000 primary_2D
00000370 l       .text	00000000 primary_2E
00000378 l       .text	00000000 primary_2F
00000380 l       .text	00000000 primary_30
00000abe l       .text	00000000 flags_commit_18_delay_1
00000388 l       .text	00000000 primary_31
00000390 l       .text	00000000 primary_32
00000398 l       .text	00000000 primary_33
000003a0 l       .text	00000000 primary_34
000003a8 l       .text	00000000 primary_35
000003b0 l       .text	00000000 primary_36
000003b8 l       .text	00000000 primary_37
000003c0 l       .text	00000000 primary_38
000003c8 l       .text	00000000 primary_39
000003d0 l       .text	00000000 primary_3A
000003d8 l       .text	00000000 primary_3B
000003e0 l       .text	00000000 primary_3C
000003e8 l       .text	00000000 primary_3D
000003f0 l       .text	00000000 primary_3E
000003f8 l       .text	00000000 primary_3F
00000400 l       .text	00000000 primary_40
00000af0 l       .text	00000000 cluster_tail_18_delay_1
00000408 l       .text	00000000 primary_41
00000410 l       .text	00000000 primary_42
00000418 l       .text	00000000 primary_43
00000420 l       .text	00000000 primary_44
00000428 l       .text	00000000 primary_45
00000430 l       .text	00000000 primary_46
00000438 l       .text	00000000 primary_47
00000440 l       .text	00000000 primary_48
00000448 l       .text	00000000 primary_49
00000450 l       .text	00000000 primary_4A
00000458 l       .text	00000000 primary_4B
00000460 l       .text	00000000 primary_4C
00000468 l       .text	00000000 primary_4D
00000470 l       .text	00000000 primary_4E
00000478 l       .text	00000000 primary_4F
00000480 l       .text	00000000 primary_50
00000aee l       .text	00000000 cluster_tail_18_delay_2
00000488 l       .text	00000000 primary_51
00000490 l       .text	00000000 primary_52
00000498 l       .text	00000000 primary_53
000004a0 l       .text	00000000 primary_54
000004a8 l       .text	00000000 primary_55
000004b0 l       .text	00000000 primary_56
000004b8 l       .text	00000000 primary_57
000004c0 l       .text	00000000 primary_58
000004c8 l       .text	00000000 primary_59
000004d0 l       .text	00000000 primary_5A
000004d8 l       .text	00000000 primary_5B
000004e0 l       .text	00000000 primary_5C
000004e8 l       .text	00000000 primary_5D
000004f0 l       .text	00000000 primary_5E
000004f8 l       .text	00000000 primary_5F
00000500 l       .text	00000000 primary_60
00000af2 l       .text	00000000 cluster_tail_18
00000508 l       .text	00000000 primary_61
00000510 l       .text	00000000 primary_62
00000518 l       .text	00000000 primary_63
00000520 l       .text	00000000 primary_64
00000528 l       .text	00000000 primary_65
00000530 l       .text	00000000 primary_66
00000538 l       .text	00000000 primary_67
00000540 l       .text	00000000 primary_68
00000548 l       .text	00000000 primary_69
00000550 l       .text	00000000 primary_6A
00000558 l       .text	00000000 primary_6B
00000560 l       .text	00000000 primary_6C
00000568 l       .text	00000000 primary_6D
00000570 l       .text	00000000 primary_6E
00000578 l       .text	00000000 primary_6F
00000580 l       .text	00000000 primary_70
00000588 l       .text	00000000 primary_71
00000590 l       .text	00000000 primary_72
00000598 l       .text	00000000 primary_73
000005a0 l       .text	00000000 primary_74
000005a8 l       .text	00000000 primary_75
000005b0 l       .text	00000000 primary_76
000005b8 l       .text	00000000 primary_77
000005c0 l       .text	00000000 primary_78
000005c8 l       .text	00000000 primary_79
000005d0 l       .text	00000000 primary_7A
000005d8 l       .text	00000000 primary_7B
000005e0 l       .text	00000000 primary_7C
000005e8 l       .text	00000000 primary_7D
000005f0 l       .text	00000000 primary_7E
000005f8 l       .text	00000000 primary_7F
00000600 l       .text	00000000 primary_80
00000608 l       .text	00000000 primary_81
00000610 l       .text	00000000 primary_82
00000618 l       .text	00000000 primary_83
00000620 l       .text	00000000 primary_84
00000628 l       .text	00000000 primary_85
00000630 l       .text	00000000 primary_86
00000638 l       .text	00000000 primary_87
00000640 l       .text	00000000 primary_88
00000648 l       .text	00000000 primary_89
00000650 l       .text	00000000 primary_8A
00000658 l       .text	00000000 primary_8B
00000660 l       .text	00000000 primary_8C
00000668 l       .text	00000000 primary_8D
00000670 l       .text	00000000 primary_8E
00000678 l       .text	00000000 primary_8F
00000680 l       .text	00000000 primary_90
00000688 l       .text	00000000 primary_91
00000690 l       .text	00000000 primary_92
00000698 l       .text	00000000 primary_93
000006a0 l       .text	00000000 primary_94
000006a8 l       .text	00000000 primary_95
000006b0 l       .text	00000000 primary_96
000006b8 l       .text	00000000 primary_97
000006c0 l       .text	00000000 primary_98
000006c8 l       .text	00000000 primary_99
000006d0 l       .text	00000000 primary_9A
000006d8 l       .text	00000000 primary_9B
000006e0 l       .text	00000000 primary_9C
000006e8 l       .text	00000000 primary_9D
000006f0 l       .text	00000000 primary_9E
000006f8 l       .text	00000000 primary_9F
00000700 l       .text	00000000 primary_A0
00000708 l       .text	00000000 primary_A1
00000710 l       .text	00000000 primary_A2
00000718 l       .text	00000000 primary_A3
00000720 l       .text	00000000 primary_A4
00000728 l       .text	00000000 primary_A5
00000730 l       .text	00000000 primary_A6
00000738 l       .text	00000000 primary_A7
00000740 l       .text	00000000 primary_A8
00000748 l       .text	00000000 primary_A9
00000750 l       .text	00000000 primary_AA
00000758 l       .text	00000000 primary_AB
00000760 l       .text	00000000 primary_AC
00000768 l       .text	00000000 primary_AD
00000770 l       .text	00000000 primary_AE
00000778 l       .text	00000000 primary_AF
00000780 l       .text	00000000 primary_B0_push16_r0
00000788 l       .text	00000000 primary_B1_push16_r1
00000790 l       .text	00000000 primary_B2_push16_r2
00000798 l       .text	00000000 primary_B3_push16_r3
000007a0 l       .text	00000000 primary_B4_push16_r4
000007a8 l       .text	00000000 primary_B5_push16_r5
000007b0 l       .text	00000000 primary_B6_push16_r6
000007b8 l       .text	00000000 primary_B7_push16_r7
000007c0 l       .text	00000000 primary_B8_pop16_r0
000007c8 l       .text	00000000 primary_B9_pop16_r1
000007d0 l       .text	00000000 primary_BA_pop16_r2
000007d8 l       .text	00000000 primary_BB_pop16_r3
000007e0 l       .text	00000000 primary_BC_pop16_r4
000007e8 l       .text	00000000 primary_BD_pop16_r5
000007f0 l       .text	00000000 primary_BE_pop16_r6
000007f8 l       .text	00000000 primary_BF_pop16_r7
00000800 l       .text	00000000 primary_C0_ldi8_c0
00000b54 l       .text	00000000 ldi8_c0_apply
00000b04 l       .text	00000000 fetch_imm8_then_ijmp
00000808 l       .text	00000000 primary_C1_ldi8_c1
00000b5a l       .text	00000000 ldi8_c1_apply
00000810 l       .text	00000000 primary_C2_ldi8_c2
00000b60 l       .text	00000000 ldi8_c2_apply
00000818 l       .text	00000000 primary_C3_ldi8_c3
00000b66 l       .text	00000000 ldi8_c3_apply
00000820 l       .text	00000000 primary_C4_ldi16_c0
00000b6c l       .text	00000000 ldi16_c0_apply
00000b22 l       .text	00000000 fetch_imm16_then_ijmp
00000828 l       .text	00000000 primary_C5_ldi16_c1
00000b72 l       .text	00000000 ldi16_c1_apply
00000830 l       .text	00000000 primary_C6_ldi16_c2
00000b78 l       .text	00000000 ldi16_c2_apply
00000838 l       .text	00000000 primary_C7_ldi16_c3
00000b7e l       .text	00000000 ldi16_c3_apply
00000840 l       .text	00000000 primary_C8_addi_s8_c0
00000b84 l       .text	00000000 addi_s8_c0_apply
00000b10 l       .text	00000000 fetch_simm8_then_ijmp
00000848 l       .text	00000000 primary_C9_addi_s8_c1
00000b8a l       .text	00000000 addi_s8_c1_apply
00000850 l       .text	00000000 primary_CA_addi_s8_c2
00000b90 l       .text	00000000 addi_s8_c2_apply
00000858 l       .text	00000000 primary_CB_addi_s8_c3
00000b96 l       .text	00000000 addi_s8_c3_apply
00000860 l       .text	00000000 primary_CC_cmpi_s8_c0
00000b9c l       .text	00000000 cmpi_s8_c0_apply
00000868 l       .text	00000000 primary_CD_cmpi_s8_c1
00000ba4 l       .text	00000000 cmpi_s8_c1_apply
00000870 l       .text	00000000 primary_CE_cmpi_s8_c2
00000bac l       .text	00000000 cmpi_s8_c2_apply
00000878 l       .text	00000000 primary_CF_cmpi_s8_c3
00000bb4 l       .text	00000000 cmpi_s8_c3_apply
00000880 l       .text	00000000 primary_D0_breq_rel8
00000bbc l       .text	00000000 breq_rel8_decode_func
00000888 l       .text	00000000 primary_D1_brne_rel8
00000bcc l       .text	00000000 brne_rel8_decode_func
00000890 l       .text	00000000 primary_D2_brult_rel8
00000bdc l       .text	00000000 brult_rel8_decode_func
00000898 l       .text	00000000 primary_D3_brslt_rel8
00000bec l       .text	00000000 brslt_rel8_decode_func
000008a0 l       .text	00000000 primary_D4_jmp_rel8
00000c14 l       .text	00000000 jmp_rel8_func
000008a8 l       .text	00000000 primary_D5_call_rel8
00000c2c l       .text	00000000 call_rel8_func
000008b0 l       .text	00000000 primary_D6_adjsp
00000c4a l       .text	00000000 adjsp_simm8_func
000008b8 l       .text	00000000 primary_D7_sys
00000cca l       .text	00000000 sys_decode_func
000008c0 l       .text	00000000 primary_D7_sys_end
000008c0 l       .text	00000000 primary_D8_reserved
00000f66 l       .text	00000000 invalid_primary_instruction_func
000008c8 l       .text	00000000 primary_D9_reserved
000008d0 l       .text	00000000 primary_DA_reserved
000008d8 l       .text	00000000 primary_DB_reserved
000008e0 l       .text	00000000 primary_DC_reserved
000008e8 l       .text	00000000 primary_DD_reserved
000008f0 l       .text	00000000 primary_DE_reserved
000008f8 l       .text	00000000 primary_DF_reserved
00000900 l       .text	00000000 primary_E0_jmp16
00000c64 l       .text	00000000 jmp_call_rel16_func
00000908 l       .text	00000000 primary_E1_call16
00000910 l       .text	00000000 primary_E2_jmpf
00000c98 l       .text	00000000 jmp_call_far_func
00000918 l       .text	00000000 primary_E3_callf
00000920 l       .text	00000000 primary_E4_jmpp_q0
00000f16 l       .text	00000000 seek_and_dispatch_func
00000928 l       .text	00000000 primary_E5_jmpp_q1
00000930 l       .text	00000000 primary_E6_jmpp_q2
00000938 l       .text	00000000 primary_E7_jmpp_q3
00000940 l       .text	00000000 primary_E8_callp_q0
00000f0c l       .text	00000000 push_pc_seek_and_dispatch_func
00000948 l       .text	00000000 primary_E9_callp_q1
00000950 l       .text	00000000 primary_EA_callp_q2
00000958 l       .text	00000000 primary_EB_callp_q3
00000960 l       .text	00000000 primary_EC_reserved
00000968 l       .text	00000000 primary_ED_reserved
00000970 l       .text	00000000 primary_EE_reserved
00000978 l       .text	00000000 primary_EF_ret
00000980 l       .text	00000000 primary_F0_cold_veneer_page
00000fa2 l       .text	00000000 f0_veneer_table
00000a6a l       .text	00000000 secondary_width_1_stub
00000988 l       .text	00000000 primary_F1_dense_2word_page
0000107e l       .text	00000000 f1_table
00000a4e l       .text	00000000 bounded_width_2_decode
00000990 l       .text	00000000 primary_F2_dense_3word_page_a
000012be l       .text	00000000 f2_table
00000a6e l       .text	00000000 secondary_width_3_stub
00000998 l       .text	00000000 primary_F3_dense_3word_page_b
000014fe l       .text	00000000 f3_table
000009a0 l       .text	00000000 primary_F4_dense_3word_page_c
00001834 l       .text	00000000 f4_table
000009a8 l       .text	00000000 primary_F5_dense_4word_page_a
00001c84 l       .text	00000000 f5_table
00000a72 l       .text	00000000 secondary_width_4_stub
000009b0 l       .text	00000000 primary_F6_dense_4word_page_b
00001f84 l       .text	00000000 f6_table
000009b8 l       .text	00000000 primary_F7_dense_5word_page_a
00002204 l       .text	00000000 f7_table
00000a76 l       .text	00000000 secondary_width_5_stub
000009c0 l       .text	00000000 primary_F8_simple_condition_page
000027d4 l       .text	00000000 f8_table
000009c8 l       .text	00000000 primary_F9_runtime_bitwise_page
00000a00 l       .text	00000000 f9_bitop_entry
000009d0 l       .text	00000000 primary_FA_variable_shift_page
000029b4 l       .text	00000000 fa_forward_table
000009d8 l       .text	00000000 primary_FB_cmov_eq_ne_page
00002a74 l       .text	00000000 cmov_table
00000a92 l       .text	00000000 cmov_gate
000009e0 l       .text	00000000 primary_FC_cmov_ult_uge_page
000009e8 l       .text	00000000 primary_FD_cmov_slt_sge_page
000009f0 l       .text	00000000 primary_FE_mul16_page
00002b74 l       .text	00000000 fe_forward_table
000009f8 l       .text	00000000 primary_FF_reserved
00000a00 l       .text	00000000 primary_table_end
00000f8e l       .text	00000000 cluster_a_tail_18
00000f68 l       .text	00000000 invalid_secondary_instruction_func
00000a4e l       .text	00000000 f9_bitop_end
00000a4e l       .text	00000000 bounded_width_2_decode_start
00000a90 l       .text	00000000 invalid_secondary
00000a6a l       .text	00000000 bounded_width_2_decode_end
00000a6a l       .text	00000000 bounded_page_decoder_start
00000a7a l       .text	00000000 bounded_page_decode
00000a6e l       .text	00000000 secondary_width_1_stub_end
00000a72 l       .text	00000000 secondary_width_3_stub_end
00000a76 l       .text	00000000 secondary_width_4_stub_end
00000a7a l       .text	00000000 secondary_width_5_stub_end
00000a88 l       .text	00000000 bounded_page_valid
00000a92 l       .text	00000000 bounded_page_decoder_end
00000abc l       .text	00000000 cmov_invalid
00000aba l       .text	00000000 cmov_no_move
00000f6c l       .text	00000000 cluster_a_tail
00000abe l       .text	00000000 cmov_gate_end
00000ac0 l       .text	00000000 flags_commit_18
00000aec l       .text	00000000 cluster_tail_18_delay_3
00000f5a l       .text	00000000 interp_delay_12
00000b3e l       .text	00000000 immediate_result_tail_delay_9
00000b46 l       .text	00000000 immediate_result_tail_delay_7
00000b4a l       .text	00000000 immediate_result_tail_delay_6
00000b50 l       .text	00000000 cmpi_s8_flags_commit_delay_4
00000bfc l       .text	00000000 branch_rel8_not_taken_func
00000c00 l       .text	00000000 branch_rel8_taken_func
00000f62 l       .text	00000000 interp_delay_7
00000c94 l       .text	00000000 jmp_rel16_wait
00000c84 l       .text	00000000 rel16_read_high
00000cc6 l       .text	00000000 jmp_far_wait
00000cb2 l       .text	00000000 far_launch_high
00000f56 l       .text	00000000 interp_delay_14
00000cd4 l       .text	00000000 sys_dispatch_func
00000cde l       .text	00000000 sys_dispatch_table
00000ede l       .text	00000000 sys_debug_putc_func
00000ee4 l       .text	00000000 sys_debug_break_func
00000ee8 l       .text	00000000 sys_millis_func
00000ef6 l       .text	00000000 sys_millis32_func
00000f6a l       .text	00000000 invalid_syscall_func
00000ede l       .text	00000000 sys_dispatch_table_end
00000f5e l       .text	00000000 interp_delay_10
00000f52 l       .text	00000000 interp_delay_17
00000f54 l       .text	00000000 interp_delay_16
00000f58 l       .text	00000000 interp_delay_13
00000f5c l       .text	00000000 interp_delay_11
00000f60 l       .text	00000000 interp_delay_9
00000f64 l       .text	00000000 unimplemented_instruction_func
00000f6e l       .text	00000000 cluster_a_tail_17_delay_2
00000f72 l       .text	00000000 cluster_a_tail_17
00000f70 l       .text	00000000 cluster_a_start
00000f70 l       .text	00000000 cluster_a_tail_17_delay_1
00000f88 l       .text	00000000 cluster_a_tail_18_delay_2
00000f8a l       .text	00000000 flags_commit_a_18_delay_1
00000f8c l       .text	00000000 cluster_a_tail_18_delay_1
00000fa0 l       .text	00000000 cluster_a_end
00000fa0 l       .text	00000000 secondary_tables_before_cluster_b
00000fa0 l       .text	00000000 secondary_unimplemented_a_func
0000107e l       .text	00000000 f0_veneer_table_end
000012be l       .text	00000000 f1_table_end
000014fe l       .text	00000000 f2_table_end
000017fe l       .text	00000000 f3_table_end
000017fe l       .text	00000000 cluster_b_start
000017fe l       .text	00000000 cluster_b_tail_17_delay_1
00001800 l       .text	00000000 cluster_b_tail_17
00001816 l       .text	00000000 flags_commit_b_18_delay_2
00001818 l       .text	00000000 cluster_b_tail_18_delay_2
0000181e l       .text	00000000 cluster_b_tail_18
0000181a l       .text	00000000 flags_commit_b_18_delay_1
0000181c l       .text	00000000 cluster_b_tail_18_delay_1
0000181e l       .text	00000000 cluster_b_tail
00001830 l       .text	00000000 cluster_b_end
00001830 l       .text	00000000 secondary_tables_before_cluster_c
00001830 l       .text	00000000 secondary_unimplemented_b_func
00001832 l       .text	00000000 secondary_invalid_b_func
00001c84 l       .text	00000000 f4_table_end
00001f84 l       .text	00000000 f5_table_end
00002204 l       .text	00000000 f6_table_end
000027c0 l       .text	00000000 cluster_c_tail_18
000027be l       .text	00000000 cluster_c_tail_18_delay_1
000027a4 l       .text	00000000 f7_table_end
000027a4 l       .text	00000000 cluster_c_start
000027a4 l       .text	00000000 cluster_c_tail_17_delay_1
000027a6 l       .text	00000000 cluster_c_tail_17
000027bc l       .text	00000000 cluster_c_tail_18_delay_2
000027c0 l       .text	00000000 cluster_c_tail
000027c0 l       .text	00000000 cmov_tail
000027d2 l       .text	00000000 cluster_c_end
000027d2 l       .text	00000000 secondary_tables_after_cluster_c
000027d2 l       .text	00000000 secondary_unimplemented_c_func
000029b4 l       .text	00000000 f8_table_end
00002a74 l       .text	00000000 fa_forward_table_end
00002b74 l       .text	00000000 cmov_table_end
00002c74 l       .text	00000000 fe_mul16_r0
00002c84 l       .text	00000000 fe_mul16_r1
00002c94 l       .text	00000000 fe_mul16_r2
00002ca4 l       .text	00000000 fe_mul16_r3
00002cb4 l       .text	00000000 fe_mul16_r4
00002cc4 l       .text	00000000 fe_mul16_r5
00002cd4 l       .text	00000000 fe_mul16_r6
00002ce4 l       .text	00000000 fe_mul16_r7
00002c74 l       .text	00000000 fe_forward_table_end
00002cf4 l       .text	00000000 fe_mul16_bodies_end
00002cf4 l       .text	00000000 fx_seek_to_pc
00002d2a l       .text	00000000 fx_seek_delay_10
00002d1e l       .text	00000000 fx_seek_delay_17
00002d20 l       .text	00000000 fx_seek_delay_16
00002d22 l       .text	00000000 fx_seek_delay_14
00002d24 l       .text	00000000 fx_seek_delay_13
00002d26 l       .text	00000000 fx_seek_delay_12
00002d28 l       .text	00000000 fx_seek_delay_11
00002d2c l       .text	00000000 fx_seek_delay_9
00002d2e l       .text	00000000 fx_seek_delay_7
00002d48 l       .text	00000000 startup_clear_ram_loop
00002f42 l       .text	00000000 hardware_init_pins_func
00002fb0 l       .text	00000000 oled_startup_init_func
00002f2e l       .text	00000000 fx_spi_transfer_blocking
00002f3a l       .text	00000000 fx_startup_wake_delay
00002daa l       .text	00000000 startup_find_development_image
00002dda l       .text	00000000 startup_read_header
00002ed0 l       .text	00000000 startup_try_tail
00002eaa l       .text	00000000 startup_invalid_image
00002f14 l       .text	00000000 fx_startup_begin_read
00002f2a l       .text	00000000 fx_startup_read_byte
00002e6e l       .text	00000000 startup_copy_data
00002e96 l       .text	00000000 startup_enter_image
00002e8a l       .text	00000000 startup_copy_data_loop
00002eb0 l       .text	00000000 timer0_init_func
00002eae l       .text	00000000 startup_invalid_image_loop
00002f0e l       .text	00000000 startup_try_tail_fail
00002f10 l       .text	00000000 startup_try_tail_fail_disabled
00002f96 l       .text	00000000 oled_reset_delay_5ms_func
00002fa4 l       .text	00000000 oled_spi_transfer_blocking_func
00002fd0 l       .text	00000000 oled_boot_program
00002fdd l       .text	00000000 oled_boot_program_end
00000a44 l       .text	00000000 .Lf9_high_operation
00000a38 l       .text	00000000 .Lf9_and
00000a3c l       .text	00000000 .Lf9_store
00000a4c l       .text	00000000 .Lf9_invalid
00002dc8 l       .text	00000000 .L11
00002dee l       .text	00000000 .L12
00002df6 l       .text	00000000 .L13
00002dfe l       .text	00000000 .L14
00002e06 l       .text	00000000 .L15
00002e0e l       .text	00000000 .L16
00002e44 l       .text	00000000 .L17
00002e52 l       .text	00000000 .L18
00002e4c l       .text	00000000 .L21
00002e60 l       .text	00000000 .L22
00002e5a l       .text	00000000 .L31
00002e6e l       .text	00000000 .L32
00002e82 l       .text	00000000 .L41
00002f30 l       .text	00000000 .L19
00002f3c l       .text	00000000 .L110
00002f9a l       .text	00000000 .L23
00002f98 l       .text	00000000 .L111
00002fa6 l       .text	00000000 .L112
00002fc0 l       .text	00000000 .L113
00000200 g       .text	00000000 primary_table
00000000 g       .text	00000000 __trampolines_start
00002fde g       .text	00000000 _etext
00000000 g       .text	00000000 __trampolines_end
00000000 g       .text	00000000 __dtors_end
00810000 g       .text	00000000 __eeprom_end
00000000 g       .text	000000ac __vectors
00000000 g       .text	00000000 __ctors_start
00000000 g       .text	00000000 __dtors_start
00000000 g       .text	00000000 __ctors_end
00800100 g       .text	00000000 _end
00000200 g       .text	00000000 abvm_interp



Disassembly of section .text:

00000000 <__vectors>:
       0:	0c 94 75 00 	jmp	0xea	; 0xea <reset_handler>
       4:	0c 94 56 00 	jmp	0xac	; 0xac <default_isr>
       8:	0c 94 56 00 	jmp	0xac	; 0xac <default_isr>
       c:	0c 94 56 00 	jmp	0xac	; 0xac <default_isr>
      10:	0c 94 56 00 	jmp	0xac	; 0xac <default_isr>
      14:	0c 94 56 00 	jmp	0xac	; 0xac <default_isr>
      18:	0c 94 56 00 	jmp	0xac	; 0xac <default_isr>
      1c:	0c 94 56 00 	jmp	0xac	; 0xac <default_isr>
      20:	0c 94 56 00 	jmp	0xac	; 0xac <default_isr>
      24:	0c 94 56 00 	jmp	0xac	; 0xac <default_isr>
      28:	0c 94 56 00 	jmp	0xac	; 0xac <default_isr>
      2c:	0c 94 56 00 	jmp	0xac	; 0xac <default_isr>
      30:	0c 94 56 00 	jmp	0xac	; 0xac <default_isr>
      34:	0c 94 56 00 	jmp	0xac	; 0xac <default_isr>
      38:	0c 94 56 00 	jmp	0xac	; 0xac <default_isr>
      3c:	0c 94 56 00 	jmp	0xac	; 0xac <default_isr>
      40:	0c 94 56 00 	jmp	0xac	; 0xac <default_isr>
      44:	0c 94 56 00 	jmp	0xac	; 0xac <default_isr>
      48:	0c 94 56 00 	jmp	0xac	; 0xac <default_isr>
      4c:	0c 94 56 00 	jmp	0xac	; 0xac <default_isr>
      50:	0c 94 56 00 	jmp	0xac	; 0xac <default_isr>
      54:	0c 94 57 00 	jmp	0xae	; 0xae <timer0_compa_isr>
      58:	0c 94 56 00 	jmp	0xac	; 0xac <default_isr>
      5c:	0c 94 56 00 	jmp	0xac	; 0xac <default_isr>
      60:	0c 94 56 00 	jmp	0xac	; 0xac <default_isr>
      64:	0c 94 56 00 	jmp	0xac	; 0xac <default_isr>
      68:	0c 94 56 00 	jmp	0xac	; 0xac <default_isr>
      6c:	0c 94 56 00 	jmp	0xac	; 0xac <default_isr>
      70:	0c 94 56 00 	jmp	0xac	; 0xac <default_isr>
      74:	0c 94 56 00 	jmp	0xac	; 0xac <default_isr>
      78:	0c 94 56 00 	jmp	0xac	; 0xac <default_isr>
      7c:	0c 94 56 00 	jmp	0xac	; 0xac <default_isr>
      80:	0c 94 56 00 	jmp	0xac	; 0xac <default_isr>
      84:	0c 94 56 00 	jmp	0xac	; 0xac <default_isr>
      88:	0c 94 56 00 	jmp	0xac	; 0xac <default_isr>
      8c:	0c 94 56 00 	jmp	0xac	; 0xac <default_isr>
      90:	0c 94 56 00 	jmp	0xac	; 0xac <default_isr>
      94:	0c 94 56 00 	jmp	0xac	; 0xac <default_isr>
      98:	0c 94 56 00 	jmp	0xac	; 0xac <default_isr>
      9c:	0c 94 56 00 	jmp	0xac	; 0xac <default_isr>
      a0:	0c 94 56 00 	jmp	0xac	; 0xac <default_isr>
      a4:	0c 94 56 00 	jmp	0xac	; 0xac <default_isr>
      a8:	0c 94 56 00 	jmp	0xac	; 0xac <default_isr>

000000ac <default_isr>:
      ac:	ff cf       	rjmp	.-2      	; 0xac <default_isr>

000000ae <timer0_compa_isr>:
      ae:	0f 92       	push	r0
      b0:	0f b6       	in	r0, 0x3f	; 63
      b2:	0f 92       	push	r0
      b4:	00 90 07 0a 	lds	r0, 0x0A07	; 0x800a07 <_end+0x907>
      b8:	03 94       	inc	r0
      ba:	00 92 07 0a 	sts	0x0A07, r0	; 0x800a07 <_end+0x907>
      be:	89 f4       	brne	.+34     	; 0xe2 <timer0_compa_isr_done>
      c0:	00 90 08 0a 	lds	r0, 0x0A08	; 0x800a08 <_end+0x908>
      c4:	03 94       	inc	r0
      c6:	00 92 08 0a 	sts	0x0A08, r0	; 0x800a08 <_end+0x908>
      ca:	59 f4       	brne	.+22     	; 0xe2 <timer0_compa_isr_done>
      cc:	00 90 09 0a 	lds	r0, 0x0A09	; 0x800a09 <_end+0x909>
      d0:	03 94       	inc	r0
      d2:	00 92 09 0a 	sts	0x0A09, r0	; 0x800a09 <_end+0x909>
      d6:	29 f4       	brne	.+10     	; 0xe2 <timer0_compa_isr_done>
      d8:	00 90 0a 0a 	lds	r0, 0x0A0A	; 0x800a0a <_end+0x90a>
      dc:	03 94       	inc	r0
      de:	00 92 0a 0a 	sts	0x0A0A, r0	; 0x800a0a <_end+0x90a>

000000e2 <timer0_compa_isr_done>:
      e2:	0f 90       	pop	r0
      e4:	0f be       	out	0x3f, r0	; 63
      e6:	0f 90       	pop	r0
      e8:	18 95       	reti

000000ea <reset_handler>:
      ea:	0c 94 98 16 	jmp	0x2d30	; 0x2d30 <startup_func>
      ee:	00 00       	nop
      f0:	00 00       	nop
      f2:	00 00       	nop
      f4:	00 00       	nop
      f6:	00 00       	nop
      f8:	00 00       	nop
      fa:	00 00       	nop
      fc:	00 00       	nop
      fe:	00 00       	nop
     100:	00 00       	nop
     102:	00 00       	nop
     104:	00 00       	nop
     106:	00 00       	nop
     108:	00 00       	nop
     10a:	00 00       	nop
     10c:	00 00       	nop
     10e:	00 00       	nop
     110:	00 00       	nop
     112:	00 00       	nop
     114:	00 00       	nop
     116:	00 00       	nop
     118:	00 00       	nop
     11a:	00 00       	nop
     11c:	00 00       	nop
     11e:	00 00       	nop
     120:	00 00       	nop
     122:	00 00       	nop
     124:	00 00       	nop
     126:	00 00       	nop
     128:	00 00       	nop
     12a:	00 00       	nop
     12c:	00 00       	nop
     12e:	00 00       	nop
     130:	00 00       	nop
     132:	00 00       	nop
     134:	00 00       	nop
     136:	00 00       	nop
     138:	00 00       	nop
     13a:	00 00       	nop
     13c:	00 00       	nop
     13e:	00 00       	nop
     140:	00 00       	nop
     142:	00 00       	nop
     144:	00 00       	nop
     146:	00 00       	nop
     148:	00 00       	nop
     14a:	00 00       	nop
     14c:	00 00       	nop
     14e:	00 00       	nop
     150:	00 00       	nop
     152:	00 00       	nop
     154:	00 00       	nop
     156:	00 00       	nop
     158:	00 00       	nop
     15a:	00 00       	nop
     15c:	00 00       	nop
     15e:	00 00       	nop
     160:	00 00       	nop
     162:	00 00       	nop
     164:	00 00       	nop
     166:	00 00       	nop
     168:	00 00       	nop
     16a:	00 00       	nop
     16c:	00 00       	nop
     16e:	00 00       	nop
     170:	00 00       	nop
     172:	00 00       	nop
     174:	00 00       	nop
     176:	00 00       	nop
     178:	00 00       	nop
     17a:	00 00       	nop
     17c:	00 00       	nop
     17e:	00 00       	nop
     180:	00 00       	nop
     182:	00 00       	nop
     184:	00 00       	nop
     186:	00 00       	nop
     188:	00 00       	nop
     18a:	00 00       	nop
     18c:	00 00       	nop
     18e:	00 00       	nop
     190:	00 00       	nop
     192:	00 00       	nop
     194:	00 00       	nop
     196:	00 00       	nop
     198:	00 00       	nop
     19a:	00 00       	nop
     19c:	00 00       	nop
     19e:	00 00       	nop
     1a0:	00 00       	nop
     1a2:	00 00       	nop
     1a4:	00 00       	nop
     1a6:	00 00       	nop
     1a8:	00 00       	nop
     1aa:	00 00       	nop
     1ac:	00 00       	nop
     1ae:	00 00       	nop
     1b0:	00 00       	nop
     1b2:	00 00       	nop
     1b4:	00 00       	nop
     1b6:	00 00       	nop
     1b8:	00 00       	nop
     1ba:	00 00       	nop
     1bc:	00 00       	nop
     1be:	00 00       	nop
     1c0:	00 00       	nop
     1c2:	00 00       	nop
     1c4:	00 00       	nop
     1c6:	00 00       	nop
     1c8:	00 00       	nop
     1ca:	00 00       	nop
     1cc:	00 00       	nop
     1ce:	00 00       	nop
     1d0:	00 00       	nop
     1d2:	00 00       	nop
     1d4:	00 00       	nop
     1d6:	00 00       	nop
     1d8:	00 00       	nop
     1da:	00 00       	nop
     1dc:	00 00       	nop
     1de:	00 00       	nop
     1e0:	00 00       	nop
     1e2:	00 00       	nop
     1e4:	00 00       	nop
     1e6:	00 00       	nop
     1e8:	00 00       	nop
     1ea:	00 00       	nop
     1ec:	00 00       	nop
     1ee:	00 00       	nop
     1f0:	00 00       	nop
     1f2:	00 00       	nop
     1f4:	00 00       	nop
     1f6:	00 00       	nop
     1f8:	00 00       	nop
     1fa:	00 00       	nop
     1fc:	00 00       	nop
     1fe:	00 00       	nop

00000200 <abvm_interp>:
     200:	88 01       	movw	r16, r16
     202:	68 c4       	rjmp	.+2256   	; 0xad4 <cluster_tail_17_delay_1>
     204:	00 00       	nop
     206:	00 00       	nop

00000208 <primary_01>:
     208:	89 01       	movw	r16, r18
     20a:	64 c4       	rjmp	.+2248   	; 0xad4 <cluster_tail_17_delay_1>
     20c:	00 00       	nop
     20e:	00 00       	nop

00000210 <primary_02>:
     210:	8a 01       	movw	r16, r20
     212:	60 c4       	rjmp	.+2240   	; 0xad4 <cluster_tail_17_delay_1>
     214:	00 00       	nop
     216:	00 00       	nop

00000218 <primary_03>:
     218:	8b 01       	movw	r16, r22
     21a:	5c c4       	rjmp	.+2232   	; 0xad4 <cluster_tail_17_delay_1>
     21c:	00 00       	nop
     21e:	00 00       	nop

00000220 <primary_04>:
     220:	98 01       	movw	r18, r16
     222:	58 c4       	rjmp	.+2224   	; 0xad4 <cluster_tail_17_delay_1>
     224:	00 00       	nop
     226:	00 00       	nop

00000228 <primary_05>:
     228:	99 01       	movw	r18, r18
     22a:	54 c4       	rjmp	.+2216   	; 0xad4 <cluster_tail_17_delay_1>
     22c:	00 00       	nop
     22e:	00 00       	nop

00000230 <primary_06>:
     230:	9a 01       	movw	r18, r20
     232:	50 c4       	rjmp	.+2208   	; 0xad4 <cluster_tail_17_delay_1>
     234:	00 00       	nop
     236:	00 00       	nop

00000238 <primary_07>:
     238:	9b 01       	movw	r18, r22
     23a:	4c c4       	rjmp	.+2200   	; 0xad4 <cluster_tail_17_delay_1>
     23c:	00 00       	nop
     23e:	00 00       	nop

00000240 <primary_08>:
     240:	a8 01       	movw	r20, r16
     242:	48 c4       	rjmp	.+2192   	; 0xad4 <cluster_tail_17_delay_1>
     244:	00 00       	nop
     246:	00 00       	nop

00000248 <primary_09>:
     248:	a9 01       	movw	r20, r18
     24a:	44 c4       	rjmp	.+2184   	; 0xad4 <cluster_tail_17_delay_1>
     24c:	00 00       	nop
     24e:	00 00       	nop

00000250 <primary_0A>:
     250:	aa 01       	movw	r20, r20
     252:	40 c4       	rjmp	.+2176   	; 0xad4 <cluster_tail_17_delay_1>
     254:	00 00       	nop
     256:	00 00       	nop

00000258 <primary_0B>:
     258:	ab 01       	movw	r20, r22
     25a:	3c c4       	rjmp	.+2168   	; 0xad4 <cluster_tail_17_delay_1>
     25c:	00 00       	nop
     25e:	00 00       	nop

00000260 <primary_0C>:
     260:	b8 01       	movw	r22, r16
     262:	38 c4       	rjmp	.+2160   	; 0xad4 <cluster_tail_17_delay_1>
     264:	00 00       	nop
     266:	00 00       	nop

00000268 <primary_0D>:
     268:	b9 01       	movw	r22, r18
     26a:	34 c4       	rjmp	.+2152   	; 0xad4 <cluster_tail_17_delay_1>
     26c:	00 00       	nop
     26e:	00 00       	nop

00000270 <primary_0E>:
     270:	ba 01       	movw	r22, r20
     272:	30 c4       	rjmp	.+2144   	; 0xad4 <cluster_tail_17_delay_1>
     274:	00 00       	nop
     276:	00 00       	nop

00000278 <primary_0F>:
     278:	bb 01       	movw	r22, r22
     27a:	2c c4       	rjmp	.+2136   	; 0xad4 <cluster_tail_17_delay_1>
     27c:	00 00       	nop
     27e:	00 00       	nop

00000280 <primary_10>:
     280:	00 0f       	add	r16, r16
     282:	11 1f       	adc	r17, r17
     284:	28 c4       	rjmp	.+2128   	; 0xad6 <cluster_tail_17>
     286:	00 00       	nop

00000288 <primary_11>:
     288:	02 0f       	add	r16, r18
     28a:	13 1f       	adc	r17, r19
     28c:	24 c4       	rjmp	.+2120   	; 0xad6 <cluster_tail_17>
     28e:	00 00       	nop

00000290 <primary_12>:
     290:	04 0f       	add	r16, r20
     292:	15 1f       	adc	r17, r21
     294:	20 c4       	rjmp	.+2112   	; 0xad6 <cluster_tail_17>
     296:	00 00       	nop

00000298 <primary_13>:
     298:	06 0f       	add	r16, r22
     29a:	17 1f       	adc	r17, r23
     29c:	1c c4       	rjmp	.+2104   	; 0xad6 <cluster_tail_17>
     29e:	00 00       	nop

000002a0 <primary_14>:
     2a0:	20 0f       	add	r18, r16
     2a2:	31 1f       	adc	r19, r17
     2a4:	18 c4       	rjmp	.+2096   	; 0xad6 <cluster_tail_17>
     2a6:	00 00       	nop

000002a8 <primary_15>:
     2a8:	22 0f       	add	r18, r18
     2aa:	33 1f       	adc	r19, r19
     2ac:	14 c4       	rjmp	.+2088   	; 0xad6 <cluster_tail_17>
     2ae:	00 00       	nop

000002b0 <primary_16>:
     2b0:	24 0f       	add	r18, r20
     2b2:	35 1f       	adc	r19, r21
     2b4:	10 c4       	rjmp	.+2080   	; 0xad6 <cluster_tail_17>
     2b6:	00 00       	nop

000002b8 <primary_17>:
     2b8:	26 0f       	add	r18, r22
     2ba:	37 1f       	adc	r19, r23
     2bc:	0c c4       	rjmp	.+2072   	; 0xad6 <cluster_tail_17>
     2be:	00 00       	nop

000002c0 <primary_18>:
     2c0:	40 0f       	add	r20, r16
     2c2:	51 1f       	adc	r21, r17
     2c4:	08 c4       	rjmp	.+2064   	; 0xad6 <cluster_tail_17>
     2c6:	00 00       	nop

000002c8 <primary_19>:
     2c8:	42 0f       	add	r20, r18
     2ca:	53 1f       	adc	r21, r19
     2cc:	04 c4       	rjmp	.+2056   	; 0xad6 <cluster_tail_17>
     2ce:	00 00       	nop

000002d0 <primary_1A>:
     2d0:	44 0f       	add	r20, r20
     2d2:	55 1f       	adc	r21, r21
     2d4:	00 c4       	rjmp	.+2048   	; 0xad6 <cluster_tail_17>
     2d6:	00 00       	nop

000002d8 <primary_1B>:
     2d8:	46 0f       	add	r20, r22
     2da:	57 1f       	adc	r21, r23
     2dc:	fc c3       	rjmp	.+2040   	; 0xad6 <cluster_tail_17>
     2de:	00 00       	nop

000002e0 <primary_1C>:
     2e0:	60 0f       	add	r22, r16
     2e2:	71 1f       	adc	r23, r17
     2e4:	f8 c3       	rjmp	.+2032   	; 0xad6 <cluster_tail_17>
     2e6:	00 00       	nop

000002e8 <primary_1D>:
     2e8:	62 0f       	add	r22, r18
     2ea:	73 1f       	adc	r23, r19
     2ec:	f4 c3       	rjmp	.+2024   	; 0xad6 <cluster_tail_17>
     2ee:	00 00       	nop

000002f0 <primary_1E>:
     2f0:	64 0f       	add	r22, r20
     2f2:	75 1f       	adc	r23, r21
     2f4:	f0 c3       	rjmp	.+2016   	; 0xad6 <cluster_tail_17>
     2f6:	00 00       	nop

000002f8 <primary_1F>:
     2f8:	66 0f       	add	r22, r22
     2fa:	77 1f       	adc	r23, r23
     2fc:	ec c3       	rjmp	.+2008   	; 0xad6 <cluster_tail_17>
     2fe:	00 00       	nop

00000300 <primary_20>:
     300:	00 1b       	sub	r16, r16
     302:	11 0b       	sbc	r17, r17
     304:	e8 c3       	rjmp	.+2000   	; 0xad6 <cluster_tail_17>
     306:	00 00       	nop

00000308 <primary_21>:
     308:	02 1b       	sub	r16, r18
     30a:	13 0b       	sbc	r17, r19
     30c:	e4 c3       	rjmp	.+1992   	; 0xad6 <cluster_tail_17>
     30e:	00 00       	nop

00000310 <primary_22>:
     310:	04 1b       	sub	r16, r20
     312:	15 0b       	sbc	r17, r21
     314:	e0 c3       	rjmp	.+1984   	; 0xad6 <cluster_tail_17>
     316:	00 00       	nop

00000318 <primary_23>:
     318:	06 1b       	sub	r16, r22
     31a:	17 0b       	sbc	r17, r23
     31c:	dc c3       	rjmp	.+1976   	; 0xad6 <cluster_tail_17>
     31e:	00 00       	nop

00000320 <primary_24>:
     320:	20 1b       	sub	r18, r16
     322:	31 0b       	sbc	r19, r17
     324:	d8 c3       	rjmp	.+1968   	; 0xad6 <cluster_tail_17>
     326:	00 00       	nop

00000328 <primary_25>:
     328:	22 1b       	sub	r18, r18
     32a:	33 0b       	sbc	r19, r19
     32c:	d4 c3       	rjmp	.+1960   	; 0xad6 <cluster_tail_17>
     32e:	00 00       	nop

00000330 <primary_26>:
     330:	24 1b       	sub	r18, r20
     332:	35 0b       	sbc	r19, r21
     334:	d0 c3       	rjmp	.+1952   	; 0xad6 <cluster_tail_17>
     336:	00 00       	nop

00000338 <primary_27>:
     338:	26 1b       	sub	r18, r22
     33a:	37 0b       	sbc	r19, r23
     33c:	cc c3       	rjmp	.+1944   	; 0xad6 <cluster_tail_17>
     33e:	00 00       	nop

00000340 <primary_28>:
     340:	40 1b       	sub	r20, r16
     342:	51 0b       	sbc	r21, r17
     344:	c8 c3       	rjmp	.+1936   	; 0xad6 <cluster_tail_17>
     346:	00 00       	nop

00000348 <primary_29>:
     348:	42 1b       	sub	r20, r18
     34a:	53 0b       	sbc	r21, r19
     34c:	c4 c3       	rjmp	.+1928   	; 0xad6 <cluster_tail_17>
     34e:	00 00       	nop

00000350 <primary_2A>:
     350:	44 1b       	sub	r20, r20
     352:	55 0b       	sbc	r21, r21
     354:	c0 c3       	rjmp	.+1920   	; 0xad6 <cluster_tail_17>
     356:	00 00       	nop

00000358 <primary_2B>:
     358:	46 1b       	sub	r20, r22
     35a:	57 0b       	sbc	r21, r23
     35c:	bc c3       	rjmp	.+1912   	; 0xad6 <cluster_tail_17>
     35e:	00 00       	nop

00000360 <primary_2C>:
     360:	60 1b       	sub	r22, r16
     362:	71 0b       	sbc	r23, r17
     364:	b8 c3       	rjmp	.+1904   	; 0xad6 <cluster_tail_17>
     366:	00 00       	nop

00000368 <primary_2D>:
     368:	62 1b       	sub	r22, r18
     36a:	73 0b       	sbc	r23, r19
     36c:	b4 c3       	rjmp	.+1896   	; 0xad6 <cluster_tail_17>
     36e:	00 00       	nop

00000370 <primary_2E>:
     370:	64 1b       	sub	r22, r20
     372:	75 0b       	sbc	r23, r21
     374:	b0 c3       	rjmp	.+1888   	; 0xad6 <cluster_tail_17>
     376:	00 00       	nop

00000378 <primary_2F>:
     378:	66 1b       	sub	r22, r22
     37a:	77 0b       	sbc	r23, r23
     37c:	ac c3       	rjmp	.+1880   	; 0xad6 <cluster_tail_17>
     37e:	00 00       	nop

00000380 <primary_30>:
     380:	00 17       	cp	r16, r16
     382:	11 07       	cpc	r17, r17
     384:	8f b7       	in	r24, 0x3f	; 63
     386:	9b c3       	rjmp	.+1846   	; 0xabe <cmov_gate_end>

00000388 <primary_31>:
     388:	02 17       	cp	r16, r18
     38a:	13 07       	cpc	r17, r19
     38c:	8f b7       	in	r24, 0x3f	; 63
     38e:	97 c3       	rjmp	.+1838   	; 0xabe <cmov_gate_end>

00000390 <primary_32>:
     390:	04 17       	cp	r16, r20
     392:	15 07       	cpc	r17, r21
     394:	8f b7       	in	r24, 0x3f	; 63
     396:	93 c3       	rjmp	.+1830   	; 0xabe <cmov_gate_end>

00000398 <primary_33>:
     398:	06 17       	cp	r16, r22
     39a:	17 07       	cpc	r17, r23
     39c:	8f b7       	in	r24, 0x3f	; 63
     39e:	8f c3       	rjmp	.+1822   	; 0xabe <cmov_gate_end>

000003a0 <primary_34>:
     3a0:	20 17       	cp	r18, r16
     3a2:	31 07       	cpc	r19, r17
     3a4:	8f b7       	in	r24, 0x3f	; 63
     3a6:	8b c3       	rjmp	.+1814   	; 0xabe <cmov_gate_end>

000003a8 <primary_35>:
     3a8:	22 17       	cp	r18, r18
     3aa:	33 07       	cpc	r19, r19
     3ac:	8f b7       	in	r24, 0x3f	; 63
     3ae:	87 c3       	rjmp	.+1806   	; 0xabe <cmov_gate_end>

000003b0 <primary_36>:
     3b0:	24 17       	cp	r18, r20
     3b2:	35 07       	cpc	r19, r21
     3b4:	8f b7       	in	r24, 0x3f	; 63
     3b6:	83 c3       	rjmp	.+1798   	; 0xabe <cmov_gate_end>

000003b8 <primary_37>:
     3b8:	26 17       	cp	r18, r22
     3ba:	37 07       	cpc	r19, r23
     3bc:	8f b7       	in	r24, 0x3f	; 63
     3be:	7f c3       	rjmp	.+1790   	; 0xabe <cmov_gate_end>

000003c0 <primary_38>:
     3c0:	40 17       	cp	r20, r16
     3c2:	51 07       	cpc	r21, r17
     3c4:	8f b7       	in	r24, 0x3f	; 63
     3c6:	7b c3       	rjmp	.+1782   	; 0xabe <cmov_gate_end>

000003c8 <primary_39>:
     3c8:	42 17       	cp	r20, r18
     3ca:	53 07       	cpc	r21, r19
     3cc:	8f b7       	in	r24, 0x3f	; 63
     3ce:	77 c3       	rjmp	.+1774   	; 0xabe <cmov_gate_end>

000003d0 <primary_3A>:
     3d0:	44 17       	cp	r20, r20
     3d2:	55 07       	cpc	r21, r21
     3d4:	8f b7       	in	r24, 0x3f	; 63
     3d6:	73 c3       	rjmp	.+1766   	; 0xabe <cmov_gate_end>

000003d8 <primary_3B>:
     3d8:	46 17       	cp	r20, r22
     3da:	57 07       	cpc	r21, r23
     3dc:	8f b7       	in	r24, 0x3f	; 63
     3de:	6f c3       	rjmp	.+1758   	; 0xabe <cmov_gate_end>

000003e0 <primary_3C>:
     3e0:	60 17       	cp	r22, r16
     3e2:	71 07       	cpc	r23, r17
     3e4:	8f b7       	in	r24, 0x3f	; 63
     3e6:	6b c3       	rjmp	.+1750   	; 0xabe <cmov_gate_end>

000003e8 <primary_3D>:
     3e8:	62 17       	cp	r22, r18
     3ea:	73 07       	cpc	r23, r19
     3ec:	8f b7       	in	r24, 0x3f	; 63
     3ee:	67 c3       	rjmp	.+1742   	; 0xabe <cmov_gate_end>

000003f0 <primary_3E>:
     3f0:	64 17       	cp	r22, r20
     3f2:	75 07       	cpc	r23, r21
     3f4:	8f b7       	in	r24, 0x3f	; 63
     3f6:	63 c3       	rjmp	.+1734   	; 0xabe <cmov_gate_end>

000003f8 <primary_3F>:
     3f8:	66 17       	cp	r22, r22
     3fa:	77 07       	cpc	r23, r23
     3fc:	8f b7       	in	r24, 0x3f	; 63
     3fe:	5f c3       	rjmp	.+1726   	; 0xabe <cmov_gate_end>

00000400 <primary_40>:
     400:	d8 01       	movw	r26, r16
     402:	0c 91       	ld	r16, X
     404:	11 27       	eor	r17, r17
     406:	74 c3       	rjmp	.+1768   	; 0xaf0 <cluster_tail_18_delay_1>

00000408 <primary_41>:
     408:	d9 01       	movw	r26, r18
     40a:	0c 91       	ld	r16, X
     40c:	11 27       	eor	r17, r17
     40e:	70 c3       	rjmp	.+1760   	; 0xaf0 <cluster_tail_18_delay_1>

00000410 <primary_42>:
     410:	da 01       	movw	r26, r20
     412:	0c 91       	ld	r16, X
     414:	11 27       	eor	r17, r17
     416:	6c c3       	rjmp	.+1752   	; 0xaf0 <cluster_tail_18_delay_1>

00000418 <primary_43>:
     418:	db 01       	movw	r26, r22
     41a:	0c 91       	ld	r16, X
     41c:	11 27       	eor	r17, r17
     41e:	68 c3       	rjmp	.+1744   	; 0xaf0 <cluster_tail_18_delay_1>

00000420 <primary_44>:
     420:	d8 01       	movw	r26, r16
     422:	2c 91       	ld	r18, X
     424:	33 27       	eor	r19, r19
     426:	64 c3       	rjmp	.+1736   	; 0xaf0 <cluster_tail_18_delay_1>

00000428 <primary_45>:
     428:	d9 01       	movw	r26, r18
     42a:	2c 91       	ld	r18, X
     42c:	33 27       	eor	r19, r19
     42e:	60 c3       	rjmp	.+1728   	; 0xaf0 <cluster_tail_18_delay_1>

00000430 <primary_46>:
     430:	da 01       	movw	r26, r20
     432:	2c 91       	ld	r18, X
     434:	33 27       	eor	r19, r19
     436:	5c c3       	rjmp	.+1720   	; 0xaf0 <cluster_tail_18_delay_1>

00000438 <primary_47>:
     438:	db 01       	movw	r26, r22
     43a:	2c 91       	ld	r18, X
     43c:	33 27       	eor	r19, r19
     43e:	58 c3       	rjmp	.+1712   	; 0xaf0 <cluster_tail_18_delay_1>

00000440 <primary_48>:
     440:	d8 01       	movw	r26, r16
     442:	4c 91       	ld	r20, X
     444:	55 27       	eor	r21, r21
     446:	54 c3       	rjmp	.+1704   	; 0xaf0 <cluster_tail_18_delay_1>

00000448 <primary_49>:
     448:	d9 01       	movw	r26, r18
     44a:	4c 91       	ld	r20, X
     44c:	55 27       	eor	r21, r21
     44e:	50 c3       	rjmp	.+1696   	; 0xaf0 <cluster_tail_18_delay_1>

00000450 <primary_4A>:
     450:	da 01       	movw	r26, r20
     452:	4c 91       	ld	r20, X
     454:	55 27       	eor	r21, r21
     456:	4c c3       	rjmp	.+1688   	; 0xaf0 <cluster_tail_18_delay_1>

00000458 <primary_4B>:
     458:	db 01       	movw	r26, r22
     45a:	4c 91       	ld	r20, X
     45c:	55 27       	eor	r21, r21
     45e:	48 c3       	rjmp	.+1680   	; 0xaf0 <cluster_tail_18_delay_1>

00000460 <primary_4C>:
     460:	d8 01       	movw	r26, r16
     462:	6c 91       	ld	r22, X
     464:	77 27       	eor	r23, r23
     466:	44 c3       	rjmp	.+1672   	; 0xaf0 <cluster_tail_18_delay_1>

00000468 <primary_4D>:
     468:	d9 01       	movw	r26, r18
     46a:	6c 91       	ld	r22, X
     46c:	77 27       	eor	r23, r23
     46e:	40 c3       	rjmp	.+1664   	; 0xaf0 <cluster_tail_18_delay_1>

00000470 <primary_4E>:
     470:	da 01       	movw	r26, r20
     472:	6c 91       	ld	r22, X
     474:	77 27       	eor	r23, r23
     476:	3c c3       	rjmp	.+1656   	; 0xaf0 <cluster_tail_18_delay_1>

00000478 <primary_4F>:
     478:	db 01       	movw	r26, r22
     47a:	6c 91       	ld	r22, X
     47c:	77 27       	eor	r23, r23
     47e:	38 c3       	rjmp	.+1648   	; 0xaf0 <cluster_tail_18_delay_1>

00000480 <primary_50>:
     480:	d8 01       	movw	r26, r16
     482:	0c 93       	st	X, r16
     484:	34 c3       	rjmp	.+1640   	; 0xaee <cluster_tail_18_delay_2>
     486:	00 00       	nop

00000488 <primary_51>:
     488:	d8 01       	movw	r26, r16
     48a:	2c 93       	st	X, r18
     48c:	30 c3       	rjmp	.+1632   	; 0xaee <cluster_tail_18_delay_2>
     48e:	00 00       	nop

00000490 <primary_52>:
     490:	d8 01       	movw	r26, r16
     492:	4c 93       	st	X, r20
     494:	2c c3       	rjmp	.+1624   	; 0xaee <cluster_tail_18_delay_2>
     496:	00 00       	nop

00000498 <primary_53>:
     498:	d8 01       	movw	r26, r16
     49a:	6c 93       	st	X, r22
     49c:	28 c3       	rjmp	.+1616   	; 0xaee <cluster_tail_18_delay_2>
     49e:	00 00       	nop

000004a0 <primary_54>:
     4a0:	d9 01       	movw	r26, r18
     4a2:	0c 93       	st	X, r16
     4a4:	24 c3       	rjmp	.+1608   	; 0xaee <cluster_tail_18_delay_2>
     4a6:	00 00       	nop

000004a8 <primary_55>:
     4a8:	d9 01       	movw	r26, r18
     4aa:	2c 93       	st	X, r18
     4ac:	20 c3       	rjmp	.+1600   	; 0xaee <cluster_tail_18_delay_2>
     4ae:	00 00       	nop

000004b0 <primary_56>:
     4b0:	d9 01       	movw	r26, r18
     4b2:	4c 93       	st	X, r20
     4b4:	1c c3       	rjmp	.+1592   	; 0xaee <cluster_tail_18_delay_2>
     4b6:	00 00       	nop

000004b8 <primary_57>:
     4b8:	d9 01       	movw	r26, r18
     4ba:	6c 93       	st	X, r22
     4bc:	18 c3       	rjmp	.+1584   	; 0xaee <cluster_tail_18_delay_2>
     4be:	00 00       	nop

000004c0 <primary_58>:
     4c0:	da 01       	movw	r26, r20
     4c2:	0c 93       	st	X, r16
     4c4:	14 c3       	rjmp	.+1576   	; 0xaee <cluster_tail_18_delay_2>
     4c6:	00 00       	nop

000004c8 <primary_59>:
     4c8:	da 01       	movw	r26, r20
     4ca:	2c 93       	st	X, r18
     4cc:	10 c3       	rjmp	.+1568   	; 0xaee <cluster_tail_18_delay_2>
     4ce:	00 00       	nop

000004d0 <primary_5A>:
     4d0:	da 01       	movw	r26, r20
     4d2:	4c 93       	st	X, r20
     4d4:	0c c3       	rjmp	.+1560   	; 0xaee <cluster_tail_18_delay_2>
     4d6:	00 00       	nop

000004d8 <primary_5B>:
     4d8:	da 01       	movw	r26, r20
     4da:	6c 93       	st	X, r22
     4dc:	08 c3       	rjmp	.+1552   	; 0xaee <cluster_tail_18_delay_2>
     4de:	00 00       	nop

000004e0 <primary_5C>:
     4e0:	db 01       	movw	r26, r22
     4e2:	0c 93       	st	X, r16
     4e4:	04 c3       	rjmp	.+1544   	; 0xaee <cluster_tail_18_delay_2>
     4e6:	00 00       	nop

000004e8 <primary_5D>:
     4e8:	db 01       	movw	r26, r22
     4ea:	2c 93       	st	X, r18
     4ec:	00 c3       	rjmp	.+1536   	; 0xaee <cluster_tail_18_delay_2>
     4ee:	00 00       	nop

000004f0 <primary_5E>:
     4f0:	db 01       	movw	r26, r22
     4f2:	4c 93       	st	X, r20
     4f4:	fc c2       	rjmp	.+1528   	; 0xaee <cluster_tail_18_delay_2>
     4f6:	00 00       	nop

000004f8 <primary_5F>:
     4f8:	db 01       	movw	r26, r22
     4fa:	6c 93       	st	X, r22
     4fc:	f8 c2       	rjmp	.+1520   	; 0xaee <cluster_tail_18_delay_2>
     4fe:	00 00       	nop

00000500 <primary_60>:
     500:	d8 01       	movw	r26, r16
     502:	0d 91       	ld	r16, X+
     504:	1c 91       	ld	r17, X
     506:	f5 c2       	rjmp	.+1514   	; 0xaf2 <cluster_tail_18>

00000508 <primary_61>:
     508:	d9 01       	movw	r26, r18
     50a:	0d 91       	ld	r16, X+
     50c:	1c 91       	ld	r17, X
     50e:	f1 c2       	rjmp	.+1506   	; 0xaf2 <cluster_tail_18>

00000510 <primary_62>:
     510:	da 01       	movw	r26, r20
     512:	0d 91       	ld	r16, X+
     514:	1c 91       	ld	r17, X
     516:	ed c2       	rjmp	.+1498   	; 0xaf2 <cluster_tail_18>

00000518 <primary_63>:
     518:	db 01       	movw	r26, r22
     51a:	0d 91       	ld	r16, X+
     51c:	1c 91       	ld	r17, X
     51e:	e9 c2       	rjmp	.+1490   	; 0xaf2 <cluster_tail_18>

00000520 <primary_64>:
     520:	d8 01       	movw	r26, r16
     522:	2d 91       	ld	r18, X+
     524:	3c 91       	ld	r19, X
     526:	e5 c2       	rjmp	.+1482   	; 0xaf2 <cluster_tail_18>

00000528 <primary_65>:
     528:	d9 01       	movw	r26, r18
     52a:	2d 91       	ld	r18, X+
     52c:	3c 91       	ld	r19, X
     52e:	e1 c2       	rjmp	.+1474   	; 0xaf2 <cluster_tail_18>

00000530 <primary_66>:
     530:	da 01       	movw	r26, r20
     532:	2d 91       	ld	r18, X+
     534:	3c 91       	ld	r19, X
     536:	dd c2       	rjmp	.+1466   	; 0xaf2 <cluster_tail_18>

00000538 <primary_67>:
     538:	db 01       	movw	r26, r22
     53a:	2d 91       	ld	r18, X+
     53c:	3c 91       	ld	r19, X
     53e:	d9 c2       	rjmp	.+1458   	; 0xaf2 <cluster_tail_18>

00000540 <primary_68>:
     540:	d8 01       	movw	r26, r16
     542:	4d 91       	ld	r20, X+
     544:	5c 91       	ld	r21, X
     546:	d5 c2       	rjmp	.+1450   	; 0xaf2 <cluster_tail_18>

00000548 <primary_69>:
     548:	d9 01       	movw	r26, r18
     54a:	4d 91       	ld	r20, X+
     54c:	5c 91       	ld	r21, X
     54e:	d1 c2       	rjmp	.+1442   	; 0xaf2 <cluster_tail_18>

00000550 <primary_6A>:
     550:	da 01       	movw	r26, r20
     552:	4d 91       	ld	r20, X+
     554:	5c 91       	ld	r21, X
     556:	cd c2       	rjmp	.+1434   	; 0xaf2 <cluster_tail_18>

00000558 <primary_6B>:
     558:	db 01       	movw	r26, r22
     55a:	4d 91       	ld	r20, X+
     55c:	5c 91       	ld	r21, X
     55e:	c9 c2       	rjmp	.+1426   	; 0xaf2 <cluster_tail_18>

00000560 <primary_6C>:
     560:	d8 01       	movw	r26, r16
     562:	6d 91       	ld	r22, X+
     564:	7c 91       	ld	r23, X
     566:	c5 c2       	rjmp	.+1418   	; 0xaf2 <cluster_tail_18>

00000568 <primary_6D>:
     568:	d9 01       	movw	r26, r18
     56a:	6d 91       	ld	r22, X+
     56c:	7c 91       	ld	r23, X
     56e:	c1 c2       	rjmp	.+1410   	; 0xaf2 <cluster_tail_18>

00000570 <primary_6E>:
     570:	da 01       	movw	r26, r20
     572:	6d 91       	ld	r22, X+
     574:	7c 91       	ld	r23, X
     576:	bd c2       	rjmp	.+1402   	; 0xaf2 <cluster_tail_18>

00000578 <primary_6F>:
     578:	db 01       	movw	r26, r22
     57a:	6d 91       	ld	r22, X+
     57c:	7c 91       	ld	r23, X
     57e:	b9 c2       	rjmp	.+1394   	; 0xaf2 <cluster_tail_18>

00000580 <primary_70>:
     580:	d8 01       	movw	r26, r16
     582:	0d 93       	st	X+, r16
     584:	1c 93       	st	X, r17
     586:	b5 c2       	rjmp	.+1386   	; 0xaf2 <cluster_tail_18>

00000588 <primary_71>:
     588:	d8 01       	movw	r26, r16
     58a:	2d 93       	st	X+, r18
     58c:	3c 93       	st	X, r19
     58e:	b1 c2       	rjmp	.+1378   	; 0xaf2 <cluster_tail_18>

00000590 <primary_72>:
     590:	d8 01       	movw	r26, r16
     592:	4d 93       	st	X+, r20
     594:	5c 93       	st	X, r21
     596:	ad c2       	rjmp	.+1370   	; 0xaf2 <cluster_tail_18>

00000598 <primary_73>:
     598:	d8 01       	movw	r26, r16
     59a:	6d 93       	st	X+, r22
     59c:	7c 93       	st	X, r23
     59e:	a9 c2       	rjmp	.+1362   	; 0xaf2 <cluster_tail_18>

000005a0 <primary_74>:
     5a0:	d9 01       	movw	r26, r18
     5a2:	0d 93       	st	X+, r16
     5a4:	1c 93       	st	X, r17
     5a6:	a5 c2       	rjmp	.+1354   	; 0xaf2 <cluster_tail_18>

000005a8 <primary_75>:
     5a8:	d9 01       	movw	r26, r18
     5aa:	2d 93       	st	X+, r18
     5ac:	3c 93       	st	X, r19
     5ae:	a1 c2       	rjmp	.+1346   	; 0xaf2 <cluster_tail_18>

000005b0 <primary_76>:
     5b0:	d9 01       	movw	r26, r18
     5b2:	4d 93       	st	X+, r20
     5b4:	5c 93       	st	X, r21
     5b6:	9d c2       	rjmp	.+1338   	; 0xaf2 <cluster_tail_18>

000005b8 <primary_77>:
     5b8:	d9 01       	movw	r26, r18
     5ba:	6d 93       	st	X+, r22
     5bc:	7c 93       	st	X, r23
     5be:	99 c2       	rjmp	.+1330   	; 0xaf2 <cluster_tail_18>

000005c0 <primary_78>:
     5c0:	da 01       	movw	r26, r20
     5c2:	0d 93       	st	X+, r16
     5c4:	1c 93       	st	X, r17
     5c6:	95 c2       	rjmp	.+1322   	; 0xaf2 <cluster_tail_18>

000005c8 <primary_79>:
     5c8:	da 01       	movw	r26, r20
     5ca:	2d 93       	st	X+, r18
     5cc:	3c 93       	st	X, r19
     5ce:	91 c2       	rjmp	.+1314   	; 0xaf2 <cluster_tail_18>

000005d0 <primary_7A>:
     5d0:	da 01       	movw	r26, r20
     5d2:	4d 93       	st	X+, r20
     5d4:	5c 93       	st	X, r21
     5d6:	8d c2       	rjmp	.+1306   	; 0xaf2 <cluster_tail_18>

000005d8 <primary_7B>:
     5d8:	da 01       	movw	r26, r20
     5da:	6d 93       	st	X+, r22
     5dc:	7c 93       	st	X, r23
     5de:	89 c2       	rjmp	.+1298   	; 0xaf2 <cluster_tail_18>

000005e0 <primary_7C>:
     5e0:	db 01       	movw	r26, r22
     5e2:	0d 93       	st	X+, r16
     5e4:	1c 93       	st	X, r17
     5e6:	85 c2       	rjmp	.+1290   	; 0xaf2 <cluster_tail_18>

000005e8 <primary_7D>:
     5e8:	db 01       	movw	r26, r22
     5ea:	2d 93       	st	X+, r18
     5ec:	3c 93       	st	X, r19
     5ee:	81 c2       	rjmp	.+1282   	; 0xaf2 <cluster_tail_18>

000005f0 <primary_7E>:
     5f0:	db 01       	movw	r26, r22
     5f2:	4d 93       	st	X+, r20
     5f4:	5c 93       	st	X, r21
     5f6:	7d c2       	rjmp	.+1274   	; 0xaf2 <cluster_tail_18>

000005f8 <primary_7F>:
     5f8:	db 01       	movw	r26, r22
     5fa:	6d 93       	st	X+, r22
     5fc:	7c 93       	st	X, r23
     5fe:	79 c2       	rjmp	.+1266   	; 0xaf2 <cluster_tail_18>

00000600 <primary_80>:
     600:	00 23       	and	r16, r16
     602:	11 23       	and	r17, r17
     604:	68 c2       	rjmp	.+1232   	; 0xad6 <cluster_tail_17>
     606:	00 00       	nop

00000608 <primary_81>:
     608:	02 23       	and	r16, r18
     60a:	13 23       	and	r17, r19
     60c:	64 c2       	rjmp	.+1224   	; 0xad6 <cluster_tail_17>
     60e:	00 00       	nop

00000610 <primary_82>:
     610:	04 23       	and	r16, r20
     612:	15 23       	and	r17, r21
     614:	60 c2       	rjmp	.+1216   	; 0xad6 <cluster_tail_17>
     616:	00 00       	nop

00000618 <primary_83>:
     618:	06 23       	and	r16, r22
     61a:	17 23       	and	r17, r23
     61c:	5c c2       	rjmp	.+1208   	; 0xad6 <cluster_tail_17>
     61e:	00 00       	nop

00000620 <primary_84>:
     620:	20 23       	and	r18, r16
     622:	31 23       	and	r19, r17
     624:	58 c2       	rjmp	.+1200   	; 0xad6 <cluster_tail_17>
     626:	00 00       	nop

00000628 <primary_85>:
     628:	22 23       	and	r18, r18
     62a:	33 23       	and	r19, r19
     62c:	54 c2       	rjmp	.+1192   	; 0xad6 <cluster_tail_17>
     62e:	00 00       	nop

00000630 <primary_86>:
     630:	24 23       	and	r18, r20
     632:	35 23       	and	r19, r21
     634:	50 c2       	rjmp	.+1184   	; 0xad6 <cluster_tail_17>
     636:	00 00       	nop

00000638 <primary_87>:
     638:	26 23       	and	r18, r22
     63a:	37 23       	and	r19, r23
     63c:	4c c2       	rjmp	.+1176   	; 0xad6 <cluster_tail_17>
     63e:	00 00       	nop

00000640 <primary_88>:
     640:	40 23       	and	r20, r16
     642:	51 23       	and	r21, r17
     644:	48 c2       	rjmp	.+1168   	; 0xad6 <cluster_tail_17>
     646:	00 00       	nop

00000648 <primary_89>:
     648:	42 23       	and	r20, r18
     64a:	53 23       	and	r21, r19
     64c:	44 c2       	rjmp	.+1160   	; 0xad6 <cluster_tail_17>
     64e:	00 00       	nop

00000650 <primary_8A>:
     650:	44 23       	and	r20, r20
     652:	55 23       	and	r21, r21
     654:	40 c2       	rjmp	.+1152   	; 0xad6 <cluster_tail_17>
     656:	00 00       	nop

00000658 <primary_8B>:
     658:	46 23       	and	r20, r22
     65a:	57 23       	and	r21, r23
     65c:	3c c2       	rjmp	.+1144   	; 0xad6 <cluster_tail_17>
     65e:	00 00       	nop

00000660 <primary_8C>:
     660:	60 23       	and	r22, r16
     662:	71 23       	and	r23, r17
     664:	38 c2       	rjmp	.+1136   	; 0xad6 <cluster_tail_17>
     666:	00 00       	nop

00000668 <primary_8D>:
     668:	62 23       	and	r22, r18
     66a:	73 23       	and	r23, r19
     66c:	34 c2       	rjmp	.+1128   	; 0xad6 <cluster_tail_17>
     66e:	00 00       	nop

00000670 <primary_8E>:
     670:	64 23       	and	r22, r20
     672:	75 23       	and	r23, r21
     674:	30 c2       	rjmp	.+1120   	; 0xad6 <cluster_tail_17>
     676:	00 00       	nop

00000678 <primary_8F>:
     678:	66 23       	and	r22, r22
     67a:	77 23       	and	r23, r23
     67c:	2c c2       	rjmp	.+1112   	; 0xad6 <cluster_tail_17>
     67e:	00 00       	nop

00000680 <primary_90>:
     680:	00 2b       	or	r16, r16
     682:	11 2b       	or	r17, r17
     684:	28 c2       	rjmp	.+1104   	; 0xad6 <cluster_tail_17>
     686:	00 00       	nop

00000688 <primary_91>:
     688:	02 2b       	or	r16, r18
     68a:	13 2b       	or	r17, r19
     68c:	24 c2       	rjmp	.+1096   	; 0xad6 <cluster_tail_17>
     68e:	00 00       	nop

00000690 <primary_92>:
     690:	04 2b       	or	r16, r20
     692:	15 2b       	or	r17, r21
     694:	20 c2       	rjmp	.+1088   	; 0xad6 <cluster_tail_17>
     696:	00 00       	nop

00000698 <primary_93>:
     698:	06 2b       	or	r16, r22
     69a:	17 2b       	or	r17, r23
     69c:	1c c2       	rjmp	.+1080   	; 0xad6 <cluster_tail_17>
     69e:	00 00       	nop

000006a0 <primary_94>:
     6a0:	20 2b       	or	r18, r16
     6a2:	31 2b       	or	r19, r17
     6a4:	18 c2       	rjmp	.+1072   	; 0xad6 <cluster_tail_17>
     6a6:	00 00       	nop

000006a8 <primary_95>:
     6a8:	22 2b       	or	r18, r18
     6aa:	33 2b       	or	r19, r19
     6ac:	14 c2       	rjmp	.+1064   	; 0xad6 <cluster_tail_17>
     6ae:	00 00       	nop

000006b0 <primary_96>:
     6b0:	24 2b       	or	r18, r20
     6b2:	35 2b       	or	r19, r21
     6b4:	10 c2       	rjmp	.+1056   	; 0xad6 <cluster_tail_17>
     6b6:	00 00       	nop

000006b8 <primary_97>:
     6b8:	26 2b       	or	r18, r22
     6ba:	37 2b       	or	r19, r23
     6bc:	0c c2       	rjmp	.+1048   	; 0xad6 <cluster_tail_17>
     6be:	00 00       	nop

000006c0 <primary_98>:
     6c0:	40 2b       	or	r20, r16
     6c2:	51 2b       	or	r21, r17
     6c4:	08 c2       	rjmp	.+1040   	; 0xad6 <cluster_tail_17>
     6c6:	00 00       	nop

000006c8 <primary_99>:
     6c8:	42 2b       	or	r20, r18
     6ca:	53 2b       	or	r21, r19
     6cc:	04 c2       	rjmp	.+1032   	; 0xad6 <cluster_tail_17>
     6ce:	00 00       	nop

000006d0 <primary_9A>:
     6d0:	44 2b       	or	r20, r20
     6d2:	55 2b       	or	r21, r21
     6d4:	00 c2       	rjmp	.+1024   	; 0xad6 <cluster_tail_17>
     6d6:	00 00       	nop

000006d8 <primary_9B>:
     6d8:	46 2b       	or	r20, r22
     6da:	57 2b       	or	r21, r23
     6dc:	fc c1       	rjmp	.+1016   	; 0xad6 <cluster_tail_17>
     6de:	00 00       	nop

000006e0 <primary_9C>:
     6e0:	60 2b       	or	r22, r16
     6e2:	71 2b       	or	r23, r17
     6e4:	f8 c1       	rjmp	.+1008   	; 0xad6 <cluster_tail_17>
     6e6:	00 00       	nop

000006e8 <primary_9D>:
     6e8:	62 2b       	or	r22, r18
     6ea:	73 2b       	or	r23, r19
     6ec:	f4 c1       	rjmp	.+1000   	; 0xad6 <cluster_tail_17>
     6ee:	00 00       	nop

000006f0 <primary_9E>:
     6f0:	64 2b       	or	r22, r20
     6f2:	75 2b       	or	r23, r21
     6f4:	f0 c1       	rjmp	.+992    	; 0xad6 <cluster_tail_17>
     6f6:	00 00       	nop

000006f8 <primary_9F>:
     6f8:	66 2b       	or	r22, r22
     6fa:	77 2b       	or	r23, r23
     6fc:	ec c1       	rjmp	.+984    	; 0xad6 <cluster_tail_17>
     6fe:	00 00       	nop

00000700 <primary_A0>:
     700:	00 27       	eor	r16, r16
     702:	11 27       	eor	r17, r17
     704:	e8 c1       	rjmp	.+976    	; 0xad6 <cluster_tail_17>
     706:	00 00       	nop

00000708 <primary_A1>:
     708:	02 27       	eor	r16, r18
     70a:	13 27       	eor	r17, r19
     70c:	e4 c1       	rjmp	.+968    	; 0xad6 <cluster_tail_17>
     70e:	00 00       	nop

00000710 <primary_A2>:
     710:	04 27       	eor	r16, r20
     712:	15 27       	eor	r17, r21
     714:	e0 c1       	rjmp	.+960    	; 0xad6 <cluster_tail_17>
     716:	00 00       	nop

00000718 <primary_A3>:
     718:	06 27       	eor	r16, r22
     71a:	17 27       	eor	r17, r23
     71c:	dc c1       	rjmp	.+952    	; 0xad6 <cluster_tail_17>
     71e:	00 00       	nop

00000720 <primary_A4>:
     720:	20 27       	eor	r18, r16
     722:	31 27       	eor	r19, r17
     724:	d8 c1       	rjmp	.+944    	; 0xad6 <cluster_tail_17>
     726:	00 00       	nop

00000728 <primary_A5>:
     728:	22 27       	eor	r18, r18
     72a:	33 27       	eor	r19, r19
     72c:	d4 c1       	rjmp	.+936    	; 0xad6 <cluster_tail_17>
     72e:	00 00       	nop

00000730 <primary_A6>:
     730:	24 27       	eor	r18, r20
     732:	35 27       	eor	r19, r21
     734:	d0 c1       	rjmp	.+928    	; 0xad6 <cluster_tail_17>
     736:	00 00       	nop

00000738 <primary_A7>:
     738:	26 27       	eor	r18, r22
     73a:	37 27       	eor	r19, r23
     73c:	cc c1       	rjmp	.+920    	; 0xad6 <cluster_tail_17>
     73e:	00 00       	nop

00000740 <primary_A8>:
     740:	40 27       	eor	r20, r16
     742:	51 27       	eor	r21, r17
     744:	c8 c1       	rjmp	.+912    	; 0xad6 <cluster_tail_17>
     746:	00 00       	nop

00000748 <primary_A9>:
     748:	42 27       	eor	r20, r18
     74a:	53 27       	eor	r21, r19
     74c:	c4 c1       	rjmp	.+904    	; 0xad6 <cluster_tail_17>
     74e:	00 00       	nop

00000750 <primary_AA>:
     750:	44 27       	eor	r20, r20
     752:	55 27       	eor	r21, r21
     754:	c0 c1       	rjmp	.+896    	; 0xad6 <cluster_tail_17>
     756:	00 00       	nop

00000758 <primary_AB>:
     758:	46 27       	eor	r20, r22
     75a:	57 27       	eor	r21, r23
     75c:	bc c1       	rjmp	.+888    	; 0xad6 <cluster_tail_17>
     75e:	00 00       	nop

00000760 <primary_AC>:
     760:	60 27       	eor	r22, r16
     762:	71 27       	eor	r23, r17
     764:	b8 c1       	rjmp	.+880    	; 0xad6 <cluster_tail_17>
     766:	00 00       	nop

00000768 <primary_AD>:
     768:	62 27       	eor	r22, r18
     76a:	73 27       	eor	r23, r19
     76c:	b4 c1       	rjmp	.+872    	; 0xad6 <cluster_tail_17>
     76e:	00 00       	nop

00000770 <primary_AE>:
     770:	64 27       	eor	r22, r20
     772:	75 27       	eor	r23, r21
     774:	b0 c1       	rjmp	.+864    	; 0xad6 <cluster_tail_17>
     776:	00 00       	nop

00000778 <primary_AF>:
     778:	66 27       	eor	r22, r22
     77a:	77 27       	eor	r23, r23
     77c:	ac c1       	rjmp	.+856    	; 0xad6 <cluster_tail_17>
     77e:	00 00       	nop

00000780 <primary_B0_push16_r0>:
     780:	9a 92       	st	-Y, r9
     782:	8a 92       	st	-Y, r8
     784:	b5 c1       	rjmp	.+874    	; 0xaf0 <cluster_tail_18_delay_1>
     786:	00 00       	nop

00000788 <primary_B1_push16_r1>:
     788:	ba 92       	st	-Y, r11
     78a:	aa 92       	st	-Y, r10
     78c:	b1 c1       	rjmp	.+866    	; 0xaf0 <cluster_tail_18_delay_1>
     78e:	00 00       	nop

00000790 <primary_B2_push16_r2>:
     790:	da 92       	st	-Y, r13
     792:	ca 92       	st	-Y, r12
     794:	ad c1       	rjmp	.+858    	; 0xaf0 <cluster_tail_18_delay_1>
     796:	00 00       	nop

00000798 <primary_B3_push16_r3>:
     798:	fa 92       	st	-Y, r15
     79a:	ea 92       	st	-Y, r14
     79c:	a9 c1       	rjmp	.+850    	; 0xaf0 <cluster_tail_18_delay_1>
     79e:	00 00       	nop

000007a0 <primary_B4_push16_r4>:
     7a0:	1a 93       	st	-Y, r17
     7a2:	0a 93       	st	-Y, r16
     7a4:	a5 c1       	rjmp	.+842    	; 0xaf0 <cluster_tail_18_delay_1>
     7a6:	00 00       	nop

000007a8 <primary_B5_push16_r5>:
     7a8:	3a 93       	st	-Y, r19
     7aa:	2a 93       	st	-Y, r18
     7ac:	a1 c1       	rjmp	.+834    	; 0xaf0 <cluster_tail_18_delay_1>
     7ae:	00 00       	nop

000007b0 <primary_B6_push16_r6>:
     7b0:	5a 93       	st	-Y, r21
     7b2:	4a 93       	st	-Y, r20
     7b4:	9d c1       	rjmp	.+826    	; 0xaf0 <cluster_tail_18_delay_1>
     7b6:	00 00       	nop

000007b8 <primary_B7_push16_r7>:
     7b8:	7a 93       	st	-Y, r23
     7ba:	6a 93       	st	-Y, r22
     7bc:	99 c1       	rjmp	.+818    	; 0xaf0 <cluster_tail_18_delay_1>
     7be:	00 00       	nop

000007c0 <primary_B8_pop16_r0>:
     7c0:	89 90       	ld	r8, Y+
     7c2:	99 90       	ld	r9, Y+
     7c4:	95 c1       	rjmp	.+810    	; 0xaf0 <cluster_tail_18_delay_1>
     7c6:	00 00       	nop

000007c8 <primary_B9_pop16_r1>:
     7c8:	a9 90       	ld	r10, Y+
     7ca:	b9 90       	ld	r11, Y+
     7cc:	91 c1       	rjmp	.+802    	; 0xaf0 <cluster_tail_18_delay_1>
     7ce:	00 00       	nop

000007d0 <primary_BA_pop16_r2>:
     7d0:	c9 90       	ld	r12, Y+
     7d2:	d9 90       	ld	r13, Y+
     7d4:	8d c1       	rjmp	.+794    	; 0xaf0 <cluster_tail_18_delay_1>
     7d6:	00 00       	nop

000007d8 <primary_BB_pop16_r3>:
     7d8:	e9 90       	ld	r14, Y+
     7da:	f9 90       	ld	r15, Y+
     7dc:	89 c1       	rjmp	.+786    	; 0xaf0 <cluster_tail_18_delay_1>
     7de:	00 00       	nop

000007e0 <primary_BC_pop16_r4>:
     7e0:	09 91       	ld	r16, Y+
     7e2:	19 91       	ld	r17, Y+
     7e4:	85 c1       	rjmp	.+778    	; 0xaf0 <cluster_tail_18_delay_1>
     7e6:	00 00       	nop

000007e8 <primary_BD_pop16_r5>:
     7e8:	29 91       	ld	r18, Y+
     7ea:	39 91       	ld	r19, Y+
     7ec:	81 c1       	rjmp	.+770    	; 0xaf0 <cluster_tail_18_delay_1>
     7ee:	00 00       	nop

000007f0 <primary_BE_pop16_r6>:
     7f0:	49 91       	ld	r20, Y+
     7f2:	59 91       	ld	r21, Y+
     7f4:	7d c1       	rjmp	.+762    	; 0xaf0 <cluster_tail_18_delay_1>
     7f6:	00 00       	nop

000007f8 <primary_BF_pop16_r7>:
     7f8:	69 91       	ld	r22, Y+
     7fa:	79 91       	ld	r23, Y+
     7fc:	79 c1       	rjmp	.+754    	; 0xaf0 <cluster_tail_18_delay_1>
     7fe:	00 00       	nop

00000800 <primary_C0_ldi8_c0>:
     800:	ea ea       	ldi	r30, 0xAA	; 170
     802:	f5 e0       	ldi	r31, 0x05	; 5
     804:	7f c1       	rjmp	.+766    	; 0xb04 <fetch_imm8_then_ijmp>
     806:	00 00       	nop

00000808 <primary_C1_ldi8_c1>:
     808:	ed ea       	ldi	r30, 0xAD	; 173
     80a:	f5 e0       	ldi	r31, 0x05	; 5
     80c:	7b c1       	rjmp	.+758    	; 0xb04 <fetch_imm8_then_ijmp>
     80e:	00 00       	nop

00000810 <primary_C2_ldi8_c2>:
     810:	e0 eb       	ldi	r30, 0xB0	; 176
     812:	f5 e0       	ldi	r31, 0x05	; 5
     814:	77 c1       	rjmp	.+750    	; 0xb04 <fetch_imm8_then_ijmp>
     816:	00 00       	nop

00000818 <primary_C3_ldi8_c3>:
     818:	e3 eb       	ldi	r30, 0xB3	; 179
     81a:	f5 e0       	ldi	r31, 0x05	; 5
     81c:	73 c1       	rjmp	.+742    	; 0xb04 <fetch_imm8_then_ijmp>
     81e:	00 00       	nop

00000820 <primary_C4_ldi16_c0>:
     820:	e6 eb       	ldi	r30, 0xB6	; 182
     822:	f5 e0       	ldi	r31, 0x05	; 5
     824:	7e c1       	rjmp	.+764    	; 0xb22 <fetch_imm16_then_ijmp>
     826:	00 00       	nop

00000828 <primary_C5_ldi16_c1>:
     828:	e9 eb       	ldi	r30, 0xB9	; 185
     82a:	f5 e0       	ldi	r31, 0x05	; 5
     82c:	7a c1       	rjmp	.+756    	; 0xb22 <fetch_imm16_then_ijmp>
     82e:	00 00       	nop

00000830 <primary_C6_ldi16_c2>:
     830:	ec eb       	ldi	r30, 0xBC	; 188
     832:	f5 e0       	ldi	r31, 0x05	; 5
     834:	76 c1       	rjmp	.+748    	; 0xb22 <fetch_imm16_then_ijmp>
     836:	00 00       	nop

00000838 <primary_C7_ldi16_c3>:
     838:	ef eb       	ldi	r30, 0xBF	; 191
     83a:	f5 e0       	ldi	r31, 0x05	; 5
     83c:	72 c1       	rjmp	.+740    	; 0xb22 <fetch_imm16_then_ijmp>
     83e:	00 00       	nop

00000840 <primary_C8_addi_s8_c0>:
     840:	e2 ec       	ldi	r30, 0xC2	; 194
     842:	f5 e0       	ldi	r31, 0x05	; 5
     844:	65 c1       	rjmp	.+714    	; 0xb10 <fetch_simm8_then_ijmp>
     846:	00 00       	nop

00000848 <primary_C9_addi_s8_c1>:
     848:	e5 ec       	ldi	r30, 0xC5	; 197
     84a:	f5 e0       	ldi	r31, 0x05	; 5
     84c:	61 c1       	rjmp	.+706    	; 0xb10 <fetch_simm8_then_ijmp>
     84e:	00 00       	nop

00000850 <primary_CA_addi_s8_c2>:
     850:	e8 ec       	ldi	r30, 0xC8	; 200
     852:	f5 e0       	ldi	r31, 0x05	; 5
     854:	5d c1       	rjmp	.+698    	; 0xb10 <fetch_simm8_then_ijmp>
     856:	00 00       	nop

00000858 <primary_CB_addi_s8_c3>:
     858:	eb ec       	ldi	r30, 0xCB	; 203
     85a:	f5 e0       	ldi	r31, 0x05	; 5
     85c:	59 c1       	rjmp	.+690    	; 0xb10 <fetch_simm8_then_ijmp>
     85e:	00 00       	nop

00000860 <primary_CC_cmpi_s8_c0>:
     860:	ee ec       	ldi	r30, 0xCE	; 206
     862:	f5 e0       	ldi	r31, 0x05	; 5
     864:	55 c1       	rjmp	.+682    	; 0xb10 <fetch_simm8_then_ijmp>
     866:	00 00       	nop

00000868 <primary_CD_cmpi_s8_c1>:
     868:	e2 ed       	ldi	r30, 0xD2	; 210
     86a:	f5 e0       	ldi	r31, 0x05	; 5
     86c:	51 c1       	rjmp	.+674    	; 0xb10 <fetch_simm8_then_ijmp>
     86e:	00 00       	nop

00000870 <primary_CE_cmpi_s8_c2>:
     870:	e6 ed       	ldi	r30, 0xD6	; 214
     872:	f5 e0       	ldi	r31, 0x05	; 5
     874:	4d c1       	rjmp	.+666    	; 0xb10 <fetch_simm8_then_ijmp>
     876:	00 00       	nop

00000878 <primary_CF_cmpi_s8_c3>:
     878:	ea ed       	ldi	r30, 0xDA	; 218
     87a:	f5 e0       	ldi	r31, 0x05	; 5
     87c:	49 c1       	rjmp	.+658    	; 0xb10 <fetch_simm8_then_ijmp>
     87e:	00 00       	nop

00000880 <primary_D0_breq_rel8>:
     880:	43 0c       	add	r4, r3
     882:	52 1c       	adc	r5, r2
     884:	62 1c       	adc	r6, r2
     886:	9a c1       	rjmp	.+820    	; 0xbbc <breq_rel8_decode_func>

00000888 <primary_D1_brne_rel8>:
     888:	43 0c       	add	r4, r3
     88a:	52 1c       	adc	r5, r2
     88c:	62 1c       	adc	r6, r2
     88e:	9e c1       	rjmp	.+828    	; 0xbcc <brne_rel8_decode_func>

00000890 <primary_D2_brult_rel8>:
     890:	43 0c       	add	r4, r3
     892:	52 1c       	adc	r5, r2
     894:	62 1c       	adc	r6, r2
     896:	a2 c1       	rjmp	.+836    	; 0xbdc <brult_rel8_decode_func>

00000898 <primary_D3_brslt_rel8>:
     898:	43 0c       	add	r4, r3
     89a:	52 1c       	adc	r5, r2
     89c:	62 1c       	adc	r6, r2
     89e:	a6 c1       	rjmp	.+844    	; 0xbec <brslt_rel8_decode_func>

000008a0 <primary_D4_jmp_rel8>:
     8a0:	43 0c       	add	r4, r3
     8a2:	52 1c       	adc	r5, r2
     8a4:	62 1c       	adc	r6, r2
     8a6:	b6 c1       	rjmp	.+876    	; 0xc14 <jmp_rel8_func>

000008a8 <primary_D5_call_rel8>:
     8a8:	43 0c       	add	r4, r3
     8aa:	52 1c       	adc	r5, r2
     8ac:	62 1c       	adc	r6, r2
     8ae:	be c1       	rjmp	.+892    	; 0xc2c <call_rel8_func>

000008b0 <primary_D6_adjsp>:
     8b0:	43 0c       	add	r4, r3
     8b2:	52 1c       	adc	r5, r2
     8b4:	62 1c       	adc	r6, r2
     8b6:	c9 c1       	rjmp	.+914    	; 0xc4a <adjsp_simm8_func>

000008b8 <primary_D7_sys>:
     8b8:	43 0c       	add	r4, r3
     8ba:	52 1c       	adc	r5, r2
     8bc:	62 1c       	adc	r6, r2
     8be:	05 c2       	rjmp	.+1034   	; 0xcca <sys_decode_func>

000008c0 <primary_D7_sys_end>:
     8c0:	52 c3       	rjmp	.+1700   	; 0xf66 <invalid_primary_instruction_func>
     8c2:	00 00       	nop
     8c4:	00 00       	nop
     8c6:	00 00       	nop

000008c8 <primary_D9_reserved>:
     8c8:	4e c3       	rjmp	.+1692   	; 0xf66 <invalid_primary_instruction_func>
     8ca:	00 00       	nop
     8cc:	00 00       	nop
     8ce:	00 00       	nop

000008d0 <primary_DA_reserved>:
     8d0:	4a c3       	rjmp	.+1684   	; 0xf66 <invalid_primary_instruction_func>
     8d2:	00 00       	nop
     8d4:	00 00       	nop
     8d6:	00 00       	nop

000008d8 <primary_DB_reserved>:
     8d8:	46 c3       	rjmp	.+1676   	; 0xf66 <invalid_primary_instruction_func>
     8da:	00 00       	nop
     8dc:	00 00       	nop
     8de:	00 00       	nop

000008e0 <primary_DC_reserved>:
     8e0:	42 c3       	rjmp	.+1668   	; 0xf66 <invalid_primary_instruction_func>
     8e2:	00 00       	nop
     8e4:	00 00       	nop
     8e6:	00 00       	nop

000008e8 <primary_DD_reserved>:
     8e8:	3e c3       	rjmp	.+1660   	; 0xf66 <invalid_primary_instruction_func>
     8ea:	00 00       	nop
     8ec:	00 00       	nop
     8ee:	00 00       	nop

000008f0 <primary_DE_reserved>:
     8f0:	3a c3       	rjmp	.+1652   	; 0xf66 <invalid_primary_instruction_func>
     8f2:	00 00       	nop
     8f4:	00 00       	nop
     8f6:	00 00       	nop

000008f8 <primary_DF_reserved>:
     8f8:	36 c3       	rjmp	.+1644   	; 0xf66 <invalid_primary_instruction_func>
     8fa:	00 00       	nop
     8fc:	00 00       	nop
     8fe:	00 00       	nop

00000900 <primary_E0_jmp16>:
     900:	43 0c       	add	r4, r3
     902:	52 1c       	adc	r5, r2
     904:	62 1c       	adc	r6, r2
     906:	ae c1       	rjmp	.+860    	; 0xc64 <jmp_call_rel16_func>

00000908 <primary_E1_call16>:
     908:	43 0c       	add	r4, r3
     90a:	52 1c       	adc	r5, r2
     90c:	62 1c       	adc	r6, r2
     90e:	aa c1       	rjmp	.+852    	; 0xc64 <jmp_call_rel16_func>

00000910 <primary_E2_jmpf>:
     910:	00 00       	nop
     912:	00 00       	nop
     914:	00 00       	nop
     916:	c0 c1       	rjmp	.+896    	; 0xc98 <jmp_call_far_func>

00000918 <primary_E3_callf>:
     918:	47 0c       	add	r4, r7
     91a:	52 1c       	adc	r5, r2
     91c:	62 1c       	adc	r6, r2
     91e:	bc c1       	rjmp	.+888    	; 0xc98 <jmp_call_far_func>

00000920 <primary_E4_jmpp_q0>:
     920:	24 01       	movw	r4, r8
     922:	6a 2c       	mov	r6, r10
     924:	c8 95       	lpm
     926:	f7 c2       	rjmp	.+1518   	; 0xf16 <seek_and_dispatch_func>

00000928 <primary_E5_jmpp_q1>:
     928:	26 01       	movw	r4, r12
     92a:	6e 2c       	mov	r6, r14
     92c:	c8 95       	lpm
     92e:	f3 c2       	rjmp	.+1510   	; 0xf16 <seek_and_dispatch_func>

00000930 <primary_E6_jmpp_q2>:
     930:	28 01       	movw	r4, r16
     932:	62 2e       	mov	r6, r18
     934:	c8 95       	lpm
     936:	ef c2       	rjmp	.+1502   	; 0xf16 <seek_and_dispatch_func>

00000938 <primary_E7_jmpp_q3>:
     938:	2a 01       	movw	r4, r20
     93a:	66 2e       	mov	r6, r22
     93c:	c8 95       	lpm
     93e:	eb c2       	rjmp	.+1494   	; 0xf16 <seek_and_dispatch_func>

00000940 <primary_E8_callp_q0>:
     940:	c4 01       	movw	r24, r8
     942:	aa 2d       	mov	r26, r10
     944:	e3 c2       	rjmp	.+1478   	; 0xf0c <push_pc_seek_and_dispatch_func>
     946:	00 00       	nop

00000948 <primary_E9_callp_q1>:
     948:	c6 01       	movw	r24, r12
     94a:	ae 2d       	mov	r26, r14
     94c:	df c2       	rjmp	.+1470   	; 0xf0c <push_pc_seek_and_dispatch_func>
     94e:	00 00       	nop

00000950 <primary_EA_callp_q2>:
     950:	c8 01       	movw	r24, r16
     952:	a2 2f       	mov	r26, r18
     954:	db c2       	rjmp	.+1462   	; 0xf0c <push_pc_seek_and_dispatch_func>
     956:	00 00       	nop

00000958 <primary_EB_callp_q3>:
     958:	ca 01       	movw	r24, r20
     95a:	a6 2f       	mov	r26, r22
     95c:	d7 c2       	rjmp	.+1454   	; 0xf0c <push_pc_seek_and_dispatch_func>
     95e:	00 00       	nop

00000960 <primary_EC_reserved>:
     960:	02 c3       	rjmp	.+1540   	; 0xf66 <invalid_primary_instruction_func>
     962:	00 00       	nop
     964:	00 00       	nop
     966:	00 00       	nop

00000968 <primary_ED_reserved>:
     968:	fe c2       	rjmp	.+1532   	; 0xf66 <invalid_primary_instruction_func>
     96a:	00 00       	nop
     96c:	00 00       	nop
     96e:	00 00       	nop

00000970 <primary_EE_reserved>:
     970:	fa c2       	rjmp	.+1524   	; 0xf66 <invalid_primary_instruction_func>
     972:	00 00       	nop
     974:	00 00       	nop
     976:	00 00       	nop

00000978 <primary_EF_ret>:
     978:	49 90       	ld	r4, Y+
     97a:	59 90       	ld	r5, Y+
     97c:	69 90       	ld	r6, Y+
     97e:	cb c2       	rjmp	.+1430   	; 0xf16 <seek_and_dispatch_func>

00000980 <primary_F0_cold_veneer_page>:
     980:	9e e6       	ldi	r25, 0x6E	; 110
     982:	e1 ed       	ldi	r30, 0xD1	; 209
     984:	f7 e0       	ldi	r31, 0x07	; 7
     986:	71 c0       	rjmp	.+226    	; 0xa6a <bounded_page_decoder_start>

00000988 <primary_F1_dense_2word_page>:
     988:	90 e9       	ldi	r25, 0x90	; 144
     98a:	ef e3       	ldi	r30, 0x3F	; 63
     98c:	f8 e0       	ldi	r31, 0x08	; 8
     98e:	5f c0       	rjmp	.+190    	; 0xa4e <bounded_width_2_decode>

00000990 <primary_F2_dense_3word_page_a>:
     990:	90 e6       	ldi	r25, 0x60	; 96
     992:	ef e5       	ldi	r30, 0x5F	; 95
     994:	f9 e0       	ldi	r31, 0x09	; 9
     996:	6b c0       	rjmp	.+214    	; 0xa6e <secondary_width_1_stub_end>

00000998 <primary_F3_dense_3word_page_b>:
     998:	90 e8       	ldi	r25, 0x80	; 128
     99a:	ef e7       	ldi	r30, 0x7F	; 127
     99c:	fa e0       	ldi	r31, 0x0A	; 10
     99e:	67 c0       	rjmp	.+206    	; 0xa6e <secondary_width_1_stub_end>

000009a0 <primary_F4_dense_3word_page_c>:
     9a0:	98 eb       	ldi	r25, 0xB8	; 184
     9a2:	ea e1       	ldi	r30, 0x1A	; 26
     9a4:	fc e0       	ldi	r31, 0x0C	; 12
     9a6:	63 c0       	rjmp	.+198    	; 0xa6e <secondary_width_1_stub_end>

000009a8 <primary_F5_dense_4word_page_a>:
     9a8:	90 e6       	ldi	r25, 0x60	; 96
     9aa:	e2 e4       	ldi	r30, 0x42	; 66
     9ac:	fe e0       	ldi	r31, 0x0E	; 14
     9ae:	61 c0       	rjmp	.+194    	; 0xa72 <secondary_width_3_stub_end>

000009b0 <primary_F6_dense_4word_page_b>:
     9b0:	90 e5       	ldi	r25, 0x50	; 80
     9b2:	e2 ec       	ldi	r30, 0xC2	; 194
     9b4:	ff e0       	ldi	r31, 0x0F	; 15
     9b6:	5d c0       	rjmp	.+186    	; 0xa72 <secondary_width_3_stub_end>

000009b8 <primary_F7_dense_5word_page_a>:
     9b8:	90 e9       	ldi	r25, 0x90	; 144
     9ba:	e2 e0       	ldi	r30, 0x02	; 2
     9bc:	f1 e1       	ldi	r31, 0x11	; 17
     9be:	5b c0       	rjmp	.+182    	; 0xa76 <secondary_width_4_stub_end>

000009c0 <primary_F8_simple_condition_page>:
     9c0:	90 e3       	ldi	r25, 0x30	; 48
     9c2:	ea ee       	ldi	r30, 0xEA	; 234
     9c4:	f3 e1       	ldi	r31, 0x13	; 19
     9c6:	57 c0       	rjmp	.+174    	; 0xa76 <secondary_width_4_stub_end>

000009c8 <primary_F9_runtime_bitwise_page>:
     9c8:	00 00       	nop
     9ca:	1a c0       	rjmp	.+52     	; 0xa00 <f9_bitop_entry>
     9cc:	00 00       	nop
     9ce:	00 00       	nop

000009d0 <primary_FA_variable_shift_page>:
     9d0:	90 e3       	ldi	r25, 0x30	; 48
     9d2:	ea ed       	ldi	r30, 0xDA	; 218
     9d4:	f4 e1       	ldi	r31, 0x14	; 20
     9d6:	3b c0       	rjmp	.+118    	; 0xa4e <bounded_width_2_decode>

000009d8 <primary_FB_cmov_eq_ne_page>:
     9d8:	b2 e0       	ldi	r27, 0x02	; 2
     9da:	ea e3       	ldi	r30, 0x3A	; 58
     9dc:	f5 e1       	ldi	r31, 0x15	; 21
     9de:	59 c0       	rjmp	.+178    	; 0xa92 <bounded_page_decoder_end>

000009e0 <primary_FC_cmov_ult_uge_page>:
     9e0:	b1 e0       	ldi	r27, 0x01	; 1
     9e2:	ea e3       	ldi	r30, 0x3A	; 58
     9e4:	f5 e1       	ldi	r31, 0x15	; 21
     9e6:	55 c0       	rjmp	.+170    	; 0xa92 <bounded_page_decoder_end>

000009e8 <primary_FD_cmov_slt_sge_page>:
     9e8:	b0 e1       	ldi	r27, 0x10	; 16
     9ea:	ea e3       	ldi	r30, 0x3A	; 58
     9ec:	f5 e1       	ldi	r31, 0x15	; 21
     9ee:	51 c0       	rjmp	.+162    	; 0xa92 <bounded_page_decoder_end>

000009f0 <primary_FE_mul16_page>:
     9f0:	90 e4       	ldi	r25, 0x40	; 64
     9f2:	ea eb       	ldi	r30, 0xBA	; 186
     9f4:	f5 e1       	ldi	r31, 0x15	; 21
     9f6:	2b c0       	rjmp	.+86     	; 0xa4e <bounded_width_2_decode>

000009f8 <primary_FF_reserved>:
     9f8:	b6 c2       	rjmp	.+1388   	; 0xf66 <invalid_primary_instruction_func>
     9fa:	00 00       	nop
     9fc:	00 00       	nop
     9fe:	00 00       	nop

00000a00 <f9_bitop_entry>:
     a00:	43 0c       	add	r4, r3
     a02:	52 1c       	adc	r5, r2
     a04:	62 1c       	adc	r6, r2
     a06:	f8 94       	cli
     a08:	2e bc       	out	0x2e, r2	; 46
     a0a:	8e b5       	in	r24, 0x2e	; 46
     a0c:	78 94       	sei
     a0e:	a8 2f       	mov	r26, r24
     a10:	a2 95       	swap	r26
     a12:	ae 70       	andi	r26, 0x0E	; 14
     a14:	a8 5f       	subi	r26, 0xF8	; 248
     a16:	b2 2d       	mov	r27, r2
     a18:	e8 2f       	mov	r30, r24
     a1a:	e6 95       	lsr	r30
     a1c:	ee 70       	andi	r30, 0x0E	; 14
     a1e:	e8 5f       	subi	r30, 0xF8	; 248
     a20:	f2 2d       	mov	r31, r2
     a22:	86 95       	lsr	r24
     a24:	0d 90       	ld	r0, X+
     a26:	1c 90       	ld	r1, X
     a28:	91 91       	ld	r25, Z+
     a2a:	b0 81       	ld	r27, Z
     a2c:	80 fd       	sbrc	r24, 0
     a2e:	0a c0       	rjmp	.+20     	; 0xa44 <.Lf9_high_operation>
     a30:	18 f4       	brcc	.+6      	; 0xa38 <.Lf9_and>
     a32:	09 2a       	or	r0, r25
     a34:	1b 2a       	or	r1, r27
     a36:	02 c0       	rjmp	.+4      	; 0xa3c <.Lf9_store>

00000a38 <.Lf9_and>:
     a38:	09 22       	and	r0, r25
     a3a:	1b 22       	and	r1, r27

00000a3c <.Lf9_store>:
     a3c:	b2 2d       	mov	r27, r2
     a3e:	1c 92       	st	X, r1
     a40:	0e 92       	st	-X, r0
     a42:	a5 c2       	rjmp	.+1354   	; 0xf8e <cluster_a_tail_18>

00000a44 <.Lf9_high_operation>:
     a44:	18 f0       	brcs	.+6      	; 0xa4c <.Lf9_invalid>
     a46:	09 26       	eor	r0, r25
     a48:	1b 26       	eor	r1, r27
     a4a:	f8 cf       	rjmp	.-16     	; 0xa3c <.Lf9_store>

00000a4c <.Lf9_invalid>:
     a4c:	8d c2       	rjmp	.+1306   	; 0xf68 <invalid_secondary_instruction_func>

00000a4e <bounded_width_2_decode>:
     a4e:	43 0c       	add	r4, r3
     a50:	f8 94       	cli
     a52:	2e bc       	out	0x2e, r2	; 46
     a54:	8e b5       	in	r24, 0x2e	; 46
     a56:	78 94       	sei
     a58:	52 1c       	adc	r5, r2
     a5a:	62 1c       	adc	r6, r2
     a5c:	89 17       	cp	r24, r25
     a5e:	c0 f4       	brcc	.+48     	; 0xa90 <invalid_secondary>
     a60:	e8 0f       	add	r30, r24
     a62:	f2 1d       	adc	r31, r2
     a64:	e8 0f       	add	r30, r24
     a66:	f2 1d       	adc	r31, r2
     a68:	09 94       	ijmp

00000a6a <bounded_page_decoder_start>:
     a6a:	a1 e0       	ldi	r26, 0x01	; 1
     a6c:	06 c0       	rjmp	.+12     	; 0xa7a <bounded_page_decode>

00000a6e <secondary_width_1_stub_end>:
     a6e:	a3 e0       	ldi	r26, 0x03	; 3
     a70:	04 c0       	rjmp	.+8      	; 0xa7a <bounded_page_decode>

00000a72 <secondary_width_3_stub_end>:
     a72:	a4 e0       	ldi	r26, 0x04	; 4
     a74:	02 c0       	rjmp	.+4      	; 0xa7a <bounded_page_decode>

00000a76 <secondary_width_4_stub_end>:
     a76:	a5 e0       	ldi	r26, 0x05	; 5
     a78:	00 c0       	rjmp	.+0      	; 0xa7a <bounded_page_decode>

00000a7a <bounded_page_decode>:
     a7a:	8e b5       	in	r24, 0x2e	; 46
     a7c:	2e bc       	out	0x2e, r2	; 46
     a7e:	43 0c       	add	r4, r3
     a80:	52 1c       	adc	r5, r2
     a82:	62 1c       	adc	r6, r2
     a84:	89 17       	cp	r24, r25
     a86:	20 f4       	brcc	.+8      	; 0xa90 <invalid_secondary>

00000a88 <bounded_page_valid>:
     a88:	8a 9f       	mul	r24, r26
     a8a:	e0 0d       	add	r30, r0
     a8c:	f1 1d       	adc	r31, r1
     a8e:	09 94       	ijmp

00000a90 <invalid_secondary>:
     a90:	6b c2       	rjmp	.+1238   	; 0xf68 <invalid_secondary_instruction_func>

00000a92 <bounded_page_decoder_end>:
     a92:	43 0c       	add	r4, r3
     a94:	52 1c       	adc	r5, r2
     a96:	62 1c       	adc	r6, r2
     a98:	8f b7       	in	r24, 0x3f	; 63
     a9a:	f8 94       	cli
     a9c:	ae b5       	in	r26, 0x2e	; 46
     a9e:	2e bc       	out	0x2e, r2	; 46
     aa0:	8f bf       	out	0x3f, r24	; 63
     aa2:	a0 38       	cpi	r26, 0x80	; 128
     aa4:	58 f4       	brcc	.+22     	; 0xabc <cmov_invalid>
     aa6:	9e b3       	in	r25, 0x1e	; 30
     aa8:	a6 fd       	sbrc	r26, 6
     aaa:	90 95       	com	r25
     aac:	9b 23       	and	r25, r27
     aae:	29 f0       	breq	.+10     	; 0xaba <cmov_no_move>
     ab0:	af 73       	andi	r26, 0x3F	; 63
     ab2:	aa 0f       	add	r26, r26
     ab4:	ea 0f       	add	r30, r26
     ab6:	f2 1d       	adc	r31, r2
     ab8:	09 94       	ijmp

00000aba <cmov_no_move>:
     aba:	58 c2       	rjmp	.+1200   	; 0xf6c <cluster_a_tail>

00000abc <cmov_invalid>:
     abc:	e9 cf       	rjmp	.-46     	; 0xa90 <invalid_secondary>

00000abe <cmov_gate_end>:
     abe:	00 00       	nop

00000ac0 <flags_commit_18>:
     ac0:	8e bb       	out	0x1e, r24	; 30
     ac2:	8e b5       	in	r24, 0x2e	; 46
     ac4:	2e bc       	out	0x2e, r2	; 46
     ac6:	43 0c       	add	r4, r3
     ac8:	52 1c       	adc	r5, r2
     aca:	62 1c       	adc	r6, r2
     acc:	87 9d       	mul	r24, r7
     ace:	f0 01       	movw	r30, r0
     ad0:	ff 5f       	subi	r31, 0xFF	; 255
     ad2:	09 94       	ijmp

00000ad4 <cluster_tail_17_delay_1>:
     ad4:	00 00       	nop

00000ad6 <cluster_tail_17>:
     ad6:	43 0c       	add	r4, r3
     ad8:	f8 94       	cli
     ada:	2e bc       	out	0x2e, r2	; 46
     adc:	8e b5       	in	r24, 0x2e	; 46
     ade:	78 94       	sei
     ae0:	52 1c       	adc	r5, r2
     ae2:	62 1c       	adc	r6, r2
     ae4:	87 9d       	mul	r24, r7
     ae6:	f0 01       	movw	r30, r0
     ae8:	ff 5f       	subi	r31, 0xFF	; 255
     aea:	09 94       	ijmp

00000aec <cluster_tail_18_delay_3>:
     aec:	00 00       	nop

00000aee <cluster_tail_18_delay_2>:
     aee:	01 c0       	rjmp	.+2      	; 0xaf2 <cluster_tail_18>

00000af0 <cluster_tail_18_delay_1>:
     af0:	00 00       	nop

00000af2 <cluster_tail_18>:
     af2:	8e b5       	in	r24, 0x2e	; 46
     af4:	2e bc       	out	0x2e, r2	; 46
     af6:	43 0c       	add	r4, r3
     af8:	52 1c       	adc	r5, r2
     afa:	62 1c       	adc	r6, r2
     afc:	87 9d       	mul	r24, r7
     afe:	f0 01       	movw	r30, r0
     b00:	ff 5f       	subi	r31, 0xFF	; 255
     b02:	09 94       	ijmp

00000b04 <fetch_imm8_then_ijmp>:
     b04:	43 0c       	add	r4, r3
     b06:	52 1c       	adc	r5, r2
     b08:	62 1c       	adc	r6, r2
     b0a:	8e b5       	in	r24, 0x2e	; 46
     b0c:	2e bc       	out	0x2e, r2	; 46
     b0e:	09 94       	ijmp

00000b10 <fetch_simm8_then_ijmp>:
     b10:	43 0c       	add	r4, r3
     b12:	52 1c       	adc	r5, r2
     b14:	62 1c       	adc	r6, r2
     b16:	8e b5       	in	r24, 0x2e	; 46
     b18:	2e bc       	out	0x2e, r2	; 46
     b1a:	99 27       	eor	r25, r25
     b1c:	87 fd       	sbrc	r24, 7
     b1e:	90 95       	com	r25
     b20:	09 94       	ijmp

00000b22 <fetch_imm16_then_ijmp>:
     b22:	43 0c       	add	r4, r3
     b24:	52 1c       	adc	r5, r2
     b26:	62 1c       	adc	r6, r2
     b28:	8e b5       	in	r24, 0x2e	; 46
     b2a:	2e bc       	out	0x2e, r2	; 46
     b2c:	43 0c       	add	r4, r3
     b2e:	52 1c       	adc	r5, r2
     b30:	62 1c       	adc	r6, r2
     b32:	13 d2       	rcall	.+1062   	; 0xf5a <interp_delay_12>
     b34:	f8 94       	cli
     b36:	2e bc       	out	0x2e, r2	; 46
     b38:	9e b5       	in	r25, 0x2e	; 46
     b3a:	78 94       	sei
     b3c:	09 94       	ijmp

00000b3e <immediate_result_tail_delay_9>:
     b3e:	00 c0       	rjmp	.+0      	; 0xb40 <immediate_result_tail_delay_9+0x2>
     b40:	00 c0       	rjmp	.+0      	; 0xb42 <immediate_result_tail_delay_9+0x4>
     b42:	c8 95       	lpm
     b44:	d6 cf       	rjmp	.-84     	; 0xaf2 <cluster_tail_18>

00000b46 <immediate_result_tail_delay_7>:
     b46:	c8 95       	lpm
     b48:	d2 cf       	rjmp	.-92     	; 0xaee <cluster_tail_18_delay_2>

00000b4a <immediate_result_tail_delay_6>:
     b4a:	00 c0       	rjmp	.+0      	; 0xb4c <immediate_result_tail_delay_6+0x2>
     b4c:	00 c0       	rjmp	.+0      	; 0xb4e <immediate_result_tail_delay_6+0x4>
     b4e:	d1 cf       	rjmp	.-94     	; 0xaf2 <cluster_tail_18>

00000b50 <cmpi_s8_flags_commit_delay_4>:
     b50:	00 c0       	rjmp	.+0      	; 0xb52 <cmpi_s8_flags_commit_delay_4+0x2>
     b52:	b6 cf       	rjmp	.-148    	; 0xac0 <flags_commit_18>

00000b54 <ldi8_c0_apply>:
     b54:	08 2f       	mov	r16, r24
     b56:	11 27       	eor	r17, r17
     b58:	f2 cf       	rjmp	.-28     	; 0xb3e <immediate_result_tail_delay_9>

00000b5a <ldi8_c1_apply>:
     b5a:	28 2f       	mov	r18, r24
     b5c:	33 27       	eor	r19, r19
     b5e:	ef cf       	rjmp	.-34     	; 0xb3e <immediate_result_tail_delay_9>

00000b60 <ldi8_c2_apply>:
     b60:	48 2f       	mov	r20, r24
     b62:	55 27       	eor	r21, r21
     b64:	ec cf       	rjmp	.-40     	; 0xb3e <immediate_result_tail_delay_9>

00000b66 <ldi8_c3_apply>:
     b66:	68 2f       	mov	r22, r24
     b68:	77 27       	eor	r23, r23
     b6a:	e9 cf       	rjmp	.-46     	; 0xb3e <immediate_result_tail_delay_9>

00000b6c <ldi16_c0_apply>:
     b6c:	08 2f       	mov	r16, r24
     b6e:	19 2f       	mov	r17, r25
     b70:	ea cf       	rjmp	.-44     	; 0xb46 <immediate_result_tail_delay_7>

00000b72 <ldi16_c1_apply>:
     b72:	28 2f       	mov	r18, r24
     b74:	39 2f       	mov	r19, r25
     b76:	e7 cf       	rjmp	.-50     	; 0xb46 <immediate_result_tail_delay_7>

00000b78 <ldi16_c2_apply>:
     b78:	48 2f       	mov	r20, r24
     b7a:	59 2f       	mov	r21, r25
     b7c:	e4 cf       	rjmp	.-56     	; 0xb46 <immediate_result_tail_delay_7>

00000b7e <ldi16_c3_apply>:
     b7e:	68 2f       	mov	r22, r24
     b80:	79 2f       	mov	r23, r25
     b82:	e1 cf       	rjmp	.-62     	; 0xb46 <immediate_result_tail_delay_7>

00000b84 <addi_s8_c0_apply>:
     b84:	08 0f       	add	r16, r24
     b86:	19 1f       	adc	r17, r25
     b88:	e0 cf       	rjmp	.-64     	; 0xb4a <immediate_result_tail_delay_6>

00000b8a <addi_s8_c1_apply>:
     b8a:	28 0f       	add	r18, r24
     b8c:	39 1f       	adc	r19, r25
     b8e:	dd cf       	rjmp	.-70     	; 0xb4a <immediate_result_tail_delay_6>

00000b90 <addi_s8_c2_apply>:
     b90:	48 0f       	add	r20, r24
     b92:	59 1f       	adc	r21, r25
     b94:	da cf       	rjmp	.-76     	; 0xb4a <immediate_result_tail_delay_6>

00000b96 <addi_s8_c3_apply>:
     b96:	68 0f       	add	r22, r24
     b98:	79 1f       	adc	r23, r25
     b9a:	d7 cf       	rjmp	.-82     	; 0xb4a <immediate_result_tail_delay_6>

00000b9c <cmpi_s8_c0_apply>:
     b9c:	08 17       	cp	r16, r24
     b9e:	19 07       	cpc	r17, r25
     ba0:	8f b7       	in	r24, 0x3f	; 63
     ba2:	d6 cf       	rjmp	.-84     	; 0xb50 <cmpi_s8_flags_commit_delay_4>

00000ba4 <cmpi_s8_c1_apply>:
     ba4:	28 17       	cp	r18, r24
     ba6:	39 07       	cpc	r19, r25
     ba8:	8f b7       	in	r24, 0x3f	; 63
     baa:	d2 cf       	rjmp	.-92     	; 0xb50 <cmpi_s8_flags_commit_delay_4>

00000bac <cmpi_s8_c2_apply>:
     bac:	48 17       	cp	r20, r24
     bae:	59 07       	cpc	r21, r25
     bb0:	8f b7       	in	r24, 0x3f	; 63
     bb2:	ce cf       	rjmp	.-100    	; 0xb50 <cmpi_s8_flags_commit_delay_4>

00000bb4 <cmpi_s8_c3_apply>:
     bb4:	68 17       	cp	r22, r24
     bb6:	79 07       	cpc	r23, r25
     bb8:	8f b7       	in	r24, 0x3f	; 63
     bba:	ca cf       	rjmp	.-108    	; 0xb50 <cmpi_s8_flags_commit_delay_4>

00000bbc <breq_rel8_decode_func>:
     bbc:	00 00       	nop
     bbe:	f8 94       	cli
     bc0:	2e bc       	out	0x2e, r2	; 46
     bc2:	8e b5       	in	r24, 0x2e	; 46
     bc4:	78 94       	sei
     bc6:	f1 9b       	sbis	0x1e, 1	; 30
     bc8:	19 c0       	rjmp	.+50     	; 0xbfc <branch_rel8_not_taken_func>
     bca:	1a c0       	rjmp	.+52     	; 0xc00 <branch_rel8_taken_func>

00000bcc <brne_rel8_decode_func>:
     bcc:	00 00       	nop
     bce:	f8 94       	cli
     bd0:	2e bc       	out	0x2e, r2	; 46
     bd2:	8e b5       	in	r24, 0x2e	; 46
     bd4:	78 94       	sei
     bd6:	f1 99       	sbic	0x1e, 1	; 30
     bd8:	11 c0       	rjmp	.+34     	; 0xbfc <branch_rel8_not_taken_func>
     bda:	12 c0       	rjmp	.+36     	; 0xc00 <branch_rel8_taken_func>

00000bdc <brult_rel8_decode_func>:
     bdc:	00 00       	nop
     bde:	f8 94       	cli
     be0:	2e bc       	out	0x2e, r2	; 46
     be2:	8e b5       	in	r24, 0x2e	; 46
     be4:	78 94       	sei
     be6:	f0 9b       	sbis	0x1e, 0	; 30
     be8:	09 c0       	rjmp	.+18     	; 0xbfc <branch_rel8_not_taken_func>
     bea:	0a c0       	rjmp	.+20     	; 0xc00 <branch_rel8_taken_func>

00000bec <brslt_rel8_decode_func>:
     bec:	00 00       	nop
     bee:	f8 94       	cli
     bf0:	2e bc       	out	0x2e, r2	; 46
     bf2:	8e b5       	in	r24, 0x2e	; 46
     bf4:	78 94       	sei
     bf6:	f4 9b       	sbis	0x1e, 4	; 30
     bf8:	01 c0       	rjmp	.+2      	; 0xbfc <branch_rel8_not_taken_func>
     bfa:	02 c0       	rjmp	.+4      	; 0xc00 <branch_rel8_taken_func>

00000bfc <branch_rel8_not_taken_func>:
     bfc:	b2 d1       	rcall	.+868    	; 0xf62 <interp_delay_7>
     bfe:	6b cf       	rjmp	.-298    	; 0xad6 <cluster_tail_17>

00000c00 <branch_rel8_taken_func>:
     c00:	99 27       	eor	r25, r25
     c02:	87 fd       	sbrc	r24, 7
     c04:	90 95       	com	r25
     c06:	43 0c       	add	r4, r3
     c08:	52 1c       	adc	r5, r2
     c0a:	62 1c       	adc	r6, r2
     c0c:	48 0e       	add	r4, r24
     c0e:	59 1e       	adc	r5, r25
     c10:	69 1e       	adc	r6, r25
     c12:	81 c1       	rjmp	.+770    	; 0xf16 <seek_and_dispatch_func>

00000c14 <jmp_rel8_func>:
     c14:	00 c0       	rjmp	.+0      	; 0xc16 <jmp_rel8_func+0x2>
     c16:	ae b5       	in	r26, 0x2e	; 46
     c18:	99 27       	eor	r25, r25
     c1a:	a7 fd       	sbrc	r26, 7
     c1c:	90 95       	com	r25
     c1e:	43 0c       	add	r4, r3
     c20:	52 1c       	adc	r5, r2
     c22:	62 1c       	adc	r6, r2
     c24:	4a 0e       	add	r4, r26
     c26:	59 1e       	adc	r5, r25
     c28:	69 1e       	adc	r6, r25
     c2a:	75 c1       	rjmp	.+746    	; 0xf16 <seek_and_dispatch_func>

00000c2c <call_rel8_func>:
     c2c:	00 c0       	rjmp	.+0      	; 0xc2e <call_rel8_func+0x2>
     c2e:	ae b5       	in	r26, 0x2e	; 46
     c30:	99 27       	eor	r25, r25
     c32:	a7 fd       	sbrc	r26, 7
     c34:	90 95       	com	r25
     c36:	43 0c       	add	r4, r3
     c38:	52 1c       	adc	r5, r2
     c3a:	62 1c       	adc	r6, r2
     c3c:	6a 92       	st	-Y, r6
     c3e:	5a 92       	st	-Y, r5
     c40:	4a 92       	st	-Y, r4
     c42:	4a 0e       	add	r4, r26
     c44:	59 1e       	adc	r5, r25
     c46:	69 1e       	adc	r6, r25
     c48:	66 c1       	rjmp	.+716    	; 0xf16 <seek_and_dispatch_func>

00000c4a <adjsp_simm8_func>:
     c4a:	00 00       	nop
     c4c:	f8 94       	cli
     c4e:	2e bc       	out	0x2e, r2	; 46
     c50:	8e b5       	in	r24, 0x2e	; 46
     c52:	78 94       	sei
     c54:	99 27       	eor	r25, r25
     c56:	87 fd       	sbrc	r24, 7
     c58:	90 95       	com	r25
     c5a:	c8 0f       	add	r28, r24
     c5c:	d9 1f       	adc	r29, r25
     c5e:	00 c0       	rjmp	.+0      	; 0xc60 <adjsp_simm8_func+0x16>
     c60:	00 c0       	rjmp	.+0      	; 0xc62 <adjsp_simm8_func+0x18>
     c62:	38 cf       	rjmp	.-400    	; 0xad4 <cluster_tail_17_delay_1>

00000c64 <jmp_call_rel16_func>:
     c64:	43 0c       	add	r4, r3
     c66:	f8 94       	cli
     c68:	2e bc       	out	0x2e, r2	; 46
     c6a:	ae b5       	in	r26, 0x2e	; 46
     c6c:	78 94       	sei
     c6e:	52 1c       	adc	r5, r2
     c70:	62 1c       	adc	r6, r2
     c72:	43 0c       	add	r4, r3
     c74:	52 1c       	adc	r5, r2
     c76:	62 1c       	adc	r6, r2
     c78:	80 ff       	sbrs	r24, 0
     c7a:	0c 94 4a 06 	jmp	0xc94	; 0xc94 <jmp_rel16_wait>
     c7e:	6a 92       	st	-Y, r6
     c80:	5a 92       	st	-Y, r5
     c82:	4a 92       	st	-Y, r4

00000c84 <rel16_read_high>:
     c84:	be b5       	in	r27, 0x2e	; 46
     c86:	99 27       	eor	r25, r25
     c88:	b7 fd       	sbrc	r27, 7
     c8a:	90 95       	com	r25
     c8c:	4a 0e       	add	r4, r26
     c8e:	5b 1e       	adc	r5, r27
     c90:	69 1e       	adc	r6, r25
     c92:	41 c1       	rjmp	.+642    	; 0xf16 <seek_and_dispatch_func>

00000c94 <jmp_rel16_wait>:
     c94:	c8 95       	lpm
     c96:	f6 cf       	rjmp	.-20     	; 0xc84 <rel16_read_high>

00000c98 <jmp_call_far_func>:
     c98:	b8 2f       	mov	r27, r24
     c9a:	f8 94       	cli
     c9c:	2e bc       	out	0x2e, r2	; 46
     c9e:	8e b5       	in	r24, 0x2e	; 46
     ca0:	78 94       	sei
     ca2:	b0 ff       	sbrs	r27, 0
     ca4:	0c 94 63 06 	jmp	0xcc6	; 0xcc6 <jmp_far_wait>
     ca8:	6a 92       	st	-Y, r6
     caa:	5a 92       	st	-Y, r5
     cac:	4a 92       	st	-Y, r4
     cae:	00 c0       	rjmp	.+0      	; 0xcb0 <jmp_call_far_func+0x18>
     cb0:	00 c0       	rjmp	.+0      	; 0xcb2 <far_launch_high>

00000cb2 <far_launch_high>:
     cb2:	f8 94       	cli
     cb4:	2e bc       	out	0x2e, r2	; 46
     cb6:	9e b5       	in	r25, 0x2e	; 46
     cb8:	78 94       	sei
     cba:	4d d1       	rcall	.+666    	; 0xf56 <interp_delay_14>
     cbc:	ae b5       	in	r26, 0x2e	; 46
     cbe:	48 2e       	mov	r4, r24
     cc0:	59 2e       	mov	r5, r25
     cc2:	6a 2e       	mov	r6, r26
     cc4:	28 c1       	rjmp	.+592    	; 0xf16 <seek_and_dispatch_func>

00000cc6 <jmp_far_wait>:
     cc6:	4d d1       	rcall	.+666    	; 0xf62 <interp_delay_7>
     cc8:	f4 cf       	rjmp	.-24     	; 0xcb2 <far_launch_high>

00000cca <sys_decode_func>:
     cca:	00 00       	nop
     ccc:	f8 94       	cli
     cce:	2e bc       	out	0x2e, r2	; 46
     cd0:	8e b5       	in	r24, 0x2e	; 46
     cd2:	78 94       	sei

00000cd4 <sys_dispatch_func>:
     cd4:	ef e6       	ldi	r30, 0x6F	; 111
     cd6:	f6 e0       	ldi	r31, 0x06	; 6
     cd8:	e8 0f       	add	r30, r24
     cda:	f2 1d       	adc	r31, r2
     cdc:	09 94       	ijmp

00000cde <sys_dispatch_table>:
     cde:	ff c0       	rjmp	.+510    	; 0xede <sys_debug_putc_func>
     ce0:	01 c1       	rjmp	.+514    	; 0xee4 <sys_debug_break_func>
     ce2:	02 c1       	rjmp	.+516    	; 0xee8 <sys_millis_func>
     ce4:	08 c1       	rjmp	.+528    	; 0xef6 <sys_millis32_func>
     ce6:	41 c1       	rjmp	.+642    	; 0xf6a <invalid_syscall_func>
     ce8:	40 c1       	rjmp	.+640    	; 0xf6a <invalid_syscall_func>
     cea:	3f c1       	rjmp	.+638    	; 0xf6a <invalid_syscall_func>
     cec:	3e c1       	rjmp	.+636    	; 0xf6a <invalid_syscall_func>
     cee:	3d c1       	rjmp	.+634    	; 0xf6a <invalid_syscall_func>
     cf0:	3c c1       	rjmp	.+632    	; 0xf6a <invalid_syscall_func>
     cf2:	3b c1       	rjmp	.+630    	; 0xf6a <invalid_syscall_func>
     cf4:	3a c1       	rjmp	.+628    	; 0xf6a <invalid_syscall_func>
     cf6:	39 c1       	rjmp	.+626    	; 0xf6a <invalid_syscall_func>
     cf8:	38 c1       	rjmp	.+624    	; 0xf6a <invalid_syscall_func>
     cfa:	37 c1       	rjmp	.+622    	; 0xf6a <invalid_syscall_func>
     cfc:	36 c1       	rjmp	.+620    	; 0xf6a <invalid_syscall_func>
     cfe:	35 c1       	rjmp	.+618    	; 0xf6a <invalid_syscall_func>
     d00:	34 c1       	rjmp	.+616    	; 0xf6a <invalid_syscall_func>
     d02:	33 c1       	rjmp	.+614    	; 0xf6a <invalid_syscall_func>
     d04:	32 c1       	rjmp	.+612    	; 0xf6a <invalid_syscall_func>
     d06:	31 c1       	rjmp	.+610    	; 0xf6a <invalid_syscall_func>
     d08:	30 c1       	rjmp	.+608    	; 0xf6a <invalid_syscall_func>
     d0a:	2f c1       	rjmp	.+606    	; 0xf6a <invalid_syscall_func>
     d0c:	2e c1       	rjmp	.+604    	; 0xf6a <invalid_syscall_func>
     d0e:	2d c1       	rjmp	.+602    	; 0xf6a <invalid_syscall_func>
     d10:	2c c1       	rjmp	.+600    	; 0xf6a <invalid_syscall_func>
     d12:	2b c1       	rjmp	.+598    	; 0xf6a <invalid_syscall_func>
     d14:	2a c1       	rjmp	.+596    	; 0xf6a <invalid_syscall_func>
     d16:	29 c1       	rjmp	.+594    	; 0xf6a <invalid_syscall_func>
     d18:	28 c1       	rjmp	.+592    	; 0xf6a <invalid_syscall_func>
     d1a:	27 c1       	rjmp	.+590    	; 0xf6a <invalid_syscall_func>
     d1c:	26 c1       	rjmp	.+588    	; 0xf6a <invalid_syscall_func>
     d1e:	25 c1       	rjmp	.+586    	; 0xf6a <invalid_syscall_func>
     d20:	24 c1       	rjmp	.+584    	; 0xf6a <invalid_syscall_func>
     d22:	23 c1       	rjmp	.+582    	; 0xf6a <invalid_syscall_func>
     d24:	22 c1       	rjmp	.+580    	; 0xf6a <invalid_syscall_func>
     d26:	21 c1       	rjmp	.+578    	; 0xf6a <invalid_syscall_func>
     d28:	20 c1       	rjmp	.+576    	; 0xf6a <invalid_syscall_func>
     d2a:	1f c1       	rjmp	.+574    	; 0xf6a <invalid_syscall_func>
     d2c:	1e c1       	rjmp	.+572    	; 0xf6a <invalid_syscall_func>
     d2e:	1d c1       	rjmp	.+570    	; 0xf6a <invalid_syscall_func>
     d30:	1c c1       	rjmp	.+568    	; 0xf6a <invalid_syscall_func>
     d32:	1b c1       	rjmp	.+566    	; 0xf6a <invalid_syscall_func>
     d34:	1a c1       	rjmp	.+564    	; 0xf6a <invalid_syscall_func>
     d36:	19 c1       	rjmp	.+562    	; 0xf6a <invalid_syscall_func>
     d38:	18 c1       	rjmp	.+560    	; 0xf6a <invalid_syscall_func>
     d3a:	17 c1       	rjmp	.+558    	; 0xf6a <invalid_syscall_func>
     d3c:	16 c1       	rjmp	.+556    	; 0xf6a <invalid_syscall_func>
     d3e:	15 c1       	rjmp	.+554    	; 0xf6a <invalid_syscall_func>
     d40:	14 c1       	rjmp	.+552    	; 0xf6a <invalid_syscall_func>
     d42:	13 c1       	rjmp	.+550    	; 0xf6a <invalid_syscall_func>
     d44:	12 c1       	rjmp	.+548    	; 0xf6a <invalid_syscall_func>
     d46:	11 c1       	rjmp	.+546    	; 0xf6a <invalid_syscall_func>
     d48:	10 c1       	rjmp	.+544    	; 0xf6a <invalid_syscall_func>
     d4a:	0f c1       	rjmp	.+542    	; 0xf6a <invalid_syscall_func>
     d4c:	0e c1       	rjmp	.+540    	; 0xf6a <invalid_syscall_func>
     d4e:	0d c1       	rjmp	.+538    	; 0xf6a <invalid_syscall_func>
     d50:	0c c1       	rjmp	.+536    	; 0xf6a <invalid_syscall_func>
     d52:	0b c1       	rjmp	.+534    	; 0xf6a <invalid_syscall_func>
     d54:	0a c1       	rjmp	.+532    	; 0xf6a <invalid_syscall_func>
     d56:	09 c1       	rjmp	.+530    	; 0xf6a <invalid_syscall_func>
     d58:	08 c1       	rjmp	.+528    	; 0xf6a <invalid_syscall_func>
     d5a:	07 c1       	rjmp	.+526    	; 0xf6a <invalid_syscall_func>
     d5c:	06 c1       	rjmp	.+524    	; 0xf6a <invalid_syscall_func>
     d5e:	05 c1       	rjmp	.+522    	; 0xf6a <invalid_syscall_func>
     d60:	04 c1       	rjmp	.+520    	; 0xf6a <invalid_syscall_func>
     d62:	03 c1       	rjmp	.+518    	; 0xf6a <invalid_syscall_func>
     d64:	02 c1       	rjmp	.+516    	; 0xf6a <invalid_syscall_func>
     d66:	01 c1       	rjmp	.+514    	; 0xf6a <invalid_syscall_func>
     d68:	00 c1       	rjmp	.+512    	; 0xf6a <invalid_syscall_func>
     d6a:	ff c0       	rjmp	.+510    	; 0xf6a <invalid_syscall_func>
     d6c:	fe c0       	rjmp	.+508    	; 0xf6a <invalid_syscall_func>
     d6e:	fd c0       	rjmp	.+506    	; 0xf6a <invalid_syscall_func>
     d70:	fc c0       	rjmp	.+504    	; 0xf6a <invalid_syscall_func>
     d72:	fb c0       	rjmp	.+502    	; 0xf6a <invalid_syscall_func>
     d74:	fa c0       	rjmp	.+500    	; 0xf6a <invalid_syscall_func>
     d76:	f9 c0       	rjmp	.+498    	; 0xf6a <invalid_syscall_func>
     d78:	f8 c0       	rjmp	.+496    	; 0xf6a <invalid_syscall_func>
     d7a:	f7 c0       	rjmp	.+494    	; 0xf6a <invalid_syscall_func>
     d7c:	f6 c0       	rjmp	.+492    	; 0xf6a <invalid_syscall_func>
     d7e:	f5 c0       	rjmp	.+490    	; 0xf6a <invalid_syscall_func>
     d80:	f4 c0       	rjmp	.+488    	; 0xf6a <invalid_syscall_func>
     d82:	f3 c0       	rjmp	.+486    	; 0xf6a <invalid_syscall_func>
     d84:	f2 c0       	rjmp	.+484    	; 0xf6a <invalid_syscall_func>
     d86:	f1 c0       	rjmp	.+482    	; 0xf6a <invalid_syscall_func>
     d88:	f0 c0       	rjmp	.+480    	; 0xf6a <invalid_syscall_func>
     d8a:	ef c0       	rjmp	.+478    	; 0xf6a <invalid_syscall_func>
     d8c:	ee c0       	rjmp	.+476    	; 0xf6a <invalid_syscall_func>
     d8e:	ed c0       	rjmp	.+474    	; 0xf6a <invalid_syscall_func>
     d90:	ec c0       	rjmp	.+472    	; 0xf6a <invalid_syscall_func>
     d92:	eb c0       	rjmp	.+470    	; 0xf6a <invalid_syscall_func>
     d94:	ea c0       	rjmp	.+468    	; 0xf6a <invalid_syscall_func>
     d96:	e9 c0       	rjmp	.+466    	; 0xf6a <invalid_syscall_func>
     d98:	e8 c0       	rjmp	.+464    	; 0xf6a <invalid_syscall_func>
     d9a:	e7 c0       	rjmp	.+462    	; 0xf6a <invalid_syscall_func>
     d9c:	e6 c0       	rjmp	.+460    	; 0xf6a <invalid_syscall_func>
     d9e:	e5 c0       	rjmp	.+458    	; 0xf6a <invalid_syscall_func>
     da0:	e4 c0       	rjmp	.+456    	; 0xf6a <invalid_syscall_func>
     da2:	e3 c0       	rjmp	.+454    	; 0xf6a <invalid_syscall_func>
     da4:	e2 c0       	rjmp	.+452    	; 0xf6a <invalid_syscall_func>
     da6:	e1 c0       	rjmp	.+450    	; 0xf6a <invalid_syscall_func>
     da8:	e0 c0       	rjmp	.+448    	; 0xf6a <invalid_syscall_func>
     daa:	df c0       	rjmp	.+446    	; 0xf6a <invalid_syscall_func>
     dac:	de c0       	rjmp	.+444    	; 0xf6a <invalid_syscall_func>
     dae:	dd c0       	rjmp	.+442    	; 0xf6a <invalid_syscall_func>
     db0:	dc c0       	rjmp	.+440    	; 0xf6a <invalid_syscall_func>
     db2:	db c0       	rjmp	.+438    	; 0xf6a <invalid_syscall_func>
     db4:	da c0       	rjmp	.+436    	; 0xf6a <invalid_syscall_func>
     db6:	d9 c0       	rjmp	.+434    	; 0xf6a <invalid_syscall_func>
     db8:	d8 c0       	rjmp	.+432    	; 0xf6a <invalid_syscall_func>
     dba:	d7 c0       	rjmp	.+430    	; 0xf6a <invalid_syscall_func>
     dbc:	d6 c0       	rjmp	.+428    	; 0xf6a <invalid_syscall_func>
     dbe:	d5 c0       	rjmp	.+426    	; 0xf6a <invalid_syscall_func>
     dc0:	d4 c0       	rjmp	.+424    	; 0xf6a <invalid_syscall_func>
     dc2:	d3 c0       	rjmp	.+422    	; 0xf6a <invalid_syscall_func>
     dc4:	d2 c0       	rjmp	.+420    	; 0xf6a <invalid_syscall_func>
     dc6:	d1 c0       	rjmp	.+418    	; 0xf6a <invalid_syscall_func>
     dc8:	d0 c0       	rjmp	.+416    	; 0xf6a <invalid_syscall_func>
     dca:	cf c0       	rjmp	.+414    	; 0xf6a <invalid_syscall_func>
     dcc:	ce c0       	rjmp	.+412    	; 0xf6a <invalid_syscall_func>
     dce:	cd c0       	rjmp	.+410    	; 0xf6a <invalid_syscall_func>
     dd0:	cc c0       	rjmp	.+408    	; 0xf6a <invalid_syscall_func>
     dd2:	cb c0       	rjmp	.+406    	; 0xf6a <invalid_syscall_func>
     dd4:	ca c0       	rjmp	.+404    	; 0xf6a <invalid_syscall_func>
     dd6:	c9 c0       	rjmp	.+402    	; 0xf6a <invalid_syscall_func>
     dd8:	c8 c0       	rjmp	.+400    	; 0xf6a <invalid_syscall_func>
     dda:	c7 c0       	rjmp	.+398    	; 0xf6a <invalid_syscall_func>
     ddc:	c6 c0       	rjmp	.+396    	; 0xf6a <invalid_syscall_func>
     dde:	c5 c0       	rjmp	.+394    	; 0xf6a <invalid_syscall_func>
     de0:	c4 c0       	rjmp	.+392    	; 0xf6a <invalid_syscall_func>
     de2:	c3 c0       	rjmp	.+390    	; 0xf6a <invalid_syscall_func>
     de4:	c2 c0       	rjmp	.+388    	; 0xf6a <invalid_syscall_func>
     de6:	c1 c0       	rjmp	.+386    	; 0xf6a <invalid_syscall_func>
     de8:	c0 c0       	rjmp	.+384    	; 0xf6a <invalid_syscall_func>
     dea:	bf c0       	rjmp	.+382    	; 0xf6a <invalid_syscall_func>
     dec:	be c0       	rjmp	.+380    	; 0xf6a <invalid_syscall_func>
     dee:	bd c0       	rjmp	.+378    	; 0xf6a <invalid_syscall_func>
     df0:	bc c0       	rjmp	.+376    	; 0xf6a <invalid_syscall_func>
     df2:	bb c0       	rjmp	.+374    	; 0xf6a <invalid_syscall_func>
     df4:	ba c0       	rjmp	.+372    	; 0xf6a <invalid_syscall_func>
     df6:	b9 c0       	rjmp	.+370    	; 0xf6a <invalid_syscall_func>
     df8:	b8 c0       	rjmp	.+368    	; 0xf6a <invalid_syscall_func>
     dfa:	b7 c0       	rjmp	.+366    	; 0xf6a <invalid_syscall_func>
     dfc:	b6 c0       	rjmp	.+364    	; 0xf6a <invalid_syscall_func>
     dfe:	b5 c0       	rjmp	.+362    	; 0xf6a <invalid_syscall_func>
     e00:	b4 c0       	rjmp	.+360    	; 0xf6a <invalid_syscall_func>
     e02:	b3 c0       	rjmp	.+358    	; 0xf6a <invalid_syscall_func>
     e04:	b2 c0       	rjmp	.+356    	; 0xf6a <invalid_syscall_func>
     e06:	b1 c0       	rjmp	.+354    	; 0xf6a <invalid_syscall_func>
     e08:	b0 c0       	rjmp	.+352    	; 0xf6a <invalid_syscall_func>
     e0a:	af c0       	rjmp	.+350    	; 0xf6a <invalid_syscall_func>
     e0c:	ae c0       	rjmp	.+348    	; 0xf6a <invalid_syscall_func>
     e0e:	ad c0       	rjmp	.+346    	; 0xf6a <invalid_syscall_func>
     e10:	ac c0       	rjmp	.+344    	; 0xf6a <invalid_syscall_func>
     e12:	ab c0       	rjmp	.+342    	; 0xf6a <invalid_syscall_func>
     e14:	aa c0       	rjmp	.+340    	; 0xf6a <invalid_syscall_func>
     e16:	a9 c0       	rjmp	.+338    	; 0xf6a <invalid_syscall_func>
     e18:	a8 c0       	rjmp	.+336    	; 0xf6a <invalid_syscall_func>
     e1a:	a7 c0       	rjmp	.+334    	; 0xf6a <invalid_syscall_func>
     e1c:	a6 c0       	rjmp	.+332    	; 0xf6a <invalid_syscall_func>
     e1e:	a5 c0       	rjmp	.+330    	; 0xf6a <invalid_syscall_func>
     e20:	a4 c0       	rjmp	.+328    	; 0xf6a <invalid_syscall_func>
     e22:	a3 c0       	rjmp	.+326    	; 0xf6a <invalid_syscall_func>
     e24:	a2 c0       	rjmp	.+324    	; 0xf6a <invalid_syscall_func>
     e26:	a1 c0       	rjmp	.+322    	; 0xf6a <invalid_syscall_func>
     e28:	a0 c0       	rjmp	.+320    	; 0xf6a <invalid_syscall_func>
     e2a:	9f c0       	rjmp	.+318    	; 0xf6a <invalid_syscall_func>
     e2c:	9e c0       	rjmp	.+316    	; 0xf6a <invalid_syscall_func>
     e2e:	9d c0       	rjmp	.+314    	; 0xf6a <invalid_syscall_func>
     e30:	9c c0       	rjmp	.+312    	; 0xf6a <invalid_syscall_func>
     e32:	9b c0       	rjmp	.+310    	; 0xf6a <invalid_syscall_func>
     e34:	9a c0       	rjmp	.+308    	; 0xf6a <invalid_syscall_func>
     e36:	99 c0       	rjmp	.+306    	; 0xf6a <invalid_syscall_func>
     e38:	98 c0       	rjmp	.+304    	; 0xf6a <invalid_syscall_func>
     e3a:	97 c0       	rjmp	.+302    	; 0xf6a <invalid_syscall_func>
     e3c:	96 c0       	rjmp	.+300    	; 0xf6a <invalid_syscall_func>
     e3e:	95 c0       	rjmp	.+298    	; 0xf6a <invalid_syscall_func>
     e40:	94 c0       	rjmp	.+296    	; 0xf6a <invalid_syscall_func>
     e42:	93 c0       	rjmp	.+294    	; 0xf6a <invalid_syscall_func>
     e44:	92 c0       	rjmp	.+292    	; 0xf6a <invalid_syscall_func>
     e46:	91 c0       	rjmp	.+290    	; 0xf6a <invalid_syscall_func>
     e48:	90 c0       	rjmp	.+288    	; 0xf6a <invalid_syscall_func>
     e4a:	8f c0       	rjmp	.+286    	; 0xf6a <invalid_syscall_func>
     e4c:	8e c0       	rjmp	.+284    	; 0xf6a <invalid_syscall_func>
     e4e:	8d c0       	rjmp	.+282    	; 0xf6a <invalid_syscall_func>
     e50:	8c c0       	rjmp	.+280    	; 0xf6a <invalid_syscall_func>
     e52:	8b c0       	rjmp	.+278    	; 0xf6a <invalid_syscall_func>
     e54:	8a c0       	rjmp	.+276    	; 0xf6a <invalid_syscall_func>
     e56:	89 c0       	rjmp	.+274    	; 0xf6a <invalid_syscall_func>
     e58:	88 c0       	rjmp	.+272    	; 0xf6a <invalid_syscall_func>
     e5a:	87 c0       	rjmp	.+270    	; 0xf6a <invalid_syscall_func>
     e5c:	86 c0       	rjmp	.+268    	; 0xf6a <invalid_syscall_func>
     e5e:	85 c0       	rjmp	.+266    	; 0xf6a <invalid_syscall_func>
     e60:	84 c0       	rjmp	.+264    	; 0xf6a <invalid_syscall_func>
     e62:	83 c0       	rjmp	.+262    	; 0xf6a <invalid_syscall_func>
     e64:	82 c0       	rjmp	.+260    	; 0xf6a <invalid_syscall_func>
     e66:	81 c0       	rjmp	.+258    	; 0xf6a <invalid_syscall_func>
     e68:	80 c0       	rjmp	.+256    	; 0xf6a <invalid_syscall_func>
     e6a:	7f c0       	rjmp	.+254    	; 0xf6a <invalid_syscall_func>
     e6c:	7e c0       	rjmp	.+252    	; 0xf6a <invalid_syscall_func>
     e6e:	7d c0       	rjmp	.+250    	; 0xf6a <invalid_syscall_func>
     e70:	7c c0       	rjmp	.+248    	; 0xf6a <invalid_syscall_func>
     e72:	7b c0       	rjmp	.+246    	; 0xf6a <invalid_syscall_func>
     e74:	7a c0       	rjmp	.+244    	; 0xf6a <invalid_syscall_func>
     e76:	79 c0       	rjmp	.+242    	; 0xf6a <invalid_syscall_func>
     e78:	78 c0       	rjmp	.+240    	; 0xf6a <invalid_syscall_func>
     e7a:	77 c0       	rjmp	.+238    	; 0xf6a <invalid_syscall_func>
     e7c:	76 c0       	rjmp	.+236    	; 0xf6a <invalid_syscall_func>
     e7e:	75 c0       	rjmp	.+234    	; 0xf6a <invalid_syscall_func>
     e80:	74 c0       	rjmp	.+232    	; 0xf6a <invalid_syscall_func>
     e82:	73 c0       	rjmp	.+230    	; 0xf6a <invalid_syscall_func>
     e84:	72 c0       	rjmp	.+228    	; 0xf6a <invalid_syscall_func>
     e86:	71 c0       	rjmp	.+226    	; 0xf6a <invalid_syscall_func>
     e88:	70 c0       	rjmp	.+224    	; 0xf6a <invalid_syscall_func>
     e8a:	6f c0       	rjmp	.+222    	; 0xf6a <invalid_syscall_func>
     e8c:	6e c0       	rjmp	.+220    	; 0xf6a <invalid_syscall_func>
     e8e:	6d c0       	rjmp	.+218    	; 0xf6a <invalid_syscall_func>
     e90:	6c c0       	rjmp	.+216    	; 0xf6a <invalid_syscall_func>
     e92:	6b c0       	rjmp	.+214    	; 0xf6a <invalid_syscall_func>
     e94:	6a c0       	rjmp	.+212    	; 0xf6a <invalid_syscall_func>
     e96:	69 c0       	rjmp	.+210    	; 0xf6a <invalid_syscall_func>
     e98:	68 c0       	rjmp	.+208    	; 0xf6a <invalid_syscall_func>
     e9a:	67 c0       	rjmp	.+206    	; 0xf6a <invalid_syscall_func>
     e9c:	66 c0       	rjmp	.+204    	; 0xf6a <invalid_syscall_func>
     e9e:	65 c0       	rjmp	.+202    	; 0xf6a <invalid_syscall_func>
     ea0:	64 c0       	rjmp	.+200    	; 0xf6a <invalid_syscall_func>
     ea2:	63 c0       	rjmp	.+198    	; 0xf6a <invalid_syscall_func>
     ea4:	62 c0       	rjmp	.+196    	; 0xf6a <invalid_syscall_func>
     ea6:	61 c0       	rjmp	.+194    	; 0xf6a <invalid_syscall_func>
     ea8:	60 c0       	rjmp	.+192    	; 0xf6a <invalid_syscall_func>
     eaa:	5f c0       	rjmp	.+190    	; 0xf6a <invalid_syscall_func>
     eac:	5e c0       	rjmp	.+188    	; 0xf6a <invalid_syscall_func>
     eae:	5d c0       	rjmp	.+186    	; 0xf6a <invalid_syscall_func>
     eb0:	5c c0       	rjmp	.+184    	; 0xf6a <invalid_syscall_func>
     eb2:	5b c0       	rjmp	.+182    	; 0xf6a <invalid_syscall_func>
     eb4:	5a c0       	rjmp	.+180    	; 0xf6a <invalid_syscall_func>
     eb6:	59 c0       	rjmp	.+178    	; 0xf6a <invalid_syscall_func>
     eb8:	58 c0       	rjmp	.+176    	; 0xf6a <invalid_syscall_func>
     eba:	57 c0       	rjmp	.+174    	; 0xf6a <invalid_syscall_func>
     ebc:	56 c0       	rjmp	.+172    	; 0xf6a <invalid_syscall_func>
     ebe:	55 c0       	rjmp	.+170    	; 0xf6a <invalid_syscall_func>
     ec0:	54 c0       	rjmp	.+168    	; 0xf6a <invalid_syscall_func>
     ec2:	53 c0       	rjmp	.+166    	; 0xf6a <invalid_syscall_func>
     ec4:	52 c0       	rjmp	.+164    	; 0xf6a <invalid_syscall_func>
     ec6:	51 c0       	rjmp	.+162    	; 0xf6a <invalid_syscall_func>
     ec8:	50 c0       	rjmp	.+160    	; 0xf6a <invalid_syscall_func>
     eca:	4f c0       	rjmp	.+158    	; 0xf6a <invalid_syscall_func>
     ecc:	4e c0       	rjmp	.+156    	; 0xf6a <invalid_syscall_func>
     ece:	4d c0       	rjmp	.+154    	; 0xf6a <invalid_syscall_func>
     ed0:	4c c0       	rjmp	.+152    	; 0xf6a <invalid_syscall_func>
     ed2:	4b c0       	rjmp	.+150    	; 0xf6a <invalid_syscall_func>
     ed4:	4a c0       	rjmp	.+148    	; 0xf6a <invalid_syscall_func>
     ed6:	49 c0       	rjmp	.+146    	; 0xf6a <invalid_syscall_func>
     ed8:	48 c0       	rjmp	.+144    	; 0xf6a <invalid_syscall_func>
     eda:	47 c0       	rjmp	.+142    	; 0xf6a <invalid_syscall_func>
     edc:	46 c0       	rjmp	.+140    	; 0xf6a <invalid_syscall_func>

00000ede <sys_debug_putc_func>:
     ede:	00 93 f1 00 	sts	0x00F1, r16	; 0x8000f1 <__DATA_REGION_ORIGIN__+0x91>
     ee2:	05 ce       	rjmp	.-1014   	; 0xaee <cluster_tail_18_delay_2>

00000ee4 <sys_debug_break_func>:
     ee4:	98 95       	break
     ee6:	02 ce       	rjmp	.-1020   	; 0xaec <cluster_tail_18_delay_3>

00000ee8 <sys_millis_func>:
     ee8:	f8 94       	cli
     eea:	00 91 07 0a 	lds	r16, 0x0A07	; 0x800a07 <_end+0x907>
     eee:	10 91 08 0a 	lds	r17, 0x0A08	; 0x800a08 <_end+0x908>
     ef2:	78 94       	sei
     ef4:	fe cd       	rjmp	.-1028   	; 0xaf2 <cluster_tail_18>

00000ef6 <sys_millis32_func>:
     ef6:	f8 94       	cli
     ef8:	00 91 07 0a 	lds	r16, 0x0A07	; 0x800a07 <_end+0x907>
     efc:	10 91 08 0a 	lds	r17, 0x0A08	; 0x800a08 <_end+0x908>
     f00:	20 91 09 0a 	lds	r18, 0x0A09	; 0x800a09 <_end+0x909>
     f04:	30 91 0a 0a 	lds	r19, 0x0A0A	; 0x800a0a <_end+0x90a>
     f08:	78 94       	sei
     f0a:	f3 cd       	rjmp	.-1050   	; 0xaf2 <cluster_tail_18>

00000f0c <push_pc_seek_and_dispatch_func>:
     f0c:	6a 92       	st	-Y, r6
     f0e:	5a 92       	st	-Y, r5
     f10:	4a 92       	st	-Y, r4
     f12:	2c 01       	movw	r4, r24
     f14:	6a 2e       	mov	r6, r26

00000f16 <seek_and_dispatch_func>:
     f16:	59 9a       	sbi	0x0b, 1	; 11
     f18:	e3 e0       	ldi	r30, 0x03	; 3
     f1a:	59 98       	cbi	0x0b, 1	; 11
     f1c:	ee bd       	out	0x2e, r30	; 46
     f1e:	a0 91 00 0a 	lds	r26, 0x0A00	; 0x800a00 <_end+0x900>
     f22:	a5 0d       	add	r26, r5
     f24:	b0 91 01 0a 	lds	r27, 0x0A01	; 0x800a01 <_end+0x901>
     f28:	b6 1d       	adc	r27, r6
     f2a:	19 d0       	rcall	.+50     	; 0xf5e <interp_delay_10>
     f2c:	be bd       	out	0x2e, r27	; 46
     f2e:	11 d0       	rcall	.+34     	; 0xf52 <interp_delay_17>
     f30:	ae bd       	out	0x2e, r26	; 46
     f32:	0f d0       	rcall	.+30     	; 0xf52 <interp_delay_17>
     f34:	4e bc       	out	0x2e, r4	; 46
     f36:	0e d0       	rcall	.+28     	; 0xf54 <interp_delay_16>
     f38:	2e bc       	out	0x2e, r2	; 46
     f3a:	0d d0       	rcall	.+26     	; 0xf56 <interp_delay_14>
     f3c:	43 0c       	add	r4, r3
     f3e:	f8 94       	cli
     f40:	2e bc       	out	0x2e, r2	; 46
     f42:	8e b5       	in	r24, 0x2e	; 46
     f44:	78 94       	sei
     f46:	52 1c       	adc	r5, r2
     f48:	62 1c       	adc	r6, r2
     f4a:	87 9d       	mul	r24, r7
     f4c:	f0 01       	movw	r30, r0
     f4e:	ff 5f       	subi	r31, 0xFF	; 255
     f50:	09 94       	ijmp

00000f52 <interp_delay_17>:
     f52:	00 00       	nop

00000f54 <interp_delay_16>:
     f54:	00 c0       	rjmp	.+0      	; 0xf56 <interp_delay_14>

00000f56 <interp_delay_14>:
     f56:	00 00       	nop

00000f58 <interp_delay_13>:
     f58:	00 00       	nop

00000f5a <interp_delay_12>:
     f5a:	00 00       	nop

00000f5c <interp_delay_11>:
     f5c:	00 00       	nop

00000f5e <interp_delay_10>:
     f5e:	00 00       	nop

00000f60 <interp_delay_9>:
     f60:	00 c0       	rjmp	.+0      	; 0xf62 <interp_delay_7>

00000f62 <interp_delay_7>:
     f62:	08 95       	ret

00000f64 <unimplemented_instruction_func>:
     f64:	ff cf       	rjmp	.-2      	; 0xf64 <unimplemented_instruction_func>

00000f66 <invalid_primary_instruction_func>:
     f66:	ff cf       	rjmp	.-2      	; 0xf66 <invalid_primary_instruction_func>

00000f68 <invalid_secondary_instruction_func>:
     f68:	ff cf       	rjmp	.-2      	; 0xf68 <invalid_secondary_instruction_func>

00000f6a <invalid_syscall_func>:
     f6a:	ff cf       	rjmp	.-2      	; 0xf6a <invalid_syscall_func>

00000f6c <cluster_a_tail>:
     f6c:	00 00       	nop

00000f6e <cluster_a_tail_17_delay_2>:
     f6e:	01 c0       	rjmp	.+2      	; 0xf72 <cluster_a_tail_17>

00000f70 <cluster_a_start>:
     f70:	00 00       	nop

00000f72 <cluster_a_tail_17>:
     f72:	43 0c       	add	r4, r3
     f74:	f8 94       	cli
     f76:	2e bc       	out	0x2e, r2	; 46
     f78:	8e b5       	in	r24, 0x2e	; 46
     f7a:	78 94       	sei
     f7c:	52 1c       	adc	r5, r2
     f7e:	62 1c       	adc	r6, r2
     f80:	87 9d       	mul	r24, r7
     f82:	f0 01       	movw	r30, r0
     f84:	ff 5f       	subi	r31, 0xFF	; 255
     f86:	09 94       	ijmp

00000f88 <cluster_a_tail_18_delay_2>:
     f88:	02 c0       	rjmp	.+4      	; 0xf8e <cluster_a_tail_18>

00000f8a <flags_commit_a_18_delay_1>:
     f8a:	8e bb       	out	0x1e, r24	; 30

00000f8c <cluster_a_tail_18_delay_1>:
     f8c:	00 00       	nop

00000f8e <cluster_a_tail_18>:
     f8e:	8e b5       	in	r24, 0x2e	; 46
     f90:	2e bc       	out	0x2e, r2	; 46
     f92:	43 0c       	add	r4, r3
     f94:	52 1c       	adc	r5, r2
     f96:	62 1c       	adc	r6, r2
     f98:	87 9d       	mul	r24, r7
     f9a:	f0 01       	movw	r30, r0
     f9c:	ff 5f       	subi	r31, 0xFF	; 255
     f9e:	09 94       	ijmp

00000fa0 <cluster_a_end>:
     fa0:	e1 cf       	rjmp	.-62     	; 0xf64 <unimplemented_instruction_func>

00000fa2 <f0_veneer_table>:
     fa2:	fe cf       	rjmp	.-4      	; 0xfa0 <cluster_a_end>
     fa4:	fd cf       	rjmp	.-6      	; 0xfa0 <cluster_a_end>
     fa6:	fc cf       	rjmp	.-8      	; 0xfa0 <cluster_a_end>
     fa8:	fb cf       	rjmp	.-10     	; 0xfa0 <cluster_a_end>
     faa:	fa cf       	rjmp	.-12     	; 0xfa0 <cluster_a_end>
     fac:	f9 cf       	rjmp	.-14     	; 0xfa0 <cluster_a_end>
     fae:	f8 cf       	rjmp	.-16     	; 0xfa0 <cluster_a_end>
     fb0:	f7 cf       	rjmp	.-18     	; 0xfa0 <cluster_a_end>
     fb2:	f6 cf       	rjmp	.-20     	; 0xfa0 <cluster_a_end>
     fb4:	f5 cf       	rjmp	.-22     	; 0xfa0 <cluster_a_end>
     fb6:	f4 cf       	rjmp	.-24     	; 0xfa0 <cluster_a_end>
     fb8:	f3 cf       	rjmp	.-26     	; 0xfa0 <cluster_a_end>
     fba:	f2 cf       	rjmp	.-28     	; 0xfa0 <cluster_a_end>
     fbc:	f1 cf       	rjmp	.-30     	; 0xfa0 <cluster_a_end>
     fbe:	f0 cf       	rjmp	.-32     	; 0xfa0 <cluster_a_end>
     fc0:	ef cf       	rjmp	.-34     	; 0xfa0 <cluster_a_end>
     fc2:	ee cf       	rjmp	.-36     	; 0xfa0 <cluster_a_end>
     fc4:	ed cf       	rjmp	.-38     	; 0xfa0 <cluster_a_end>
     fc6:	ec cf       	rjmp	.-40     	; 0xfa0 <cluster_a_end>
     fc8:	eb cf       	rjmp	.-42     	; 0xfa0 <cluster_a_end>
     fca:	ea cf       	rjmp	.-44     	; 0xfa0 <cluster_a_end>
     fcc:	e9 cf       	rjmp	.-46     	; 0xfa0 <cluster_a_end>
     fce:	e8 cf       	rjmp	.-48     	; 0xfa0 <cluster_a_end>
     fd0:	e7 cf       	rjmp	.-50     	; 0xfa0 <cluster_a_end>
     fd2:	e6 cf       	rjmp	.-52     	; 0xfa0 <cluster_a_end>
     fd4:	e5 cf       	rjmp	.-54     	; 0xfa0 <cluster_a_end>
     fd6:	e4 cf       	rjmp	.-56     	; 0xfa0 <cluster_a_end>
     fd8:	e3 cf       	rjmp	.-58     	; 0xfa0 <cluster_a_end>
     fda:	e2 cf       	rjmp	.-60     	; 0xfa0 <cluster_a_end>
     fdc:	e1 cf       	rjmp	.-62     	; 0xfa0 <cluster_a_end>
     fde:	e0 cf       	rjmp	.-64     	; 0xfa0 <cluster_a_end>
     fe0:	df cf       	rjmp	.-66     	; 0xfa0 <cluster_a_end>
     fe2:	de cf       	rjmp	.-68     	; 0xfa0 <cluster_a_end>
     fe4:	dd cf       	rjmp	.-70     	; 0xfa0 <cluster_a_end>
     fe6:	dc cf       	rjmp	.-72     	; 0xfa0 <cluster_a_end>
     fe8:	db cf       	rjmp	.-74     	; 0xfa0 <cluster_a_end>
     fea:	da cf       	rjmp	.-76     	; 0xfa0 <cluster_a_end>
     fec:	d9 cf       	rjmp	.-78     	; 0xfa0 <cluster_a_end>
     fee:	d8 cf       	rjmp	.-80     	; 0xfa0 <cluster_a_end>
     ff0:	d7 cf       	rjmp	.-82     	; 0xfa0 <cluster_a_end>
     ff2:	d6 cf       	rjmp	.-84     	; 0xfa0 <cluster_a_end>
     ff4:	d5 cf       	rjmp	.-86     	; 0xfa0 <cluster_a_end>
     ff6:	d4 cf       	rjmp	.-88     	; 0xfa0 <cluster_a_end>
     ff8:	d3 cf       	rjmp	.-90     	; 0xfa0 <cluster_a_end>
     ffa:	d2 cf       	rjmp	.-92     	; 0xfa0 <cluster_a_end>
     ffc:	d1 cf       	rjmp	.-94     	; 0xfa0 <cluster_a_end>
     ffe:	d0 cf       	rjmp	.-96     	; 0xfa0 <cluster_a_end>
    1000:	cf cf       	rjmp	.-98     	; 0xfa0 <cluster_a_end>
    1002:	ce cf       	rjmp	.-100    	; 0xfa0 <cluster_a_end>
    1004:	cd cf       	rjmp	.-102    	; 0xfa0 <cluster_a_end>
    1006:	cc cf       	rjmp	.-104    	; 0xfa0 <cluster_a_end>
    1008:	cb cf       	rjmp	.-106    	; 0xfa0 <cluster_a_end>
    100a:	ca cf       	rjmp	.-108    	; 0xfa0 <cluster_a_end>
    100c:	c9 cf       	rjmp	.-110    	; 0xfa0 <cluster_a_end>
    100e:	c8 cf       	rjmp	.-112    	; 0xfa0 <cluster_a_end>
    1010:	c7 cf       	rjmp	.-114    	; 0xfa0 <cluster_a_end>
    1012:	c6 cf       	rjmp	.-116    	; 0xfa0 <cluster_a_end>
    1014:	c5 cf       	rjmp	.-118    	; 0xfa0 <cluster_a_end>
    1016:	c4 cf       	rjmp	.-120    	; 0xfa0 <cluster_a_end>
    1018:	c3 cf       	rjmp	.-122    	; 0xfa0 <cluster_a_end>
    101a:	c2 cf       	rjmp	.-124    	; 0xfa0 <cluster_a_end>
    101c:	c1 cf       	rjmp	.-126    	; 0xfa0 <cluster_a_end>
    101e:	c0 cf       	rjmp	.-128    	; 0xfa0 <cluster_a_end>
    1020:	bf cf       	rjmp	.-130    	; 0xfa0 <cluster_a_end>
    1022:	be cf       	rjmp	.-132    	; 0xfa0 <cluster_a_end>
    1024:	bd cf       	rjmp	.-134    	; 0xfa0 <cluster_a_end>
    1026:	bc cf       	rjmp	.-136    	; 0xfa0 <cluster_a_end>
    1028:	bb cf       	rjmp	.-138    	; 0xfa0 <cluster_a_end>
    102a:	ba cf       	rjmp	.-140    	; 0xfa0 <cluster_a_end>
    102c:	b9 cf       	rjmp	.-142    	; 0xfa0 <cluster_a_end>
    102e:	b8 cf       	rjmp	.-144    	; 0xfa0 <cluster_a_end>
    1030:	b7 cf       	rjmp	.-146    	; 0xfa0 <cluster_a_end>
    1032:	b6 cf       	rjmp	.-148    	; 0xfa0 <cluster_a_end>
    1034:	b5 cf       	rjmp	.-150    	; 0xfa0 <cluster_a_end>
    1036:	b4 cf       	rjmp	.-152    	; 0xfa0 <cluster_a_end>
    1038:	b3 cf       	rjmp	.-154    	; 0xfa0 <cluster_a_end>
    103a:	b2 cf       	rjmp	.-156    	; 0xfa0 <cluster_a_end>
    103c:	b1 cf       	rjmp	.-158    	; 0xfa0 <cluster_a_end>
    103e:	b0 cf       	rjmp	.-160    	; 0xfa0 <cluster_a_end>
    1040:	af cf       	rjmp	.-162    	; 0xfa0 <cluster_a_end>
    1042:	ae cf       	rjmp	.-164    	; 0xfa0 <cluster_a_end>
    1044:	ad cf       	rjmp	.-166    	; 0xfa0 <cluster_a_end>
    1046:	ac cf       	rjmp	.-168    	; 0xfa0 <cluster_a_end>
    1048:	ab cf       	rjmp	.-170    	; 0xfa0 <cluster_a_end>
    104a:	aa cf       	rjmp	.-172    	; 0xfa0 <cluster_a_end>
    104c:	a9 cf       	rjmp	.-174    	; 0xfa0 <cluster_a_end>
    104e:	a8 cf       	rjmp	.-176    	; 0xfa0 <cluster_a_end>
    1050:	a7 cf       	rjmp	.-178    	; 0xfa0 <cluster_a_end>
    1052:	a6 cf       	rjmp	.-180    	; 0xfa0 <cluster_a_end>
    1054:	a5 cf       	rjmp	.-182    	; 0xfa0 <cluster_a_end>
    1056:	a4 cf       	rjmp	.-184    	; 0xfa0 <cluster_a_end>
    1058:	a3 cf       	rjmp	.-186    	; 0xfa0 <cluster_a_end>
    105a:	a2 cf       	rjmp	.-188    	; 0xfa0 <cluster_a_end>
    105c:	a1 cf       	rjmp	.-190    	; 0xfa0 <cluster_a_end>
    105e:	a0 cf       	rjmp	.-192    	; 0xfa0 <cluster_a_end>
    1060:	9f cf       	rjmp	.-194    	; 0xfa0 <cluster_a_end>
    1062:	9e cf       	rjmp	.-196    	; 0xfa0 <cluster_a_end>
    1064:	9d cf       	rjmp	.-198    	; 0xfa0 <cluster_a_end>
    1066:	9c cf       	rjmp	.-200    	; 0xfa0 <cluster_a_end>
    1068:	9b cf       	rjmp	.-202    	; 0xfa0 <cluster_a_end>
    106a:	9a cf       	rjmp	.-204    	; 0xfa0 <cluster_a_end>
    106c:	99 cf       	rjmp	.-206    	; 0xfa0 <cluster_a_end>
    106e:	98 cf       	rjmp	.-208    	; 0xfa0 <cluster_a_end>
    1070:	97 cf       	rjmp	.-210    	; 0xfa0 <cluster_a_end>
    1072:	96 cf       	rjmp	.-212    	; 0xfa0 <cluster_a_end>
    1074:	95 cf       	rjmp	.-214    	; 0xfa0 <cluster_a_end>
    1076:	94 cf       	rjmp	.-216    	; 0xfa0 <cluster_a_end>
    1078:	93 cf       	rjmp	.-218    	; 0xfa0 <cluster_a_end>
    107a:	92 cf       	rjmp	.-220    	; 0xfa0 <cluster_a_end>
    107c:	91 cf       	rjmp	.-222    	; 0xfa0 <cluster_a_end>

0000107e <f0_veneer_table_end>:
    107e:	44 01       	movw	r8, r8
    1080:	76 cf       	rjmp	.-276    	; 0xf6e <cluster_a_tail_17_delay_2>
    1082:	45 01       	movw	r8, r10
    1084:	74 cf       	rjmp	.-280    	; 0xf6e <cluster_a_tail_17_delay_2>
    1086:	46 01       	movw	r8, r12
    1088:	72 cf       	rjmp	.-284    	; 0xf6e <cluster_a_tail_17_delay_2>
    108a:	47 01       	movw	r8, r14
    108c:	70 cf       	rjmp	.-288    	; 0xf6e <cluster_a_tail_17_delay_2>
    108e:	48 01       	movw	r8, r16
    1090:	6e cf       	rjmp	.-292    	; 0xf6e <cluster_a_tail_17_delay_2>
    1092:	49 01       	movw	r8, r18
    1094:	6c cf       	rjmp	.-296    	; 0xf6e <cluster_a_tail_17_delay_2>
    1096:	4a 01       	movw	r8, r20
    1098:	6a cf       	rjmp	.-300    	; 0xf6e <cluster_a_tail_17_delay_2>
    109a:	4b 01       	movw	r8, r22
    109c:	68 cf       	rjmp	.-304    	; 0xf6e <cluster_a_tail_17_delay_2>
    109e:	54 01       	movw	r10, r8
    10a0:	66 cf       	rjmp	.-308    	; 0xf6e <cluster_a_tail_17_delay_2>
    10a2:	55 01       	movw	r10, r10
    10a4:	64 cf       	rjmp	.-312    	; 0xf6e <cluster_a_tail_17_delay_2>
    10a6:	56 01       	movw	r10, r12
    10a8:	62 cf       	rjmp	.-316    	; 0xf6e <cluster_a_tail_17_delay_2>
    10aa:	57 01       	movw	r10, r14
    10ac:	60 cf       	rjmp	.-320    	; 0xf6e <cluster_a_tail_17_delay_2>
    10ae:	58 01       	movw	r10, r16
    10b0:	5e cf       	rjmp	.-324    	; 0xf6e <cluster_a_tail_17_delay_2>
    10b2:	59 01       	movw	r10, r18
    10b4:	5c cf       	rjmp	.-328    	; 0xf6e <cluster_a_tail_17_delay_2>
    10b6:	5a 01       	movw	r10, r20
    10b8:	5a cf       	rjmp	.-332    	; 0xf6e <cluster_a_tail_17_delay_2>
    10ba:	5b 01       	movw	r10, r22
    10bc:	58 cf       	rjmp	.-336    	; 0xf6e <cluster_a_tail_17_delay_2>
    10be:	64 01       	movw	r12, r8
    10c0:	56 cf       	rjmp	.-340    	; 0xf6e <cluster_a_tail_17_delay_2>
    10c2:	65 01       	movw	r12, r10
    10c4:	54 cf       	rjmp	.-344    	; 0xf6e <cluster_a_tail_17_delay_2>
    10c6:	66 01       	movw	r12, r12
    10c8:	52 cf       	rjmp	.-348    	; 0xf6e <cluster_a_tail_17_delay_2>
    10ca:	67 01       	movw	r12, r14
    10cc:	50 cf       	rjmp	.-352    	; 0xf6e <cluster_a_tail_17_delay_2>
    10ce:	68 01       	movw	r12, r16
    10d0:	4e cf       	rjmp	.-356    	; 0xf6e <cluster_a_tail_17_delay_2>
    10d2:	69 01       	movw	r12, r18
    10d4:	4c cf       	rjmp	.-360    	; 0xf6e <cluster_a_tail_17_delay_2>
    10d6:	6a 01       	movw	r12, r20
    10d8:	4a cf       	rjmp	.-364    	; 0xf6e <cluster_a_tail_17_delay_2>
    10da:	6b 01       	movw	r12, r22
    10dc:	48 cf       	rjmp	.-368    	; 0xf6e <cluster_a_tail_17_delay_2>
    10de:	74 01       	movw	r14, r8
    10e0:	46 cf       	rjmp	.-372    	; 0xf6e <cluster_a_tail_17_delay_2>
    10e2:	75 01       	movw	r14, r10
    10e4:	44 cf       	rjmp	.-376    	; 0xf6e <cluster_a_tail_17_delay_2>
    10e6:	76 01       	movw	r14, r12
    10e8:	42 cf       	rjmp	.-380    	; 0xf6e <cluster_a_tail_17_delay_2>
    10ea:	77 01       	movw	r14, r14
    10ec:	40 cf       	rjmp	.-384    	; 0xf6e <cluster_a_tail_17_delay_2>
    10ee:	78 01       	movw	r14, r16
    10f0:	3e cf       	rjmp	.-388    	; 0xf6e <cluster_a_tail_17_delay_2>
    10f2:	79 01       	movw	r14, r18
    10f4:	3c cf       	rjmp	.-392    	; 0xf6e <cluster_a_tail_17_delay_2>
    10f6:	7a 01       	movw	r14, r20
    10f8:	3a cf       	rjmp	.-396    	; 0xf6e <cluster_a_tail_17_delay_2>
    10fa:	7b 01       	movw	r14, r22
    10fc:	38 cf       	rjmp	.-400    	; 0xf6e <cluster_a_tail_17_delay_2>
    10fe:	84 01       	movw	r16, r8
    1100:	36 cf       	rjmp	.-404    	; 0xf6e <cluster_a_tail_17_delay_2>
    1102:	85 01       	movw	r16, r10
    1104:	34 cf       	rjmp	.-408    	; 0xf6e <cluster_a_tail_17_delay_2>
    1106:	86 01       	movw	r16, r12
    1108:	32 cf       	rjmp	.-412    	; 0xf6e <cluster_a_tail_17_delay_2>
    110a:	87 01       	movw	r16, r14
    110c:	30 cf       	rjmp	.-416    	; 0xf6e <cluster_a_tail_17_delay_2>
    110e:	94 01       	movw	r18, r8
    1110:	2e cf       	rjmp	.-420    	; 0xf6e <cluster_a_tail_17_delay_2>
    1112:	95 01       	movw	r18, r10
    1114:	2c cf       	rjmp	.-424    	; 0xf6e <cluster_a_tail_17_delay_2>
    1116:	96 01       	movw	r18, r12
    1118:	2a cf       	rjmp	.-428    	; 0xf6e <cluster_a_tail_17_delay_2>
    111a:	97 01       	movw	r18, r14
    111c:	28 cf       	rjmp	.-432    	; 0xf6e <cluster_a_tail_17_delay_2>
    111e:	a4 01       	movw	r20, r8
    1120:	26 cf       	rjmp	.-436    	; 0xf6e <cluster_a_tail_17_delay_2>
    1122:	a5 01       	movw	r20, r10
    1124:	24 cf       	rjmp	.-440    	; 0xf6e <cluster_a_tail_17_delay_2>
    1126:	a6 01       	movw	r20, r12
    1128:	22 cf       	rjmp	.-444    	; 0xf6e <cluster_a_tail_17_delay_2>
    112a:	a7 01       	movw	r20, r14
    112c:	20 cf       	rjmp	.-448    	; 0xf6e <cluster_a_tail_17_delay_2>
    112e:	b4 01       	movw	r22, r8
    1130:	1e cf       	rjmp	.-452    	; 0xf6e <cluster_a_tail_17_delay_2>
    1132:	b5 01       	movw	r22, r10
    1134:	1c cf       	rjmp	.-456    	; 0xf6e <cluster_a_tail_17_delay_2>
    1136:	b6 01       	movw	r22, r12
    1138:	1a cf       	rjmp	.-460    	; 0xf6e <cluster_a_tail_17_delay_2>
    113a:	b7 01       	movw	r22, r14
    113c:	18 cf       	rjmp	.-464    	; 0xf6e <cluster_a_tail_17_delay_2>
    113e:	08 83       	st	Y, r16
    1140:	17 cf       	rjmp	.-466    	; 0xf70 <cluster_a_start>
    1142:	28 83       	st	Y, r18
    1144:	15 cf       	rjmp	.-470    	; 0xf70 <cluster_a_start>
    1146:	48 83       	st	Y, r20
    1148:	13 cf       	rjmp	.-474    	; 0xf70 <cluster_a_start>
    114a:	68 83       	st	Y, r22
    114c:	11 cf       	rjmp	.-478    	; 0xf70 <cluster_a_start>
    114e:	09 83       	std	Y+1, r16	; 0x01
    1150:	0f cf       	rjmp	.-482    	; 0xf70 <cluster_a_start>
    1152:	29 83       	std	Y+1, r18	; 0x01
    1154:	0d cf       	rjmp	.-486    	; 0xf70 <cluster_a_start>
    1156:	49 83       	std	Y+1, r20	; 0x01
    1158:	0b cf       	rjmp	.-490    	; 0xf70 <cluster_a_start>
    115a:	69 83       	std	Y+1, r22	; 0x01
    115c:	09 cf       	rjmp	.-494    	; 0xf70 <cluster_a_start>
    115e:	0a 83       	std	Y+2, r16	; 0x02
    1160:	07 cf       	rjmp	.-498    	; 0xf70 <cluster_a_start>
    1162:	2a 83       	std	Y+2, r18	; 0x02
    1164:	05 cf       	rjmp	.-502    	; 0xf70 <cluster_a_start>
    1166:	4a 83       	std	Y+2, r20	; 0x02
    1168:	03 cf       	rjmp	.-506    	; 0xf70 <cluster_a_start>
    116a:	6a 83       	std	Y+2, r22	; 0x02
    116c:	01 cf       	rjmp	.-510    	; 0xf70 <cluster_a_start>
    116e:	0b 83       	std	Y+3, r16	; 0x03
    1170:	ff ce       	rjmp	.-514    	; 0xf70 <cluster_a_start>
    1172:	2b 83       	std	Y+3, r18	; 0x03
    1174:	fd ce       	rjmp	.-518    	; 0xf70 <cluster_a_start>
    1176:	4b 83       	std	Y+3, r20	; 0x03
    1178:	fb ce       	rjmp	.-522    	; 0xf70 <cluster_a_start>
    117a:	6b 83       	std	Y+3, r22	; 0x03
    117c:	f9 ce       	rjmp	.-526    	; 0xf70 <cluster_a_start>
    117e:	0c 83       	std	Y+4, r16	; 0x04
    1180:	f7 ce       	rjmp	.-530    	; 0xf70 <cluster_a_start>
    1182:	2c 83       	std	Y+4, r18	; 0x04
    1184:	f5 ce       	rjmp	.-534    	; 0xf70 <cluster_a_start>
    1186:	4c 83       	std	Y+4, r20	; 0x04
    1188:	f3 ce       	rjmp	.-538    	; 0xf70 <cluster_a_start>
    118a:	6c 83       	std	Y+4, r22	; 0x04
    118c:	f1 ce       	rjmp	.-542    	; 0xf70 <cluster_a_start>
    118e:	0d 83       	std	Y+5, r16	; 0x05
    1190:	ef ce       	rjmp	.-546    	; 0xf70 <cluster_a_start>
    1192:	2d 83       	std	Y+5, r18	; 0x05
    1194:	ed ce       	rjmp	.-550    	; 0xf70 <cluster_a_start>
    1196:	4d 83       	std	Y+5, r20	; 0x05
    1198:	eb ce       	rjmp	.-554    	; 0xf70 <cluster_a_start>
    119a:	6d 83       	std	Y+5, r22	; 0x05
    119c:	e9 ce       	rjmp	.-558    	; 0xf70 <cluster_a_start>
    119e:	0e 83       	std	Y+6, r16	; 0x06
    11a0:	e7 ce       	rjmp	.-562    	; 0xf70 <cluster_a_start>
    11a2:	2e 83       	std	Y+6, r18	; 0x06
    11a4:	e5 ce       	rjmp	.-566    	; 0xf70 <cluster_a_start>
    11a6:	4e 83       	std	Y+6, r20	; 0x06
    11a8:	e3 ce       	rjmp	.-570    	; 0xf70 <cluster_a_start>
    11aa:	6e 83       	std	Y+6, r22	; 0x06
    11ac:	e1 ce       	rjmp	.-574    	; 0xf70 <cluster_a_start>
    11ae:	0f 83       	std	Y+7, r16	; 0x07
    11b0:	df ce       	rjmp	.-578    	; 0xf70 <cluster_a_start>
    11b2:	2f 83       	std	Y+7, r18	; 0x07
    11b4:	dd ce       	rjmp	.-582    	; 0xf70 <cluster_a_start>
    11b6:	4f 83       	std	Y+7, r20	; 0x07
    11b8:	db ce       	rjmp	.-586    	; 0xf70 <cluster_a_start>
    11ba:	6f 83       	std	Y+7, r22	; 0x07
    11bc:	d9 ce       	rjmp	.-590    	; 0xf70 <cluster_a_start>
    11be:	08 87       	std	Y+8, r16	; 0x08
    11c0:	d7 ce       	rjmp	.-594    	; 0xf70 <cluster_a_start>
    11c2:	28 87       	std	Y+8, r18	; 0x08
    11c4:	d5 ce       	rjmp	.-598    	; 0xf70 <cluster_a_start>
    11c6:	48 87       	std	Y+8, r20	; 0x08
    11c8:	d3 ce       	rjmp	.-602    	; 0xf70 <cluster_a_start>
    11ca:	68 87       	std	Y+8, r22	; 0x08
    11cc:	d1 ce       	rjmp	.-606    	; 0xf70 <cluster_a_start>
    11ce:	09 87       	std	Y+9, r16	; 0x09
    11d0:	cf ce       	rjmp	.-610    	; 0xf70 <cluster_a_start>
    11d2:	29 87       	std	Y+9, r18	; 0x09
    11d4:	cd ce       	rjmp	.-614    	; 0xf70 <cluster_a_start>
    11d6:	49 87       	std	Y+9, r20	; 0x09
    11d8:	cb ce       	rjmp	.-618    	; 0xf70 <cluster_a_start>
    11da:	69 87       	std	Y+9, r22	; 0x09
    11dc:	c9 ce       	rjmp	.-622    	; 0xf70 <cluster_a_start>
    11de:	0a 87       	std	Y+10, r16	; 0x0a
    11e0:	c7 ce       	rjmp	.-626    	; 0xf70 <cluster_a_start>
    11e2:	2a 87       	std	Y+10, r18	; 0x0a
    11e4:	c5 ce       	rjmp	.-630    	; 0xf70 <cluster_a_start>
    11e6:	4a 87       	std	Y+10, r20	; 0x0a
    11e8:	c3 ce       	rjmp	.-634    	; 0xf70 <cluster_a_start>
    11ea:	6a 87       	std	Y+10, r22	; 0x0a
    11ec:	c1 ce       	rjmp	.-638    	; 0xf70 <cluster_a_start>
    11ee:	0b 87       	std	Y+11, r16	; 0x0b
    11f0:	bf ce       	rjmp	.-642    	; 0xf70 <cluster_a_start>
    11f2:	2b 87       	std	Y+11, r18	; 0x0b
    11f4:	bd ce       	rjmp	.-646    	; 0xf70 <cluster_a_start>
    11f6:	4b 87       	std	Y+11, r20	; 0x0b
    11f8:	bb ce       	rjmp	.-650    	; 0xf70 <cluster_a_start>
    11fa:	6b 87       	std	Y+11, r22	; 0x0b
    11fc:	b9 ce       	rjmp	.-654    	; 0xf70 <cluster_a_start>
    11fe:	0c 87       	std	Y+12, r16	; 0x0c
    1200:	b7 ce       	rjmp	.-658    	; 0xf70 <cluster_a_start>
    1202:	2c 87       	std	Y+12, r18	; 0x0c
    1204:	b5 ce       	rjmp	.-662    	; 0xf70 <cluster_a_start>
    1206:	4c 87       	std	Y+12, r20	; 0x0c
    1208:	b3 ce       	rjmp	.-666    	; 0xf70 <cluster_a_start>
    120a:	6c 87       	std	Y+12, r22	; 0x0c
    120c:	b1 ce       	rjmp	.-670    	; 0xf70 <cluster_a_start>
    120e:	0d 87       	std	Y+13, r16	; 0x0d
    1210:	af ce       	rjmp	.-674    	; 0xf70 <cluster_a_start>
    1212:	2d 87       	std	Y+13, r18	; 0x0d
    1214:	ad ce       	rjmp	.-678    	; 0xf70 <cluster_a_start>
    1216:	4d 87       	std	Y+13, r20	; 0x0d
    1218:	ab ce       	rjmp	.-682    	; 0xf70 <cluster_a_start>
    121a:	6d 87       	std	Y+13, r22	; 0x0d
    121c:	a9 ce       	rjmp	.-686    	; 0xf70 <cluster_a_start>
    121e:	0e 87       	std	Y+14, r16	; 0x0e
    1220:	a7 ce       	rjmp	.-690    	; 0xf70 <cluster_a_start>
    1222:	2e 87       	std	Y+14, r18	; 0x0e
    1224:	a5 ce       	rjmp	.-694    	; 0xf70 <cluster_a_start>
    1226:	4e 87       	std	Y+14, r20	; 0x0e
    1228:	a3 ce       	rjmp	.-698    	; 0xf70 <cluster_a_start>
    122a:	6e 87       	std	Y+14, r22	; 0x0e
    122c:	a1 ce       	rjmp	.-702    	; 0xf70 <cluster_a_start>
    122e:	0f 87       	std	Y+15, r16	; 0x0f
    1230:	9f ce       	rjmp	.-706    	; 0xf70 <cluster_a_start>
    1232:	2f 87       	std	Y+15, r18	; 0x0f
    1234:	9d ce       	rjmp	.-710    	; 0xf70 <cluster_a_start>
    1236:	4f 87       	std	Y+15, r20	; 0x0f
    1238:	9b ce       	rjmp	.-714    	; 0xf70 <cluster_a_start>
    123a:	6f 87       	std	Y+15, r22	; 0x0f
    123c:	99 ce       	rjmp	.-718    	; 0xf70 <cluster_a_start>
    123e:	99 24       	eor	r9, r9
    1240:	96 ce       	rjmp	.-724    	; 0xf6e <cluster_a_tail_17_delay_2>
    1242:	bb 24       	eor	r11, r11
    1244:	94 ce       	rjmp	.-728    	; 0xf6e <cluster_a_tail_17_delay_2>
    1246:	dd 24       	eor	r13, r13
    1248:	92 ce       	rjmp	.-732    	; 0xf6e <cluster_a_tail_17_delay_2>
    124a:	ff 24       	eor	r15, r15
    124c:	90 ce       	rjmp	.-736    	; 0xf6e <cluster_a_tail_17_delay_2>
    124e:	11 27       	eor	r17, r17
    1250:	8e ce       	rjmp	.-740    	; 0xf6e <cluster_a_tail_17_delay_2>
    1252:	33 27       	eor	r19, r19
    1254:	8c ce       	rjmp	.-744    	; 0xf6e <cluster_a_tail_17_delay_2>
    1256:	55 27       	eor	r21, r21
    1258:	8a ce       	rjmp	.-748    	; 0xf6e <cluster_a_tail_17_delay_2>
    125a:	77 27       	eor	r23, r23
    125c:	88 ce       	rjmp	.-752    	; 0xf6e <cluster_a_tail_17_delay_2>
    125e:	82 94       	swap	r8
    1260:	86 ce       	rjmp	.-756    	; 0xf6e <cluster_a_tail_17_delay_2>
    1262:	a2 94       	swap	r10
    1264:	84 ce       	rjmp	.-760    	; 0xf6e <cluster_a_tail_17_delay_2>
    1266:	c2 94       	swap	r12
    1268:	82 ce       	rjmp	.-764    	; 0xf6e <cluster_a_tail_17_delay_2>
    126a:	e2 94       	swap	r14
    126c:	80 ce       	rjmp	.-768    	; 0xf6e <cluster_a_tail_17_delay_2>
    126e:	02 95       	swap	r16
    1270:	7e ce       	rjmp	.-772    	; 0xf6e <cluster_a_tail_17_delay_2>
    1272:	22 95       	swap	r18
    1274:	7c ce       	rjmp	.-776    	; 0xf6e <cluster_a_tail_17_delay_2>
    1276:	42 95       	swap	r20
    1278:	7a ce       	rjmp	.-780    	; 0xf6e <cluster_a_tail_17_delay_2>
    127a:	62 95       	swap	r22
    127c:	78 ce       	rjmp	.-784    	; 0xf6e <cluster_a_tail_17_delay_2>
    127e:	4e 01       	movw	r8, r28
    1280:	76 ce       	rjmp	.-788    	; 0xf6e <cluster_a_tail_17_delay_2>
    1282:	5e 01       	movw	r10, r28
    1284:	74 ce       	rjmp	.-792    	; 0xf6e <cluster_a_tail_17_delay_2>
    1286:	6e 01       	movw	r12, r28
    1288:	72 ce       	rjmp	.-796    	; 0xf6e <cluster_a_tail_17_delay_2>
    128a:	7e 01       	movw	r14, r28
    128c:	70 ce       	rjmp	.-800    	; 0xf6e <cluster_a_tail_17_delay_2>
    128e:	8e 01       	movw	r16, r28
    1290:	6e ce       	rjmp	.-804    	; 0xf6e <cluster_a_tail_17_delay_2>
    1292:	9e 01       	movw	r18, r28
    1294:	6c ce       	rjmp	.-808    	; 0xf6e <cluster_a_tail_17_delay_2>
    1296:	ae 01       	movw	r20, r28
    1298:	6a ce       	rjmp	.-812    	; 0xf6e <cluster_a_tail_17_delay_2>
    129a:	be 01       	movw	r22, r28
    129c:	68 ce       	rjmp	.-816    	; 0xf6e <cluster_a_tail_17_delay_2>
    129e:	e4 01       	movw	r28, r8
    12a0:	66 ce       	rjmp	.-820    	; 0xf6e <cluster_a_tail_17_delay_2>
    12a2:	e5 01       	movw	r28, r10
    12a4:	64 ce       	rjmp	.-824    	; 0xf6e <cluster_a_tail_17_delay_2>
    12a6:	e6 01       	movw	r28, r12
    12a8:	62 ce       	rjmp	.-828    	; 0xf6e <cluster_a_tail_17_delay_2>
    12aa:	e7 01       	movw	r28, r14
    12ac:	60 ce       	rjmp	.-832    	; 0xf6e <cluster_a_tail_17_delay_2>
    12ae:	e8 01       	movw	r28, r16
    12b0:	5e ce       	rjmp	.-836    	; 0xf6e <cluster_a_tail_17_delay_2>
    12b2:	e9 01       	movw	r28, r18
    12b4:	5c ce       	rjmp	.-840    	; 0xf6e <cluster_a_tail_17_delay_2>
    12b6:	ea 01       	movw	r28, r20
    12b8:	5a ce       	rjmp	.-844    	; 0xf6e <cluster_a_tail_17_delay_2>
    12ba:	eb 01       	movw	r28, r22
    12bc:	58 ce       	rjmp	.-848    	; 0xf6e <cluster_a_tail_17_delay_2>

000012be <f1_table_end>:
    12be:	88 0c       	add	r8, r8
    12c0:	99 1c       	adc	r9, r9
    12c2:	56 ce       	rjmp	.-852    	; 0xf70 <cluster_a_start>
    12c4:	8a 0c       	add	r8, r10
    12c6:	9b 1c       	adc	r9, r11
    12c8:	53 ce       	rjmp	.-858    	; 0xf70 <cluster_a_start>
    12ca:	8c 0c       	add	r8, r12
    12cc:	9d 1c       	adc	r9, r13
    12ce:	50 ce       	rjmp	.-864    	; 0xf70 <cluster_a_start>
    12d0:	8e 0c       	add	r8, r14
    12d2:	9f 1c       	adc	r9, r15
    12d4:	4d ce       	rjmp	.-870    	; 0xf70 <cluster_a_start>
    12d6:	80 0e       	add	r8, r16
    12d8:	91 1e       	adc	r9, r17
    12da:	4a ce       	rjmp	.-876    	; 0xf70 <cluster_a_start>
    12dc:	82 0e       	add	r8, r18
    12de:	93 1e       	adc	r9, r19
    12e0:	47 ce       	rjmp	.-882    	; 0xf70 <cluster_a_start>
    12e2:	84 0e       	add	r8, r20
    12e4:	95 1e       	adc	r9, r21
    12e6:	44 ce       	rjmp	.-888    	; 0xf70 <cluster_a_start>
    12e8:	86 0e       	add	r8, r22
    12ea:	97 1e       	adc	r9, r23
    12ec:	41 ce       	rjmp	.-894    	; 0xf70 <cluster_a_start>
    12ee:	a8 0c       	add	r10, r8
    12f0:	b9 1c       	adc	r11, r9
    12f2:	3e ce       	rjmp	.-900    	; 0xf70 <cluster_a_start>
    12f4:	aa 0c       	add	r10, r10
    12f6:	bb 1c       	adc	r11, r11
    12f8:	3b ce       	rjmp	.-906    	; 0xf70 <cluster_a_start>
    12fa:	ac 0c       	add	r10, r12
    12fc:	bd 1c       	adc	r11, r13
    12fe:	38 ce       	rjmp	.-912    	; 0xf70 <cluster_a_start>
    1300:	ae 0c       	add	r10, r14
    1302:	bf 1c       	adc	r11, r15
    1304:	35 ce       	rjmp	.-918    	; 0xf70 <cluster_a_start>
    1306:	a0 0e       	add	r10, r16
    1308:	b1 1e       	adc	r11, r17
    130a:	32 ce       	rjmp	.-924    	; 0xf70 <cluster_a_start>
    130c:	a2 0e       	add	r10, r18
    130e:	b3 1e       	adc	r11, r19
    1310:	2f ce       	rjmp	.-930    	; 0xf70 <cluster_a_start>
    1312:	a4 0e       	add	r10, r20
    1314:	b5 1e       	adc	r11, r21
    1316:	2c ce       	rjmp	.-936    	; 0xf70 <cluster_a_start>
    1318:	a6 0e       	add	r10, r22
    131a:	b7 1e       	adc	r11, r23
    131c:	29 ce       	rjmp	.-942    	; 0xf70 <cluster_a_start>
    131e:	c8 0c       	add	r12, r8
    1320:	d9 1c       	adc	r13, r9
    1322:	26 ce       	rjmp	.-948    	; 0xf70 <cluster_a_start>
    1324:	ca 0c       	add	r12, r10
    1326:	db 1c       	adc	r13, r11
    1328:	23 ce       	rjmp	.-954    	; 0xf70 <cluster_a_start>
    132a:	cc 0c       	add	r12, r12
    132c:	dd 1c       	adc	r13, r13
    132e:	20 ce       	rjmp	.-960    	; 0xf70 <cluster_a_start>
    1330:	ce 0c       	add	r12, r14
    1332:	df 1c       	adc	r13, r15
    1334:	1d ce       	rjmp	.-966    	; 0xf70 <cluster_a_start>
    1336:	c0 0e       	add	r12, r16
    1338:	d1 1e       	adc	r13, r17
    133a:	1a ce       	rjmp	.-972    	; 0xf70 <cluster_a_start>
    133c:	c2 0e       	add	r12, r18
    133e:	d3 1e       	adc	r13, r19
    1340:	17 ce       	rjmp	.-978    	; 0xf70 <cluster_a_start>
    1342:	c4 0e       	add	r12, r20
    1344:	d5 1e       	adc	r13, r21
    1346:	14 ce       	rjmp	.-984    	; 0xf70 <cluster_a_start>
    1348:	c6 0e       	add	r12, r22
    134a:	d7 1e       	adc	r13, r23
    134c:	11 ce       	rjmp	.-990    	; 0xf70 <cluster_a_start>
    134e:	e8 0c       	add	r14, r8
    1350:	f9 1c       	adc	r15, r9
    1352:	0e ce       	rjmp	.-996    	; 0xf70 <cluster_a_start>
    1354:	ea 0c       	add	r14, r10
    1356:	fb 1c       	adc	r15, r11
    1358:	0b ce       	rjmp	.-1002   	; 0xf70 <cluster_a_start>
    135a:	ec 0c       	add	r14, r12
    135c:	fd 1c       	adc	r15, r13
    135e:	08 ce       	rjmp	.-1008   	; 0xf70 <cluster_a_start>
    1360:	ee 0c       	add	r14, r14
    1362:	ff 1c       	adc	r15, r15
    1364:	05 ce       	rjmp	.-1014   	; 0xf70 <cluster_a_start>
    1366:	e0 0e       	add	r14, r16
    1368:	f1 1e       	adc	r15, r17
    136a:	02 ce       	rjmp	.-1020   	; 0xf70 <cluster_a_start>
    136c:	e2 0e       	add	r14, r18
    136e:	f3 1e       	adc	r15, r19
    1370:	ff cd       	rjmp	.-1026   	; 0xf70 <cluster_a_start>
    1372:	e4 0e       	add	r14, r20
    1374:	f5 1e       	adc	r15, r21
    1376:	fc cd       	rjmp	.-1032   	; 0xf70 <cluster_a_start>
    1378:	e6 0e       	add	r14, r22
    137a:	f7 1e       	adc	r15, r23
    137c:	f9 cd       	rjmp	.-1038   	; 0xf70 <cluster_a_start>
    137e:	08 0d       	add	r16, r8
    1380:	19 1d       	adc	r17, r9
    1382:	f6 cd       	rjmp	.-1044   	; 0xf70 <cluster_a_start>
    1384:	0a 0d       	add	r16, r10
    1386:	1b 1d       	adc	r17, r11
    1388:	f3 cd       	rjmp	.-1050   	; 0xf70 <cluster_a_start>
    138a:	0c 0d       	add	r16, r12
    138c:	1d 1d       	adc	r17, r13
    138e:	f0 cd       	rjmp	.-1056   	; 0xf70 <cluster_a_start>
    1390:	0e 0d       	add	r16, r14
    1392:	1f 1d       	adc	r17, r15
    1394:	ed cd       	rjmp	.-1062   	; 0xf70 <cluster_a_start>
    1396:	28 0d       	add	r18, r8
    1398:	39 1d       	adc	r19, r9
    139a:	ea cd       	rjmp	.-1068   	; 0xf70 <cluster_a_start>
    139c:	2a 0d       	add	r18, r10
    139e:	3b 1d       	adc	r19, r11
    13a0:	e7 cd       	rjmp	.-1074   	; 0xf70 <cluster_a_start>
    13a2:	2c 0d       	add	r18, r12
    13a4:	3d 1d       	adc	r19, r13
    13a6:	e4 cd       	rjmp	.-1080   	; 0xf70 <cluster_a_start>
    13a8:	2e 0d       	add	r18, r14
    13aa:	3f 1d       	adc	r19, r15
    13ac:	e1 cd       	rjmp	.-1086   	; 0xf70 <cluster_a_start>
    13ae:	48 0d       	add	r20, r8
    13b0:	59 1d       	adc	r21, r9
    13b2:	de cd       	rjmp	.-1092   	; 0xf70 <cluster_a_start>
    13b4:	4a 0d       	add	r20, r10
    13b6:	5b 1d       	adc	r21, r11
    13b8:	db cd       	rjmp	.-1098   	; 0xf70 <cluster_a_start>
    13ba:	4c 0d       	add	r20, r12
    13bc:	5d 1d       	adc	r21, r13
    13be:	d8 cd       	rjmp	.-1104   	; 0xf70 <cluster_a_start>
    13c0:	4e 0d       	add	r20, r14
    13c2:	5f 1d       	adc	r21, r15
    13c4:	d5 cd       	rjmp	.-1110   	; 0xf70 <cluster_a_start>
    13c6:	68 0d       	add	r22, r8
    13c8:	79 1d       	adc	r23, r9
    13ca:	d2 cd       	rjmp	.-1116   	; 0xf70 <cluster_a_start>
    13cc:	6a 0d       	add	r22, r10
    13ce:	7b 1d       	adc	r23, r11
    13d0:	cf cd       	rjmp	.-1122   	; 0xf70 <cluster_a_start>
    13d2:	6c 0d       	add	r22, r12
    13d4:	7d 1d       	adc	r23, r13
    13d6:	cc cd       	rjmp	.-1128   	; 0xf70 <cluster_a_start>
    13d8:	6e 0d       	add	r22, r14
    13da:	7f 1d       	adc	r23, r15
    13dc:	c9 cd       	rjmp	.-1134   	; 0xf70 <cluster_a_start>
    13de:	88 18       	sub	r8, r8
    13e0:	99 08       	sbc	r9, r9
    13e2:	c6 cd       	rjmp	.-1140   	; 0xf70 <cluster_a_start>
    13e4:	8a 18       	sub	r8, r10
    13e6:	9b 08       	sbc	r9, r11
    13e8:	c3 cd       	rjmp	.-1146   	; 0xf70 <cluster_a_start>
    13ea:	8c 18       	sub	r8, r12
    13ec:	9d 08       	sbc	r9, r13
    13ee:	c0 cd       	rjmp	.-1152   	; 0xf70 <cluster_a_start>
    13f0:	8e 18       	sub	r8, r14
    13f2:	9f 08       	sbc	r9, r15
    13f4:	bd cd       	rjmp	.-1158   	; 0xf70 <cluster_a_start>
    13f6:	80 1a       	sub	r8, r16
    13f8:	91 0a       	sbc	r9, r17
    13fa:	ba cd       	rjmp	.-1164   	; 0xf70 <cluster_a_start>
    13fc:	82 1a       	sub	r8, r18
    13fe:	93 0a       	sbc	r9, r19
    1400:	b7 cd       	rjmp	.-1170   	; 0xf70 <cluster_a_start>
    1402:	84 1a       	sub	r8, r20
    1404:	95 0a       	sbc	r9, r21
    1406:	b4 cd       	rjmp	.-1176   	; 0xf70 <cluster_a_start>
    1408:	86 1a       	sub	r8, r22
    140a:	97 0a       	sbc	r9, r23
    140c:	b1 cd       	rjmp	.-1182   	; 0xf70 <cluster_a_start>
    140e:	a8 18       	sub	r10, r8
    1410:	b9 08       	sbc	r11, r9
    1412:	ae cd       	rjmp	.-1188   	; 0xf70 <cluster_a_start>
    1414:	aa 18       	sub	r10, r10
    1416:	bb 08       	sbc	r11, r11
    1418:	ab cd       	rjmp	.-1194   	; 0xf70 <cluster_a_start>
    141a:	ac 18       	sub	r10, r12
    141c:	bd 08       	sbc	r11, r13
    141e:	a8 cd       	rjmp	.-1200   	; 0xf70 <cluster_a_start>
    1420:	ae 18       	sub	r10, r14
    1422:	bf 08       	sbc	r11, r15
    1424:	a5 cd       	rjmp	.-1206   	; 0xf70 <cluster_a_start>
    1426:	a0 1a       	sub	r10, r16
    1428:	b1 0a       	sbc	r11, r17
    142a:	a2 cd       	rjmp	.-1212   	; 0xf70 <cluster_a_start>
    142c:	a2 1a       	sub	r10, r18
    142e:	b3 0a       	sbc	r11, r19
    1430:	9f cd       	rjmp	.-1218   	; 0xf70 <cluster_a_start>
    1432:	a4 1a       	sub	r10, r20
    1434:	b5 0a       	sbc	r11, r21
    1436:	9c cd       	rjmp	.-1224   	; 0xf70 <cluster_a_start>
    1438:	a6 1a       	sub	r10, r22
    143a:	b7 0a       	sbc	r11, r23
    143c:	99 cd       	rjmp	.-1230   	; 0xf70 <cluster_a_start>
    143e:	c8 18       	sub	r12, r8
    1440:	d9 08       	sbc	r13, r9
    1442:	96 cd       	rjmp	.-1236   	; 0xf70 <cluster_a_start>
    1444:	ca 18       	sub	r12, r10
    1446:	db 08       	sbc	r13, r11
    1448:	93 cd       	rjmp	.-1242   	; 0xf70 <cluster_a_start>
    144a:	cc 18       	sub	r12, r12
    144c:	dd 08       	sbc	r13, r13
    144e:	90 cd       	rjmp	.-1248   	; 0xf70 <cluster_a_start>
    1450:	ce 18       	sub	r12, r14
    1452:	df 08       	sbc	r13, r15
    1454:	8d cd       	rjmp	.-1254   	; 0xf70 <cluster_a_start>
    1456:	c0 1a       	sub	r12, r16
    1458:	d1 0a       	sbc	r13, r17
    145a:	8a cd       	rjmp	.-1260   	; 0xf70 <cluster_a_start>
    145c:	c2 1a       	sub	r12, r18
    145e:	d3 0a       	sbc	r13, r19
    1460:	87 cd       	rjmp	.-1266   	; 0xf70 <cluster_a_start>
    1462:	c4 1a       	sub	r12, r20
    1464:	d5 0a       	sbc	r13, r21
    1466:	84 cd       	rjmp	.-1272   	; 0xf70 <cluster_a_start>
    1468:	c6 1a       	sub	r12, r22
    146a:	d7 0a       	sbc	r13, r23
    146c:	81 cd       	rjmp	.-1278   	; 0xf70 <cluster_a_start>
    146e:	e8 18       	sub	r14, r8
    1470:	f9 08       	sbc	r15, r9
    1472:	7e cd       	rjmp	.-1284   	; 0xf70 <cluster_a_start>
    1474:	ea 18       	sub	r14, r10
    1476:	fb 08       	sbc	r15, r11
    1478:	7b cd       	rjmp	.-1290   	; 0xf70 <cluster_a_start>
    147a:	ec 18       	sub	r14, r12
    147c:	fd 08       	sbc	r15, r13
    147e:	78 cd       	rjmp	.-1296   	; 0xf70 <cluster_a_start>
    1480:	ee 18       	sub	r14, r14
    1482:	ff 08       	sbc	r15, r15
    1484:	75 cd       	rjmp	.-1302   	; 0xf70 <cluster_a_start>
    1486:	e0 1a       	sub	r14, r16
    1488:	f1 0a       	sbc	r15, r17
    148a:	72 cd       	rjmp	.-1308   	; 0xf70 <cluster_a_start>
    148c:	e2 1a       	sub	r14, r18
    148e:	f3 0a       	sbc	r15, r19
    1490:	6f cd       	rjmp	.-1314   	; 0xf70 <cluster_a_start>
    1492:	e4 1a       	sub	r14, r20
    1494:	f5 0a       	sbc	r15, r21
    1496:	6c cd       	rjmp	.-1320   	; 0xf70 <cluster_a_start>
    1498:	e6 1a       	sub	r14, r22
    149a:	f7 0a       	sbc	r15, r23
    149c:	69 cd       	rjmp	.-1326   	; 0xf70 <cluster_a_start>
    149e:	08 19       	sub	r16, r8
    14a0:	19 09       	sbc	r17, r9
    14a2:	66 cd       	rjmp	.-1332   	; 0xf70 <cluster_a_start>
    14a4:	0a 19       	sub	r16, r10
    14a6:	1b 09       	sbc	r17, r11
    14a8:	63 cd       	rjmp	.-1338   	; 0xf70 <cluster_a_start>
    14aa:	0c 19       	sub	r16, r12
    14ac:	1d 09       	sbc	r17, r13
    14ae:	60 cd       	rjmp	.-1344   	; 0xf70 <cluster_a_start>
    14b0:	0e 19       	sub	r16, r14
    14b2:	1f 09       	sbc	r17, r15
    14b4:	5d cd       	rjmp	.-1350   	; 0xf70 <cluster_a_start>
    14b6:	28 19       	sub	r18, r8
    14b8:	39 09       	sbc	r19, r9
    14ba:	5a cd       	rjmp	.-1356   	; 0xf70 <cluster_a_start>
    14bc:	2a 19       	sub	r18, r10
    14be:	3b 09       	sbc	r19, r11
    14c0:	57 cd       	rjmp	.-1362   	; 0xf70 <cluster_a_start>
    14c2:	2c 19       	sub	r18, r12
    14c4:	3d 09       	sbc	r19, r13
    14c6:	54 cd       	rjmp	.-1368   	; 0xf70 <cluster_a_start>
    14c8:	2e 19       	sub	r18, r14
    14ca:	3f 09       	sbc	r19, r15
    14cc:	51 cd       	rjmp	.-1374   	; 0xf70 <cluster_a_start>
    14ce:	48 19       	sub	r20, r8
    14d0:	59 09       	sbc	r21, r9
    14d2:	4e cd       	rjmp	.-1380   	; 0xf70 <cluster_a_start>
    14d4:	4a 19       	sub	r20, r10
    14d6:	5b 09       	sbc	r21, r11
    14d8:	4b cd       	rjmp	.-1386   	; 0xf70 <cluster_a_start>
    14da:	4c 19       	sub	r20, r12
    14dc:	5d 09       	sbc	r21, r13
    14de:	48 cd       	rjmp	.-1392   	; 0xf70 <cluster_a_start>
    14e0:	4e 19       	sub	r20, r14
    14e2:	5f 09       	sbc	r21, r15
    14e4:	45 cd       	rjmp	.-1398   	; 0xf70 <cluster_a_start>
    14e6:	68 19       	sub	r22, r8
    14e8:	79 09       	sbc	r23, r9
    14ea:	42 cd       	rjmp	.-1404   	; 0xf70 <cluster_a_start>
    14ec:	6a 19       	sub	r22, r10
    14ee:	7b 09       	sbc	r23, r11
    14f0:	3f cd       	rjmp	.-1410   	; 0xf70 <cluster_a_start>
    14f2:	6c 19       	sub	r22, r12
    14f4:	7d 09       	sbc	r23, r13
    14f6:	3c cd       	rjmp	.-1416   	; 0xf70 <cluster_a_start>
    14f8:	6e 19       	sub	r22, r14
    14fa:	7f 09       	sbc	r23, r15
    14fc:	39 cd       	rjmp	.-1422   	; 0xf70 <cluster_a_start>

000014fe <f2_table_end>:
    14fe:	d8 01       	movw	r26, r16
    1500:	8c 92       	st	X, r8
    1502:	42 cd       	rjmp	.-1404   	; 0xf88 <cluster_a_tail_18_delay_2>
    1504:	d8 01       	movw	r26, r16
    1506:	ac 92       	st	X, r10
    1508:	3f cd       	rjmp	.-1410   	; 0xf88 <cluster_a_tail_18_delay_2>
    150a:	d8 01       	movw	r26, r16
    150c:	cc 92       	st	X, r12
    150e:	3c cd       	rjmp	.-1416   	; 0xf88 <cluster_a_tail_18_delay_2>
    1510:	d8 01       	movw	r26, r16
    1512:	ec 92       	st	X, r14
    1514:	39 cd       	rjmp	.-1422   	; 0xf88 <cluster_a_tail_18_delay_2>
    1516:	d9 01       	movw	r26, r18
    1518:	8c 92       	st	X, r8
    151a:	36 cd       	rjmp	.-1428   	; 0xf88 <cluster_a_tail_18_delay_2>
    151c:	d9 01       	movw	r26, r18
    151e:	ac 92       	st	X, r10
    1520:	33 cd       	rjmp	.-1434   	; 0xf88 <cluster_a_tail_18_delay_2>
    1522:	d9 01       	movw	r26, r18
    1524:	cc 92       	st	X, r12
    1526:	30 cd       	rjmp	.-1440   	; 0xf88 <cluster_a_tail_18_delay_2>
    1528:	d9 01       	movw	r26, r18
    152a:	ec 92       	st	X, r14
    152c:	2d cd       	rjmp	.-1446   	; 0xf88 <cluster_a_tail_18_delay_2>
    152e:	da 01       	movw	r26, r20
    1530:	8c 92       	st	X, r8
    1532:	2a cd       	rjmp	.-1452   	; 0xf88 <cluster_a_tail_18_delay_2>
    1534:	da 01       	movw	r26, r20
    1536:	ac 92       	st	X, r10
    1538:	27 cd       	rjmp	.-1458   	; 0xf88 <cluster_a_tail_18_delay_2>
    153a:	da 01       	movw	r26, r20
    153c:	cc 92       	st	X, r12
    153e:	24 cd       	rjmp	.-1464   	; 0xf88 <cluster_a_tail_18_delay_2>
    1540:	da 01       	movw	r26, r20
    1542:	ec 92       	st	X, r14
    1544:	21 cd       	rjmp	.-1470   	; 0xf88 <cluster_a_tail_18_delay_2>
    1546:	db 01       	movw	r26, r22
    1548:	8c 92       	st	X, r8
    154a:	1e cd       	rjmp	.-1476   	; 0xf88 <cluster_a_tail_18_delay_2>
    154c:	db 01       	movw	r26, r22
    154e:	ac 92       	st	X, r10
    1550:	1b cd       	rjmp	.-1482   	; 0xf88 <cluster_a_tail_18_delay_2>
    1552:	db 01       	movw	r26, r22
    1554:	cc 92       	st	X, r12
    1556:	18 cd       	rjmp	.-1488   	; 0xf88 <cluster_a_tail_18_delay_2>
    1558:	db 01       	movw	r26, r22
    155a:	ec 92       	st	X, r14
    155c:	15 cd       	rjmp	.-1494   	; 0xf88 <cluster_a_tail_18_delay_2>
    155e:	00 9f       	mul	r16, r16
    1560:	80 01       	movw	r16, r0
    1562:	12 cd       	rjmp	.-1500   	; 0xf88 <cluster_a_tail_18_delay_2>
    1564:	02 9f       	mul	r16, r18
    1566:	80 01       	movw	r16, r0
    1568:	0f cd       	rjmp	.-1506   	; 0xf88 <cluster_a_tail_18_delay_2>
    156a:	04 9f       	mul	r16, r20
    156c:	80 01       	movw	r16, r0
    156e:	0c cd       	rjmp	.-1512   	; 0xf88 <cluster_a_tail_18_delay_2>
    1570:	06 9f       	mul	r16, r22
    1572:	80 01       	movw	r16, r0
    1574:	09 cd       	rjmp	.-1518   	; 0xf88 <cluster_a_tail_18_delay_2>
    1576:	20 9f       	mul	r18, r16
    1578:	90 01       	movw	r18, r0
    157a:	06 cd       	rjmp	.-1524   	; 0xf88 <cluster_a_tail_18_delay_2>
    157c:	22 9f       	mul	r18, r18
    157e:	90 01       	movw	r18, r0
    1580:	03 cd       	rjmp	.-1530   	; 0xf88 <cluster_a_tail_18_delay_2>
    1582:	24 9f       	mul	r18, r20
    1584:	90 01       	movw	r18, r0
    1586:	00 cd       	rjmp	.-1536   	; 0xf88 <cluster_a_tail_18_delay_2>
    1588:	26 9f       	mul	r18, r22
    158a:	90 01       	movw	r18, r0
    158c:	fd cc       	rjmp	.-1542   	; 0xf88 <cluster_a_tail_18_delay_2>
    158e:	40 9f       	mul	r20, r16
    1590:	a0 01       	movw	r20, r0
    1592:	fa cc       	rjmp	.-1548   	; 0xf88 <cluster_a_tail_18_delay_2>
    1594:	42 9f       	mul	r20, r18
    1596:	a0 01       	movw	r20, r0
    1598:	f7 cc       	rjmp	.-1554   	; 0xf88 <cluster_a_tail_18_delay_2>
    159a:	44 9f       	mul	r20, r20
    159c:	a0 01       	movw	r20, r0
    159e:	f4 cc       	rjmp	.-1560   	; 0xf88 <cluster_a_tail_18_delay_2>
    15a0:	46 9f       	mul	r20, r22
    15a2:	a0 01       	movw	r20, r0
    15a4:	f1 cc       	rjmp	.-1566   	; 0xf88 <cluster_a_tail_18_delay_2>
    15a6:	60 9f       	mul	r22, r16
    15a8:	b0 01       	movw	r22, r0
    15aa:	ee cc       	rjmp	.-1572   	; 0xf88 <cluster_a_tail_18_delay_2>
    15ac:	62 9f       	mul	r22, r18
    15ae:	b0 01       	movw	r22, r0
    15b0:	eb cc       	rjmp	.-1578   	; 0xf88 <cluster_a_tail_18_delay_2>
    15b2:	64 9f       	mul	r22, r20
    15b4:	b0 01       	movw	r22, r0
    15b6:	e8 cc       	rjmp	.-1584   	; 0xf88 <cluster_a_tail_18_delay_2>
    15b8:	66 9f       	mul	r22, r22
    15ba:	b0 01       	movw	r22, r0
    15bc:	e5 cc       	rjmp	.-1590   	; 0xf88 <cluster_a_tail_18_delay_2>
    15be:	00 02       	muls	r16, r16
    15c0:	80 01       	movw	r16, r0
    15c2:	e2 cc       	rjmp	.-1596   	; 0xf88 <cluster_a_tail_18_delay_2>
    15c4:	02 02       	muls	r16, r18
    15c6:	80 01       	movw	r16, r0
    15c8:	df cc       	rjmp	.-1602   	; 0xf88 <cluster_a_tail_18_delay_2>
    15ca:	04 02       	muls	r16, r20
    15cc:	80 01       	movw	r16, r0
    15ce:	dc cc       	rjmp	.-1608   	; 0xf88 <cluster_a_tail_18_delay_2>
    15d0:	06 02       	muls	r16, r22
    15d2:	80 01       	movw	r16, r0
    15d4:	d9 cc       	rjmp	.-1614   	; 0xf88 <cluster_a_tail_18_delay_2>
    15d6:	20 02       	muls	r18, r16
    15d8:	90 01       	movw	r18, r0
    15da:	d6 cc       	rjmp	.-1620   	; 0xf88 <cluster_a_tail_18_delay_2>
    15dc:	22 02       	muls	r18, r18
    15de:	90 01       	movw	r18, r0
    15e0:	d3 cc       	rjmp	.-1626   	; 0xf88 <cluster_a_tail_18_delay_2>
    15e2:	24 02       	muls	r18, r20
    15e4:	90 01       	movw	r18, r0
    15e6:	d0 cc       	rjmp	.-1632   	; 0xf88 <cluster_a_tail_18_delay_2>
    15e8:	26 02       	muls	r18, r22
    15ea:	90 01       	movw	r18, r0
    15ec:	cd cc       	rjmp	.-1638   	; 0xf88 <cluster_a_tail_18_delay_2>
    15ee:	40 02       	muls	r20, r16
    15f0:	a0 01       	movw	r20, r0
    15f2:	ca cc       	rjmp	.-1644   	; 0xf88 <cluster_a_tail_18_delay_2>
    15f4:	42 02       	muls	r20, r18
    15f6:	a0 01       	movw	r20, r0
    15f8:	c7 cc       	rjmp	.-1650   	; 0xf88 <cluster_a_tail_18_delay_2>
    15fa:	44 02       	muls	r20, r20
    15fc:	a0 01       	movw	r20, r0
    15fe:	c4 cc       	rjmp	.-1656   	; 0xf88 <cluster_a_tail_18_delay_2>
    1600:	46 02       	muls	r20, r22
    1602:	a0 01       	movw	r20, r0
    1604:	c1 cc       	rjmp	.-1662   	; 0xf88 <cluster_a_tail_18_delay_2>
    1606:	60 02       	muls	r22, r16
    1608:	b0 01       	movw	r22, r0
    160a:	be cc       	rjmp	.-1668   	; 0xf88 <cluster_a_tail_18_delay_2>
    160c:	62 02       	muls	r22, r18
    160e:	b0 01       	movw	r22, r0
    1610:	bb cc       	rjmp	.-1674   	; 0xf88 <cluster_a_tail_18_delay_2>
    1612:	64 02       	muls	r22, r20
    1614:	b0 01       	movw	r22, r0
    1616:	b8 cc       	rjmp	.-1680   	; 0xf88 <cluster_a_tail_18_delay_2>
    1618:	66 02       	muls	r22, r22
    161a:	b0 01       	movw	r22, r0
    161c:	b5 cc       	rjmp	.-1686   	; 0xf88 <cluster_a_tail_18_delay_2>
    161e:	00 03       	mulsu	r16, r16
    1620:	80 01       	movw	r16, r0
    1622:	b2 cc       	rjmp	.-1692   	; 0xf88 <cluster_a_tail_18_delay_2>
    1624:	02 03       	mulsu	r16, r18
    1626:	80 01       	movw	r16, r0
    1628:	af cc       	rjmp	.-1698   	; 0xf88 <cluster_a_tail_18_delay_2>
    162a:	04 03       	mulsu	r16, r20
    162c:	80 01       	movw	r16, r0
    162e:	ac cc       	rjmp	.-1704   	; 0xf88 <cluster_a_tail_18_delay_2>
    1630:	06 03       	mulsu	r16, r22
    1632:	80 01       	movw	r16, r0
    1634:	a9 cc       	rjmp	.-1710   	; 0xf88 <cluster_a_tail_18_delay_2>
    1636:	20 03       	mulsu	r18, r16
    1638:	90 01       	movw	r18, r0
    163a:	a6 cc       	rjmp	.-1716   	; 0xf88 <cluster_a_tail_18_delay_2>
    163c:	22 03       	mulsu	r18, r18
    163e:	90 01       	movw	r18, r0
    1640:	a3 cc       	rjmp	.-1722   	; 0xf88 <cluster_a_tail_18_delay_2>
    1642:	24 03       	mulsu	r18, r20
    1644:	90 01       	movw	r18, r0
    1646:	a0 cc       	rjmp	.-1728   	; 0xf88 <cluster_a_tail_18_delay_2>
    1648:	26 03       	mulsu	r18, r22
    164a:	90 01       	movw	r18, r0
    164c:	9d cc       	rjmp	.-1734   	; 0xf88 <cluster_a_tail_18_delay_2>
    164e:	40 03       	mulsu	r20, r16
    1650:	a0 01       	movw	r20, r0
    1652:	9a cc       	rjmp	.-1740   	; 0xf88 <cluster_a_tail_18_delay_2>
    1654:	42 03       	mulsu	r20, r18
    1656:	a0 01       	movw	r20, r0
    1658:	97 cc       	rjmp	.-1746   	; 0xf88 <cluster_a_tail_18_delay_2>
    165a:	44 03       	mulsu	r20, r20
    165c:	a0 01       	movw	r20, r0
    165e:	94 cc       	rjmp	.-1752   	; 0xf88 <cluster_a_tail_18_delay_2>
    1660:	46 03       	mulsu	r20, r22
    1662:	a0 01       	movw	r20, r0
    1664:	91 cc       	rjmp	.-1758   	; 0xf88 <cluster_a_tail_18_delay_2>
    1666:	60 03       	mulsu	r22, r16
    1668:	b0 01       	movw	r22, r0
    166a:	8e cc       	rjmp	.-1764   	; 0xf88 <cluster_a_tail_18_delay_2>
    166c:	62 03       	mulsu	r22, r18
    166e:	b0 01       	movw	r22, r0
    1670:	8b cc       	rjmp	.-1770   	; 0xf88 <cluster_a_tail_18_delay_2>
    1672:	64 03       	mulsu	r22, r20
    1674:	b0 01       	movw	r22, r0
    1676:	88 cc       	rjmp	.-1776   	; 0xf88 <cluster_a_tail_18_delay_2>
    1678:	66 03       	mulsu	r22, r22
    167a:	b0 01       	movw	r22, r0
    167c:	85 cc       	rjmp	.-1782   	; 0xf88 <cluster_a_tail_18_delay_2>
    167e:	08 81       	ld	r16, Y
    1680:	11 27       	eor	r17, r17
    1682:	82 cc       	rjmp	.-1788   	; 0xf88 <cluster_a_tail_18_delay_2>
    1684:	28 81       	ld	r18, Y
    1686:	33 27       	eor	r19, r19
    1688:	7f cc       	rjmp	.-1794   	; 0xf88 <cluster_a_tail_18_delay_2>
    168a:	48 81       	ld	r20, Y
    168c:	55 27       	eor	r21, r21
    168e:	7c cc       	rjmp	.-1800   	; 0xf88 <cluster_a_tail_18_delay_2>
    1690:	68 81       	ld	r22, Y
    1692:	77 27       	eor	r23, r23
    1694:	79 cc       	rjmp	.-1806   	; 0xf88 <cluster_a_tail_18_delay_2>
    1696:	09 81       	ldd	r16, Y+1	; 0x01
    1698:	11 27       	eor	r17, r17
    169a:	76 cc       	rjmp	.-1812   	; 0xf88 <cluster_a_tail_18_delay_2>
    169c:	29 81       	ldd	r18, Y+1	; 0x01
    169e:	33 27       	eor	r19, r19
    16a0:	73 cc       	rjmp	.-1818   	; 0xf88 <cluster_a_tail_18_delay_2>
    16a2:	49 81       	ldd	r20, Y+1	; 0x01
    16a4:	55 27       	eor	r21, r21
    16a6:	70 cc       	rjmp	.-1824   	; 0xf88 <cluster_a_tail_18_delay_2>
    16a8:	69 81       	ldd	r22, Y+1	; 0x01
    16aa:	77 27       	eor	r23, r23
    16ac:	6d cc       	rjmp	.-1830   	; 0xf88 <cluster_a_tail_18_delay_2>
    16ae:	0a 81       	ldd	r16, Y+2	; 0x02
    16b0:	11 27       	eor	r17, r17
    16b2:	6a cc       	rjmp	.-1836   	; 0xf88 <cluster_a_tail_18_delay_2>
    16b4:	2a 81       	ldd	r18, Y+2	; 0x02
    16b6:	33 27       	eor	r19, r19
    16b8:	67 cc       	rjmp	.-1842   	; 0xf88 <cluster_a_tail_18_delay_2>
    16ba:	4a 81       	ldd	r20, Y+2	; 0x02
    16bc:	55 27       	eor	r21, r21
    16be:	64 cc       	rjmp	.-1848   	; 0xf88 <cluster_a_tail_18_delay_2>
    16c0:	6a 81       	ldd	r22, Y+2	; 0x02
    16c2:	77 27       	eor	r23, r23
    16c4:	61 cc       	rjmp	.-1854   	; 0xf88 <cluster_a_tail_18_delay_2>
    16c6:	0b 81       	ldd	r16, Y+3	; 0x03
    16c8:	11 27       	eor	r17, r17
    16ca:	5e cc       	rjmp	.-1860   	; 0xf88 <cluster_a_tail_18_delay_2>
    16cc:	2b 81       	ldd	r18, Y+3	; 0x03
    16ce:	33 27       	eor	r19, r19
    16d0:	5b cc       	rjmp	.-1866   	; 0xf88 <cluster_a_tail_18_delay_2>
    16d2:	4b 81       	ldd	r20, Y+3	; 0x03
    16d4:	55 27       	eor	r21, r21
    16d6:	58 cc       	rjmp	.-1872   	; 0xf88 <cluster_a_tail_18_delay_2>
    16d8:	6b 81       	ldd	r22, Y+3	; 0x03
    16da:	77 27       	eor	r23, r23
    16dc:	55 cc       	rjmp	.-1878   	; 0xf88 <cluster_a_tail_18_delay_2>
    16de:	0c 81       	ldd	r16, Y+4	; 0x04
    16e0:	11 27       	eor	r17, r17
    16e2:	52 cc       	rjmp	.-1884   	; 0xf88 <cluster_a_tail_18_delay_2>
    16e4:	2c 81       	ldd	r18, Y+4	; 0x04
    16e6:	33 27       	eor	r19, r19
    16e8:	4f cc       	rjmp	.-1890   	; 0xf88 <cluster_a_tail_18_delay_2>
    16ea:	4c 81       	ldd	r20, Y+4	; 0x04
    16ec:	55 27       	eor	r21, r21
    16ee:	4c cc       	rjmp	.-1896   	; 0xf88 <cluster_a_tail_18_delay_2>
    16f0:	6c 81       	ldd	r22, Y+4	; 0x04
    16f2:	77 27       	eor	r23, r23
    16f4:	49 cc       	rjmp	.-1902   	; 0xf88 <cluster_a_tail_18_delay_2>
    16f6:	0d 81       	ldd	r16, Y+5	; 0x05
    16f8:	11 27       	eor	r17, r17
    16fa:	46 cc       	rjmp	.-1908   	; 0xf88 <cluster_a_tail_18_delay_2>
    16fc:	2d 81       	ldd	r18, Y+5	; 0x05
    16fe:	33 27       	eor	r19, r19
    1700:	43 cc       	rjmp	.-1914   	; 0xf88 <cluster_a_tail_18_delay_2>
    1702:	4d 81       	ldd	r20, Y+5	; 0x05
    1704:	55 27       	eor	r21, r21
    1706:	40 cc       	rjmp	.-1920   	; 0xf88 <cluster_a_tail_18_delay_2>
    1708:	6d 81       	ldd	r22, Y+5	; 0x05
    170a:	77 27       	eor	r23, r23
    170c:	3d cc       	rjmp	.-1926   	; 0xf88 <cluster_a_tail_18_delay_2>
    170e:	0e 81       	ldd	r16, Y+6	; 0x06
    1710:	11 27       	eor	r17, r17
    1712:	3a cc       	rjmp	.-1932   	; 0xf88 <cluster_a_tail_18_delay_2>
    1714:	2e 81       	ldd	r18, Y+6	; 0x06
    1716:	33 27       	eor	r19, r19
    1718:	37 cc       	rjmp	.-1938   	; 0xf88 <cluster_a_tail_18_delay_2>
    171a:	4e 81       	ldd	r20, Y+6	; 0x06
    171c:	55 27       	eor	r21, r21
    171e:	34 cc       	rjmp	.-1944   	; 0xf88 <cluster_a_tail_18_delay_2>
    1720:	6e 81       	ldd	r22, Y+6	; 0x06
    1722:	77 27       	eor	r23, r23
    1724:	31 cc       	rjmp	.-1950   	; 0xf88 <cluster_a_tail_18_delay_2>
    1726:	0f 81       	ldd	r16, Y+7	; 0x07
    1728:	11 27       	eor	r17, r17
    172a:	2e cc       	rjmp	.-1956   	; 0xf88 <cluster_a_tail_18_delay_2>
    172c:	2f 81       	ldd	r18, Y+7	; 0x07
    172e:	33 27       	eor	r19, r19
    1730:	2b cc       	rjmp	.-1962   	; 0xf88 <cluster_a_tail_18_delay_2>
    1732:	4f 81       	ldd	r20, Y+7	; 0x07
    1734:	55 27       	eor	r21, r21
    1736:	28 cc       	rjmp	.-1968   	; 0xf88 <cluster_a_tail_18_delay_2>
    1738:	6f 81       	ldd	r22, Y+7	; 0x07
    173a:	77 27       	eor	r23, r23
    173c:	25 cc       	rjmp	.-1974   	; 0xf88 <cluster_a_tail_18_delay_2>
    173e:	08 85       	ldd	r16, Y+8	; 0x08
    1740:	11 27       	eor	r17, r17
    1742:	22 cc       	rjmp	.-1980   	; 0xf88 <cluster_a_tail_18_delay_2>
    1744:	28 85       	ldd	r18, Y+8	; 0x08
    1746:	33 27       	eor	r19, r19
    1748:	1f cc       	rjmp	.-1986   	; 0xf88 <cluster_a_tail_18_delay_2>
    174a:	48 85       	ldd	r20, Y+8	; 0x08
    174c:	55 27       	eor	r21, r21
    174e:	1c cc       	rjmp	.-1992   	; 0xf88 <cluster_a_tail_18_delay_2>
    1750:	68 85       	ldd	r22, Y+8	; 0x08
    1752:	77 27       	eor	r23, r23
    1754:	19 cc       	rjmp	.-1998   	; 0xf88 <cluster_a_tail_18_delay_2>
    1756:	09 85       	ldd	r16, Y+9	; 0x09
    1758:	11 27       	eor	r17, r17
    175a:	16 cc       	rjmp	.-2004   	; 0xf88 <cluster_a_tail_18_delay_2>
    175c:	29 85       	ldd	r18, Y+9	; 0x09
    175e:	33 27       	eor	r19, r19
    1760:	13 cc       	rjmp	.-2010   	; 0xf88 <cluster_a_tail_18_delay_2>
    1762:	49 85       	ldd	r20, Y+9	; 0x09
    1764:	55 27       	eor	r21, r21
    1766:	10 cc       	rjmp	.-2016   	; 0xf88 <cluster_a_tail_18_delay_2>
    1768:	69 85       	ldd	r22, Y+9	; 0x09
    176a:	77 27       	eor	r23, r23
    176c:	0d cc       	rjmp	.-2022   	; 0xf88 <cluster_a_tail_18_delay_2>
    176e:	0a 85       	ldd	r16, Y+10	; 0x0a
    1770:	11 27       	eor	r17, r17
    1772:	0a cc       	rjmp	.-2028   	; 0xf88 <cluster_a_tail_18_delay_2>
    1774:	2a 85       	ldd	r18, Y+10	; 0x0a
    1776:	33 27       	eor	r19, r19
    1778:	07 cc       	rjmp	.-2034   	; 0xf88 <cluster_a_tail_18_delay_2>
    177a:	4a 85       	ldd	r20, Y+10	; 0x0a
    177c:	55 27       	eor	r21, r21
    177e:	04 cc       	rjmp	.-2040   	; 0xf88 <cluster_a_tail_18_delay_2>
    1780:	6a 85       	ldd	r22, Y+10	; 0x0a
    1782:	77 27       	eor	r23, r23
    1784:	01 cc       	rjmp	.-2046   	; 0xf88 <cluster_a_tail_18_delay_2>
    1786:	0b 85       	ldd	r16, Y+11	; 0x0b
    1788:	11 27       	eor	r17, r17
    178a:	fe cb       	rjmp	.-2052   	; 0xf88 <cluster_a_tail_18_delay_2>
    178c:	2b 85       	ldd	r18, Y+11	; 0x0b
    178e:	33 27       	eor	r19, r19
    1790:	fb cb       	rjmp	.-2058   	; 0xf88 <cluster_a_tail_18_delay_2>
    1792:	4b 85       	ldd	r20, Y+11	; 0x0b
    1794:	55 27       	eor	r21, r21
    1796:	f8 cb       	rjmp	.-2064   	; 0xf88 <cluster_a_tail_18_delay_2>
    1798:	6b 85       	ldd	r22, Y+11	; 0x0b
    179a:	77 27       	eor	r23, r23
    179c:	f5 cb       	rjmp	.-2070   	; 0xf88 <cluster_a_tail_18_delay_2>
    179e:	0c 85       	ldd	r16, Y+12	; 0x0c
    17a0:	11 27       	eor	r17, r17
    17a2:	f2 cb       	rjmp	.-2076   	; 0xf88 <cluster_a_tail_18_delay_2>
    17a4:	2c 85       	ldd	r18, Y+12	; 0x0c
    17a6:	33 27       	eor	r19, r19
    17a8:	ef cb       	rjmp	.-2082   	; 0xf88 <cluster_a_tail_18_delay_2>
    17aa:	4c 85       	ldd	r20, Y+12	; 0x0c
    17ac:	55 27       	eor	r21, r21
    17ae:	ec cb       	rjmp	.-2088   	; 0xf88 <cluster_a_tail_18_delay_2>
    17b0:	6c 85       	ldd	r22, Y+12	; 0x0c
    17b2:	77 27       	eor	r23, r23
    17b4:	e9 cb       	rjmp	.-2094   	; 0xf88 <cluster_a_tail_18_delay_2>
    17b6:	0d 85       	ldd	r16, Y+13	; 0x0d
    17b8:	11 27       	eor	r17, r17
    17ba:	e6 cb       	rjmp	.-2100   	; 0xf88 <cluster_a_tail_18_delay_2>
    17bc:	2d 85       	ldd	r18, Y+13	; 0x0d
    17be:	33 27       	eor	r19, r19
    17c0:	e3 cb       	rjmp	.-2106   	; 0xf88 <cluster_a_tail_18_delay_2>
    17c2:	4d 85       	ldd	r20, Y+13	; 0x0d
    17c4:	55 27       	eor	r21, r21
    17c6:	e0 cb       	rjmp	.-2112   	; 0xf88 <cluster_a_tail_18_delay_2>
    17c8:	6d 85       	ldd	r22, Y+13	; 0x0d
    17ca:	77 27       	eor	r23, r23
    17cc:	dd cb       	rjmp	.-2118   	; 0xf88 <cluster_a_tail_18_delay_2>
    17ce:	0e 85       	ldd	r16, Y+14	; 0x0e
    17d0:	11 27       	eor	r17, r17
    17d2:	da cb       	rjmp	.-2124   	; 0xf88 <cluster_a_tail_18_delay_2>
    17d4:	2e 85       	ldd	r18, Y+14	; 0x0e
    17d6:	33 27       	eor	r19, r19
    17d8:	d7 cb       	rjmp	.-2130   	; 0xf88 <cluster_a_tail_18_delay_2>
    17da:	4e 85       	ldd	r20, Y+14	; 0x0e
    17dc:	55 27       	eor	r21, r21
    17de:	d4 cb       	rjmp	.-2136   	; 0xf88 <cluster_a_tail_18_delay_2>
    17e0:	6e 85       	ldd	r22, Y+14	; 0x0e
    17e2:	77 27       	eor	r23, r23
    17e4:	d1 cb       	rjmp	.-2142   	; 0xf88 <cluster_a_tail_18_delay_2>
    17e6:	0f 85       	ldd	r16, Y+15	; 0x0f
    17e8:	11 27       	eor	r17, r17
    17ea:	ce cb       	rjmp	.-2148   	; 0xf88 <cluster_a_tail_18_delay_2>
    17ec:	2f 85       	ldd	r18, Y+15	; 0x0f
    17ee:	33 27       	eor	r19, r19
    17f0:	cb cb       	rjmp	.-2154   	; 0xf88 <cluster_a_tail_18_delay_2>
    17f2:	4f 85       	ldd	r20, Y+15	; 0x0f
    17f4:	55 27       	eor	r21, r21
    17f6:	c8 cb       	rjmp	.-2160   	; 0xf88 <cluster_a_tail_18_delay_2>
    17f8:	6f 85       	ldd	r22, Y+15	; 0x0f
    17fa:	77 27       	eor	r23, r23
    17fc:	c5 cb       	rjmp	.-2166   	; 0xf88 <cluster_a_tail_18_delay_2>

000017fe <cluster_b_start>:
    17fe:	00 00       	nop

00001800 <cluster_b_tail_17>:
    1800:	43 0c       	add	r4, r3
    1802:	f8 94       	cli
    1804:	2e bc       	out	0x2e, r2	; 46
    1806:	8e b5       	in	r24, 0x2e	; 46
    1808:	78 94       	sei
    180a:	52 1c       	adc	r5, r2
    180c:	62 1c       	adc	r6, r2
    180e:	87 9d       	mul	r24, r7
    1810:	f0 01       	movw	r30, r0
    1812:	ff 5f       	subi	r31, 0xFF	; 255
    1814:	09 94       	ijmp

00001816 <flags_commit_b_18_delay_2>:
    1816:	8e bb       	out	0x1e, r24	; 30

00001818 <cluster_b_tail_18_delay_2>:
    1818:	02 c0       	rjmp	.+4      	; 0x181e <cluster_b_tail>

0000181a <flags_commit_b_18_delay_1>:
    181a:	8e bb       	out	0x1e, r24	; 30

0000181c <cluster_b_tail_18_delay_1>:
    181c:	00 00       	nop

0000181e <cluster_b_tail>:
    181e:	8e b5       	in	r24, 0x2e	; 46
    1820:	2e bc       	out	0x2e, r2	; 46
    1822:	43 0c       	add	r4, r3
    1824:	52 1c       	adc	r5, r2
    1826:	62 1c       	adc	r6, r2
    1828:	87 9d       	mul	r24, r7
    182a:	f0 01       	movw	r30, r0
    182c:	ff 5f       	subi	r31, 0xFF	; 255
    182e:	09 94       	ijmp

00001830 <cluster_b_end>:
    1830:	b7 cb       	rjmp	.-2194   	; 0xfa0 <cluster_a_end>

00001832 <secondary_invalid_b_func>:
    1832:	9a cb       	rjmp	.-2252   	; 0xf68 <invalid_secondary_instruction_func>

00001834 <f4_table>:
    1834:	08 81       	ld	r16, Y
    1836:	19 81       	ldd	r17, Y+1	; 0x01
    1838:	f1 cf       	rjmp	.-30     	; 0x181c <cluster_b_tail_18_delay_1>
    183a:	28 81       	ld	r18, Y
    183c:	39 81       	ldd	r19, Y+1	; 0x01
    183e:	ee cf       	rjmp	.-36     	; 0x181c <cluster_b_tail_18_delay_1>
    1840:	48 81       	ld	r20, Y
    1842:	59 81       	ldd	r21, Y+1	; 0x01
    1844:	eb cf       	rjmp	.-42     	; 0x181c <cluster_b_tail_18_delay_1>
    1846:	68 81       	ld	r22, Y
    1848:	79 81       	ldd	r23, Y+1	; 0x01
    184a:	e8 cf       	rjmp	.-48     	; 0x181c <cluster_b_tail_18_delay_1>
    184c:	09 81       	ldd	r16, Y+1	; 0x01
    184e:	1a 81       	ldd	r17, Y+2	; 0x02
    1850:	e5 cf       	rjmp	.-54     	; 0x181c <cluster_b_tail_18_delay_1>
    1852:	29 81       	ldd	r18, Y+1	; 0x01
    1854:	3a 81       	ldd	r19, Y+2	; 0x02
    1856:	e2 cf       	rjmp	.-60     	; 0x181c <cluster_b_tail_18_delay_1>
    1858:	49 81       	ldd	r20, Y+1	; 0x01
    185a:	5a 81       	ldd	r21, Y+2	; 0x02
    185c:	df cf       	rjmp	.-66     	; 0x181c <cluster_b_tail_18_delay_1>
    185e:	69 81       	ldd	r22, Y+1	; 0x01
    1860:	7a 81       	ldd	r23, Y+2	; 0x02
    1862:	dc cf       	rjmp	.-72     	; 0x181c <cluster_b_tail_18_delay_1>
    1864:	0a 81       	ldd	r16, Y+2	; 0x02
    1866:	1b 81       	ldd	r17, Y+3	; 0x03
    1868:	d9 cf       	rjmp	.-78     	; 0x181c <cluster_b_tail_18_delay_1>
    186a:	2a 81       	ldd	r18, Y+2	; 0x02
    186c:	3b 81       	ldd	r19, Y+3	; 0x03
    186e:	d6 cf       	rjmp	.-84     	; 0x181c <cluster_b_tail_18_delay_1>
    1870:	4a 81       	ldd	r20, Y+2	; 0x02
    1872:	5b 81       	ldd	r21, Y+3	; 0x03
    1874:	d3 cf       	rjmp	.-90     	; 0x181c <cluster_b_tail_18_delay_1>
    1876:	6a 81       	ldd	r22, Y+2	; 0x02
    1878:	7b 81       	ldd	r23, Y+3	; 0x03
    187a:	d0 cf       	rjmp	.-96     	; 0x181c <cluster_b_tail_18_delay_1>
    187c:	0b 81       	ldd	r16, Y+3	; 0x03
    187e:	1c 81       	ldd	r17, Y+4	; 0x04
    1880:	cd cf       	rjmp	.-102    	; 0x181c <cluster_b_tail_18_delay_1>
    1882:	2b 81       	ldd	r18, Y+3	; 0x03
    1884:	3c 81       	ldd	r19, Y+4	; 0x04
    1886:	ca cf       	rjmp	.-108    	; 0x181c <cluster_b_tail_18_delay_1>
    1888:	4b 81       	ldd	r20, Y+3	; 0x03
    188a:	5c 81       	ldd	r21, Y+4	; 0x04
    188c:	c7 cf       	rjmp	.-114    	; 0x181c <cluster_b_tail_18_delay_1>
    188e:	6b 81       	ldd	r22, Y+3	; 0x03
    1890:	7c 81       	ldd	r23, Y+4	; 0x04
    1892:	c4 cf       	rjmp	.-120    	; 0x181c <cluster_b_tail_18_delay_1>
    1894:	0c 81       	ldd	r16, Y+4	; 0x04
    1896:	1d 81       	ldd	r17, Y+5	; 0x05
    1898:	c1 cf       	rjmp	.-126    	; 0x181c <cluster_b_tail_18_delay_1>
    189a:	2c 81       	ldd	r18, Y+4	; 0x04
    189c:	3d 81       	ldd	r19, Y+5	; 0x05
    189e:	be cf       	rjmp	.-132    	; 0x181c <cluster_b_tail_18_delay_1>
    18a0:	4c 81       	ldd	r20, Y+4	; 0x04
    18a2:	5d 81       	ldd	r21, Y+5	; 0x05
    18a4:	bb cf       	rjmp	.-138    	; 0x181c <cluster_b_tail_18_delay_1>
    18a6:	6c 81       	ldd	r22, Y+4	; 0x04
    18a8:	7d 81       	ldd	r23, Y+5	; 0x05
    18aa:	b8 cf       	rjmp	.-144    	; 0x181c <cluster_b_tail_18_delay_1>
    18ac:	0d 81       	ldd	r16, Y+5	; 0x05
    18ae:	1e 81       	ldd	r17, Y+6	; 0x06
    18b0:	b5 cf       	rjmp	.-150    	; 0x181c <cluster_b_tail_18_delay_1>
    18b2:	2d 81       	ldd	r18, Y+5	; 0x05
    18b4:	3e 81       	ldd	r19, Y+6	; 0x06
    18b6:	b2 cf       	rjmp	.-156    	; 0x181c <cluster_b_tail_18_delay_1>
    18b8:	4d 81       	ldd	r20, Y+5	; 0x05
    18ba:	5e 81       	ldd	r21, Y+6	; 0x06
    18bc:	af cf       	rjmp	.-162    	; 0x181c <cluster_b_tail_18_delay_1>
    18be:	6d 81       	ldd	r22, Y+5	; 0x05
    18c0:	7e 81       	ldd	r23, Y+6	; 0x06
    18c2:	ac cf       	rjmp	.-168    	; 0x181c <cluster_b_tail_18_delay_1>
    18c4:	0e 81       	ldd	r16, Y+6	; 0x06
    18c6:	1f 81       	ldd	r17, Y+7	; 0x07
    18c8:	a9 cf       	rjmp	.-174    	; 0x181c <cluster_b_tail_18_delay_1>
    18ca:	2e 81       	ldd	r18, Y+6	; 0x06
    18cc:	3f 81       	ldd	r19, Y+7	; 0x07
    18ce:	a6 cf       	rjmp	.-180    	; 0x181c <cluster_b_tail_18_delay_1>
    18d0:	4e 81       	ldd	r20, Y+6	; 0x06
    18d2:	5f 81       	ldd	r21, Y+7	; 0x07
    18d4:	a3 cf       	rjmp	.-186    	; 0x181c <cluster_b_tail_18_delay_1>
    18d6:	6e 81       	ldd	r22, Y+6	; 0x06
    18d8:	7f 81       	ldd	r23, Y+7	; 0x07
    18da:	a0 cf       	rjmp	.-192    	; 0x181c <cluster_b_tail_18_delay_1>
    18dc:	0f 81       	ldd	r16, Y+7	; 0x07
    18de:	18 85       	ldd	r17, Y+8	; 0x08
    18e0:	9d cf       	rjmp	.-198    	; 0x181c <cluster_b_tail_18_delay_1>
    18e2:	2f 81       	ldd	r18, Y+7	; 0x07
    18e4:	38 85       	ldd	r19, Y+8	; 0x08
    18e6:	9a cf       	rjmp	.-204    	; 0x181c <cluster_b_tail_18_delay_1>
    18e8:	4f 81       	ldd	r20, Y+7	; 0x07
    18ea:	58 85       	ldd	r21, Y+8	; 0x08
    18ec:	97 cf       	rjmp	.-210    	; 0x181c <cluster_b_tail_18_delay_1>
    18ee:	6f 81       	ldd	r22, Y+7	; 0x07
    18f0:	78 85       	ldd	r23, Y+8	; 0x08
    18f2:	94 cf       	rjmp	.-216    	; 0x181c <cluster_b_tail_18_delay_1>
    18f4:	08 85       	ldd	r16, Y+8	; 0x08
    18f6:	19 85       	ldd	r17, Y+9	; 0x09
    18f8:	91 cf       	rjmp	.-222    	; 0x181c <cluster_b_tail_18_delay_1>
    18fa:	28 85       	ldd	r18, Y+8	; 0x08
    18fc:	39 85       	ldd	r19, Y+9	; 0x09
    18fe:	8e cf       	rjmp	.-228    	; 0x181c <cluster_b_tail_18_delay_1>
    1900:	48 85       	ldd	r20, Y+8	; 0x08
    1902:	59 85       	ldd	r21, Y+9	; 0x09
    1904:	8b cf       	rjmp	.-234    	; 0x181c <cluster_b_tail_18_delay_1>
    1906:	68 85       	ldd	r22, Y+8	; 0x08
    1908:	79 85       	ldd	r23, Y+9	; 0x09
    190a:	88 cf       	rjmp	.-240    	; 0x181c <cluster_b_tail_18_delay_1>
    190c:	09 85       	ldd	r16, Y+9	; 0x09
    190e:	1a 85       	ldd	r17, Y+10	; 0x0a
    1910:	85 cf       	rjmp	.-246    	; 0x181c <cluster_b_tail_18_delay_1>
    1912:	29 85       	ldd	r18, Y+9	; 0x09
    1914:	3a 85       	ldd	r19, Y+10	; 0x0a
    1916:	82 cf       	rjmp	.-252    	; 0x181c <cluster_b_tail_18_delay_1>
    1918:	49 85       	ldd	r20, Y+9	; 0x09
    191a:	5a 85       	ldd	r21, Y+10	; 0x0a
    191c:	7f cf       	rjmp	.-258    	; 0x181c <cluster_b_tail_18_delay_1>
    191e:	69 85       	ldd	r22, Y+9	; 0x09
    1920:	7a 85       	ldd	r23, Y+10	; 0x0a
    1922:	7c cf       	rjmp	.-264    	; 0x181c <cluster_b_tail_18_delay_1>
    1924:	0a 85       	ldd	r16, Y+10	; 0x0a
    1926:	1b 85       	ldd	r17, Y+11	; 0x0b
    1928:	79 cf       	rjmp	.-270    	; 0x181c <cluster_b_tail_18_delay_1>
    192a:	2a 85       	ldd	r18, Y+10	; 0x0a
    192c:	3b 85       	ldd	r19, Y+11	; 0x0b
    192e:	76 cf       	rjmp	.-276    	; 0x181c <cluster_b_tail_18_delay_1>
    1930:	4a 85       	ldd	r20, Y+10	; 0x0a
    1932:	5b 85       	ldd	r21, Y+11	; 0x0b
    1934:	73 cf       	rjmp	.-282    	; 0x181c <cluster_b_tail_18_delay_1>
    1936:	6a 85       	ldd	r22, Y+10	; 0x0a
    1938:	7b 85       	ldd	r23, Y+11	; 0x0b
    193a:	70 cf       	rjmp	.-288    	; 0x181c <cluster_b_tail_18_delay_1>
    193c:	0b 85       	ldd	r16, Y+11	; 0x0b
    193e:	1c 85       	ldd	r17, Y+12	; 0x0c
    1940:	6d cf       	rjmp	.-294    	; 0x181c <cluster_b_tail_18_delay_1>
    1942:	2b 85       	ldd	r18, Y+11	; 0x0b
    1944:	3c 85       	ldd	r19, Y+12	; 0x0c
    1946:	6a cf       	rjmp	.-300    	; 0x181c <cluster_b_tail_18_delay_1>
    1948:	4b 85       	ldd	r20, Y+11	; 0x0b
    194a:	5c 85       	ldd	r21, Y+12	; 0x0c
    194c:	67 cf       	rjmp	.-306    	; 0x181c <cluster_b_tail_18_delay_1>
    194e:	6b 85       	ldd	r22, Y+11	; 0x0b
    1950:	7c 85       	ldd	r23, Y+12	; 0x0c
    1952:	64 cf       	rjmp	.-312    	; 0x181c <cluster_b_tail_18_delay_1>
    1954:	0c 85       	ldd	r16, Y+12	; 0x0c
    1956:	1d 85       	ldd	r17, Y+13	; 0x0d
    1958:	61 cf       	rjmp	.-318    	; 0x181c <cluster_b_tail_18_delay_1>
    195a:	2c 85       	ldd	r18, Y+12	; 0x0c
    195c:	3d 85       	ldd	r19, Y+13	; 0x0d
    195e:	5e cf       	rjmp	.-324    	; 0x181c <cluster_b_tail_18_delay_1>
    1960:	4c 85       	ldd	r20, Y+12	; 0x0c
    1962:	5d 85       	ldd	r21, Y+13	; 0x0d
    1964:	5b cf       	rjmp	.-330    	; 0x181c <cluster_b_tail_18_delay_1>
    1966:	6c 85       	ldd	r22, Y+12	; 0x0c
    1968:	7d 85       	ldd	r23, Y+13	; 0x0d
    196a:	58 cf       	rjmp	.-336    	; 0x181c <cluster_b_tail_18_delay_1>
    196c:	0d 85       	ldd	r16, Y+13	; 0x0d
    196e:	1e 85       	ldd	r17, Y+14	; 0x0e
    1970:	55 cf       	rjmp	.-342    	; 0x181c <cluster_b_tail_18_delay_1>
    1972:	2d 85       	ldd	r18, Y+13	; 0x0d
    1974:	3e 85       	ldd	r19, Y+14	; 0x0e
    1976:	52 cf       	rjmp	.-348    	; 0x181c <cluster_b_tail_18_delay_1>
    1978:	4d 85       	ldd	r20, Y+13	; 0x0d
    197a:	5e 85       	ldd	r21, Y+14	; 0x0e
    197c:	4f cf       	rjmp	.-354    	; 0x181c <cluster_b_tail_18_delay_1>
    197e:	6d 85       	ldd	r22, Y+13	; 0x0d
    1980:	7e 85       	ldd	r23, Y+14	; 0x0e
    1982:	4c cf       	rjmp	.-360    	; 0x181c <cluster_b_tail_18_delay_1>
    1984:	0e 85       	ldd	r16, Y+14	; 0x0e
    1986:	1f 85       	ldd	r17, Y+15	; 0x0f
    1988:	49 cf       	rjmp	.-366    	; 0x181c <cluster_b_tail_18_delay_1>
    198a:	2e 85       	ldd	r18, Y+14	; 0x0e
    198c:	3f 85       	ldd	r19, Y+15	; 0x0f
    198e:	46 cf       	rjmp	.-372    	; 0x181c <cluster_b_tail_18_delay_1>
    1990:	4e 85       	ldd	r20, Y+14	; 0x0e
    1992:	5f 85       	ldd	r21, Y+15	; 0x0f
    1994:	43 cf       	rjmp	.-378    	; 0x181c <cluster_b_tail_18_delay_1>
    1996:	6e 85       	ldd	r22, Y+14	; 0x0e
    1998:	7f 85       	ldd	r23, Y+15	; 0x0f
    199a:	40 cf       	rjmp	.-384    	; 0x181c <cluster_b_tail_18_delay_1>
    199c:	0f 85       	ldd	r16, Y+15	; 0x0f
    199e:	18 89       	ldd	r17, Y+16	; 0x10
    19a0:	3d cf       	rjmp	.-390    	; 0x181c <cluster_b_tail_18_delay_1>
    19a2:	2f 85       	ldd	r18, Y+15	; 0x0f
    19a4:	38 89       	ldd	r19, Y+16	; 0x10
    19a6:	3a cf       	rjmp	.-396    	; 0x181c <cluster_b_tail_18_delay_1>
    19a8:	4f 85       	ldd	r20, Y+15	; 0x0f
    19aa:	58 89       	ldd	r21, Y+16	; 0x10
    19ac:	37 cf       	rjmp	.-402    	; 0x181c <cluster_b_tail_18_delay_1>
    19ae:	6f 85       	ldd	r22, Y+15	; 0x0f
    19b0:	78 89       	ldd	r23, Y+16	; 0x10
    19b2:	34 cf       	rjmp	.-408    	; 0x181c <cluster_b_tail_18_delay_1>
    19b4:	08 83       	st	Y, r16
    19b6:	19 83       	std	Y+1, r17	; 0x01
    19b8:	31 cf       	rjmp	.-414    	; 0x181c <cluster_b_tail_18_delay_1>
    19ba:	28 83       	st	Y, r18
    19bc:	39 83       	std	Y+1, r19	; 0x01
    19be:	2e cf       	rjmp	.-420    	; 0x181c <cluster_b_tail_18_delay_1>
    19c0:	48 83       	st	Y, r20
    19c2:	59 83       	std	Y+1, r21	; 0x01
    19c4:	2b cf       	rjmp	.-426    	; 0x181c <cluster_b_tail_18_delay_1>
    19c6:	68 83       	st	Y, r22
    19c8:	79 83       	std	Y+1, r23	; 0x01
    19ca:	28 cf       	rjmp	.-432    	; 0x181c <cluster_b_tail_18_delay_1>
    19cc:	09 83       	std	Y+1, r16	; 0x01
    19ce:	1a 83       	std	Y+2, r17	; 0x02
    19d0:	25 cf       	rjmp	.-438    	; 0x181c <cluster_b_tail_18_delay_1>
    19d2:	29 83       	std	Y+1, r18	; 0x01
    19d4:	3a 83       	std	Y+2, r19	; 0x02
    19d6:	22 cf       	rjmp	.-444    	; 0x181c <cluster_b_tail_18_delay_1>
    19d8:	49 83       	std	Y+1, r20	; 0x01
    19da:	5a 83       	std	Y+2, r21	; 0x02
    19dc:	1f cf       	rjmp	.-450    	; 0x181c <cluster_b_tail_18_delay_1>
    19de:	69 83       	std	Y+1, r22	; 0x01
    19e0:	7a 83       	std	Y+2, r23	; 0x02
    19e2:	1c cf       	rjmp	.-456    	; 0x181c <cluster_b_tail_18_delay_1>
    19e4:	0a 83       	std	Y+2, r16	; 0x02
    19e6:	1b 83       	std	Y+3, r17	; 0x03
    19e8:	19 cf       	rjmp	.-462    	; 0x181c <cluster_b_tail_18_delay_1>
    19ea:	2a 83       	std	Y+2, r18	; 0x02
    19ec:	3b 83       	std	Y+3, r19	; 0x03
    19ee:	16 cf       	rjmp	.-468    	; 0x181c <cluster_b_tail_18_delay_1>
    19f0:	4a 83       	std	Y+2, r20	; 0x02
    19f2:	5b 83       	std	Y+3, r21	; 0x03
    19f4:	13 cf       	rjmp	.-474    	; 0x181c <cluster_b_tail_18_delay_1>
    19f6:	6a 83       	std	Y+2, r22	; 0x02
    19f8:	7b 83       	std	Y+3, r23	; 0x03
    19fa:	10 cf       	rjmp	.-480    	; 0x181c <cluster_b_tail_18_delay_1>
    19fc:	0b 83       	std	Y+3, r16	; 0x03
    19fe:	1c 83       	std	Y+4, r17	; 0x04
    1a00:	0d cf       	rjmp	.-486    	; 0x181c <cluster_b_tail_18_delay_1>
    1a02:	2b 83       	std	Y+3, r18	; 0x03
    1a04:	3c 83       	std	Y+4, r19	; 0x04
    1a06:	0a cf       	rjmp	.-492    	; 0x181c <cluster_b_tail_18_delay_1>
    1a08:	4b 83       	std	Y+3, r20	; 0x03
    1a0a:	5c 83       	std	Y+4, r21	; 0x04
    1a0c:	07 cf       	rjmp	.-498    	; 0x181c <cluster_b_tail_18_delay_1>
    1a0e:	6b 83       	std	Y+3, r22	; 0x03
    1a10:	7c 83       	std	Y+4, r23	; 0x04
    1a12:	04 cf       	rjmp	.-504    	; 0x181c <cluster_b_tail_18_delay_1>
    1a14:	0c 83       	std	Y+4, r16	; 0x04
    1a16:	1d 83       	std	Y+5, r17	; 0x05
    1a18:	01 cf       	rjmp	.-510    	; 0x181c <cluster_b_tail_18_delay_1>
    1a1a:	2c 83       	std	Y+4, r18	; 0x04
    1a1c:	3d 83       	std	Y+5, r19	; 0x05
    1a1e:	fe ce       	rjmp	.-516    	; 0x181c <cluster_b_tail_18_delay_1>
    1a20:	4c 83       	std	Y+4, r20	; 0x04
    1a22:	5d 83       	std	Y+5, r21	; 0x05
    1a24:	fb ce       	rjmp	.-522    	; 0x181c <cluster_b_tail_18_delay_1>
    1a26:	6c 83       	std	Y+4, r22	; 0x04
    1a28:	7d 83       	std	Y+5, r23	; 0x05
    1a2a:	f8 ce       	rjmp	.-528    	; 0x181c <cluster_b_tail_18_delay_1>
    1a2c:	0d 83       	std	Y+5, r16	; 0x05
    1a2e:	1e 83       	std	Y+6, r17	; 0x06
    1a30:	f5 ce       	rjmp	.-534    	; 0x181c <cluster_b_tail_18_delay_1>
    1a32:	2d 83       	std	Y+5, r18	; 0x05
    1a34:	3e 83       	std	Y+6, r19	; 0x06
    1a36:	f2 ce       	rjmp	.-540    	; 0x181c <cluster_b_tail_18_delay_1>
    1a38:	4d 83       	std	Y+5, r20	; 0x05
    1a3a:	5e 83       	std	Y+6, r21	; 0x06
    1a3c:	ef ce       	rjmp	.-546    	; 0x181c <cluster_b_tail_18_delay_1>
    1a3e:	6d 83       	std	Y+5, r22	; 0x05
    1a40:	7e 83       	std	Y+6, r23	; 0x06
    1a42:	ec ce       	rjmp	.-552    	; 0x181c <cluster_b_tail_18_delay_1>
    1a44:	0e 83       	std	Y+6, r16	; 0x06
    1a46:	1f 83       	std	Y+7, r17	; 0x07
    1a48:	e9 ce       	rjmp	.-558    	; 0x181c <cluster_b_tail_18_delay_1>
    1a4a:	2e 83       	std	Y+6, r18	; 0x06
    1a4c:	3f 83       	std	Y+7, r19	; 0x07
    1a4e:	e6 ce       	rjmp	.-564    	; 0x181c <cluster_b_tail_18_delay_1>
    1a50:	4e 83       	std	Y+6, r20	; 0x06
    1a52:	5f 83       	std	Y+7, r21	; 0x07
    1a54:	e3 ce       	rjmp	.-570    	; 0x181c <cluster_b_tail_18_delay_1>
    1a56:	6e 83       	std	Y+6, r22	; 0x06
    1a58:	7f 83       	std	Y+7, r23	; 0x07
    1a5a:	e0 ce       	rjmp	.-576    	; 0x181c <cluster_b_tail_18_delay_1>
    1a5c:	0f 83       	std	Y+7, r16	; 0x07
    1a5e:	18 87       	std	Y+8, r17	; 0x08
    1a60:	dd ce       	rjmp	.-582    	; 0x181c <cluster_b_tail_18_delay_1>
    1a62:	2f 83       	std	Y+7, r18	; 0x07
    1a64:	38 87       	std	Y+8, r19	; 0x08
    1a66:	da ce       	rjmp	.-588    	; 0x181c <cluster_b_tail_18_delay_1>
    1a68:	4f 83       	std	Y+7, r20	; 0x07
    1a6a:	58 87       	std	Y+8, r21	; 0x08
    1a6c:	d7 ce       	rjmp	.-594    	; 0x181c <cluster_b_tail_18_delay_1>
    1a6e:	6f 83       	std	Y+7, r22	; 0x07
    1a70:	78 87       	std	Y+8, r23	; 0x08
    1a72:	d4 ce       	rjmp	.-600    	; 0x181c <cluster_b_tail_18_delay_1>
    1a74:	08 87       	std	Y+8, r16	; 0x08
    1a76:	19 87       	std	Y+9, r17	; 0x09
    1a78:	d1 ce       	rjmp	.-606    	; 0x181c <cluster_b_tail_18_delay_1>
    1a7a:	28 87       	std	Y+8, r18	; 0x08
    1a7c:	39 87       	std	Y+9, r19	; 0x09
    1a7e:	ce ce       	rjmp	.-612    	; 0x181c <cluster_b_tail_18_delay_1>
    1a80:	48 87       	std	Y+8, r20	; 0x08
    1a82:	59 87       	std	Y+9, r21	; 0x09
    1a84:	cb ce       	rjmp	.-618    	; 0x181c <cluster_b_tail_18_delay_1>
    1a86:	68 87       	std	Y+8, r22	; 0x08
    1a88:	79 87       	std	Y+9, r23	; 0x09
    1a8a:	c8 ce       	rjmp	.-624    	; 0x181c <cluster_b_tail_18_delay_1>
    1a8c:	09 87       	std	Y+9, r16	; 0x09
    1a8e:	1a 87       	std	Y+10, r17	; 0x0a
    1a90:	c5 ce       	rjmp	.-630    	; 0x181c <cluster_b_tail_18_delay_1>
    1a92:	29 87       	std	Y+9, r18	; 0x09
    1a94:	3a 87       	std	Y+10, r19	; 0x0a
    1a96:	c2 ce       	rjmp	.-636    	; 0x181c <cluster_b_tail_18_delay_1>
    1a98:	49 87       	std	Y+9, r20	; 0x09
    1a9a:	5a 87       	std	Y+10, r21	; 0x0a
    1a9c:	bf ce       	rjmp	.-642    	; 0x181c <cluster_b_tail_18_delay_1>
    1a9e:	69 87       	std	Y+9, r22	; 0x09
    1aa0:	7a 87       	std	Y+10, r23	; 0x0a
    1aa2:	bc ce       	rjmp	.-648    	; 0x181c <cluster_b_tail_18_delay_1>
    1aa4:	0a 87       	std	Y+10, r16	; 0x0a
    1aa6:	1b 87       	std	Y+11, r17	; 0x0b
    1aa8:	b9 ce       	rjmp	.-654    	; 0x181c <cluster_b_tail_18_delay_1>
    1aaa:	2a 87       	std	Y+10, r18	; 0x0a
    1aac:	3b 87       	std	Y+11, r19	; 0x0b
    1aae:	b6 ce       	rjmp	.-660    	; 0x181c <cluster_b_tail_18_delay_1>
    1ab0:	4a 87       	std	Y+10, r20	; 0x0a
    1ab2:	5b 87       	std	Y+11, r21	; 0x0b
    1ab4:	b3 ce       	rjmp	.-666    	; 0x181c <cluster_b_tail_18_delay_1>
    1ab6:	6a 87       	std	Y+10, r22	; 0x0a
    1ab8:	7b 87       	std	Y+11, r23	; 0x0b
    1aba:	b0 ce       	rjmp	.-672    	; 0x181c <cluster_b_tail_18_delay_1>
    1abc:	0b 87       	std	Y+11, r16	; 0x0b
    1abe:	1c 87       	std	Y+12, r17	; 0x0c
    1ac0:	ad ce       	rjmp	.-678    	; 0x181c <cluster_b_tail_18_delay_1>
    1ac2:	2b 87       	std	Y+11, r18	; 0x0b
    1ac4:	3c 87       	std	Y+12, r19	; 0x0c
    1ac6:	aa ce       	rjmp	.-684    	; 0x181c <cluster_b_tail_18_delay_1>
    1ac8:	4b 87       	std	Y+11, r20	; 0x0b
    1aca:	5c 87       	std	Y+12, r21	; 0x0c
    1acc:	a7 ce       	rjmp	.-690    	; 0x181c <cluster_b_tail_18_delay_1>
    1ace:	6b 87       	std	Y+11, r22	; 0x0b
    1ad0:	7c 87       	std	Y+12, r23	; 0x0c
    1ad2:	a4 ce       	rjmp	.-696    	; 0x181c <cluster_b_tail_18_delay_1>
    1ad4:	0c 87       	std	Y+12, r16	; 0x0c
    1ad6:	1d 87       	std	Y+13, r17	; 0x0d
    1ad8:	a1 ce       	rjmp	.-702    	; 0x181c <cluster_b_tail_18_delay_1>
    1ada:	2c 87       	std	Y+12, r18	; 0x0c
    1adc:	3d 87       	std	Y+13, r19	; 0x0d
    1ade:	9e ce       	rjmp	.-708    	; 0x181c <cluster_b_tail_18_delay_1>
    1ae0:	4c 87       	std	Y+12, r20	; 0x0c
    1ae2:	5d 87       	std	Y+13, r21	; 0x0d
    1ae4:	9b ce       	rjmp	.-714    	; 0x181c <cluster_b_tail_18_delay_1>
    1ae6:	6c 87       	std	Y+12, r22	; 0x0c
    1ae8:	7d 87       	std	Y+13, r23	; 0x0d
    1aea:	98 ce       	rjmp	.-720    	; 0x181c <cluster_b_tail_18_delay_1>
    1aec:	0d 87       	std	Y+13, r16	; 0x0d
    1aee:	1e 87       	std	Y+14, r17	; 0x0e
    1af0:	95 ce       	rjmp	.-726    	; 0x181c <cluster_b_tail_18_delay_1>
    1af2:	2d 87       	std	Y+13, r18	; 0x0d
    1af4:	3e 87       	std	Y+14, r19	; 0x0e
    1af6:	92 ce       	rjmp	.-732    	; 0x181c <cluster_b_tail_18_delay_1>
    1af8:	4d 87       	std	Y+13, r20	; 0x0d
    1afa:	5e 87       	std	Y+14, r21	; 0x0e
    1afc:	8f ce       	rjmp	.-738    	; 0x181c <cluster_b_tail_18_delay_1>
    1afe:	6d 87       	std	Y+13, r22	; 0x0d
    1b00:	7e 87       	std	Y+14, r23	; 0x0e
    1b02:	8c ce       	rjmp	.-744    	; 0x181c <cluster_b_tail_18_delay_1>
    1b04:	0e 87       	std	Y+14, r16	; 0x0e
    1b06:	1f 87       	std	Y+15, r17	; 0x0f
    1b08:	89 ce       	rjmp	.-750    	; 0x181c <cluster_b_tail_18_delay_1>
    1b0a:	2e 87       	std	Y+14, r18	; 0x0e
    1b0c:	3f 87       	std	Y+15, r19	; 0x0f
    1b0e:	86 ce       	rjmp	.-756    	; 0x181c <cluster_b_tail_18_delay_1>
    1b10:	4e 87       	std	Y+14, r20	; 0x0e
    1b12:	5f 87       	std	Y+15, r21	; 0x0f
    1b14:	83 ce       	rjmp	.-762    	; 0x181c <cluster_b_tail_18_delay_1>
    1b16:	6e 87       	std	Y+14, r22	; 0x0e
    1b18:	7f 87       	std	Y+15, r23	; 0x0f
    1b1a:	80 ce       	rjmp	.-768    	; 0x181c <cluster_b_tail_18_delay_1>
    1b1c:	0f 87       	std	Y+15, r16	; 0x0f
    1b1e:	18 8b       	std	Y+16, r17	; 0x10
    1b20:	7d ce       	rjmp	.-774    	; 0x181c <cluster_b_tail_18_delay_1>
    1b22:	2f 87       	std	Y+15, r18	; 0x0f
    1b24:	38 8b       	std	Y+16, r19	; 0x10
    1b26:	7a ce       	rjmp	.-780    	; 0x181c <cluster_b_tail_18_delay_1>
    1b28:	4f 87       	std	Y+15, r20	; 0x0f
    1b2a:	58 8b       	std	Y+16, r21	; 0x10
    1b2c:	77 ce       	rjmp	.-786    	; 0x181c <cluster_b_tail_18_delay_1>
    1b2e:	6f 87       	std	Y+15, r22	; 0x0f
    1b30:	78 8b       	std	Y+16, r23	; 0x10
    1b32:	74 ce       	rjmp	.-792    	; 0x181c <cluster_b_tail_18_delay_1>
    1b34:	88 0c       	add	r8, r8
    1b36:	99 1c       	adc	r9, r9
    1b38:	62 ce       	rjmp	.-828    	; 0x17fe <cluster_b_start>
    1b3a:	aa 0c       	add	r10, r10
    1b3c:	bb 1c       	adc	r11, r11
    1b3e:	5f ce       	rjmp	.-834    	; 0x17fe <cluster_b_start>
    1b40:	cc 0c       	add	r12, r12
    1b42:	dd 1c       	adc	r13, r13
    1b44:	5c ce       	rjmp	.-840    	; 0x17fe <cluster_b_start>
    1b46:	ee 0c       	add	r14, r14
    1b48:	ff 1c       	adc	r15, r15
    1b4a:	59 ce       	rjmp	.-846    	; 0x17fe <cluster_b_start>
    1b4c:	00 0f       	add	r16, r16
    1b4e:	11 1f       	adc	r17, r17
    1b50:	56 ce       	rjmp	.-852    	; 0x17fe <cluster_b_start>
    1b52:	22 0f       	add	r18, r18
    1b54:	33 1f       	adc	r19, r19
    1b56:	53 ce       	rjmp	.-858    	; 0x17fe <cluster_b_start>
    1b58:	44 0f       	add	r20, r20
    1b5a:	55 1f       	adc	r21, r21
    1b5c:	50 ce       	rjmp	.-864    	; 0x17fe <cluster_b_start>
    1b5e:	66 0f       	add	r22, r22
    1b60:	77 1f       	adc	r23, r23
    1b62:	4d ce       	rjmp	.-870    	; 0x17fe <cluster_b_start>
    1b64:	96 94       	lsr	r9
    1b66:	87 94       	ror	r8
    1b68:	4a ce       	rjmp	.-876    	; 0x17fe <cluster_b_start>
    1b6a:	b6 94       	lsr	r11
    1b6c:	a7 94       	ror	r10
    1b6e:	47 ce       	rjmp	.-882    	; 0x17fe <cluster_b_start>
    1b70:	d6 94       	lsr	r13
    1b72:	c7 94       	ror	r12
    1b74:	44 ce       	rjmp	.-888    	; 0x17fe <cluster_b_start>
    1b76:	f6 94       	lsr	r15
    1b78:	e7 94       	ror	r14
    1b7a:	41 ce       	rjmp	.-894    	; 0x17fe <cluster_b_start>
    1b7c:	16 95       	lsr	r17
    1b7e:	07 95       	ror	r16
    1b80:	3e ce       	rjmp	.-900    	; 0x17fe <cluster_b_start>
    1b82:	36 95       	lsr	r19
    1b84:	27 95       	ror	r18
    1b86:	3b ce       	rjmp	.-906    	; 0x17fe <cluster_b_start>
    1b88:	56 95       	lsr	r21
    1b8a:	47 95       	ror	r20
    1b8c:	38 ce       	rjmp	.-912    	; 0x17fe <cluster_b_start>
    1b8e:	76 95       	lsr	r23
    1b90:	67 95       	ror	r22
    1b92:	35 ce       	rjmp	.-918    	; 0x17fe <cluster_b_start>
    1b94:	95 94       	asr	r9
    1b96:	87 94       	ror	r8
    1b98:	32 ce       	rjmp	.-924    	; 0x17fe <cluster_b_start>
    1b9a:	b5 94       	asr	r11
    1b9c:	a7 94       	ror	r10
    1b9e:	2f ce       	rjmp	.-930    	; 0x17fe <cluster_b_start>
    1ba0:	d5 94       	asr	r13
    1ba2:	c7 94       	ror	r12
    1ba4:	2c ce       	rjmp	.-936    	; 0x17fe <cluster_b_start>
    1ba6:	f5 94       	asr	r15
    1ba8:	e7 94       	ror	r14
    1baa:	29 ce       	rjmp	.-942    	; 0x17fe <cluster_b_start>
    1bac:	15 95       	asr	r17
    1bae:	07 95       	ror	r16
    1bb0:	26 ce       	rjmp	.-948    	; 0x17fe <cluster_b_start>
    1bb2:	35 95       	asr	r19
    1bb4:	27 95       	ror	r18
    1bb6:	23 ce       	rjmp	.-954    	; 0x17fe <cluster_b_start>
    1bb8:	55 95       	asr	r21
    1bba:	47 95       	ror	r20
    1bbc:	20 ce       	rjmp	.-960    	; 0x17fe <cluster_b_start>
    1bbe:	75 95       	asr	r23
    1bc0:	67 95       	ror	r22
    1bc2:	1d ce       	rjmp	.-966    	; 0x17fe <cluster_b_start>
    1bc4:	80 94       	com	r8
    1bc6:	90 94       	com	r9
    1bc8:	1a ce       	rjmp	.-972    	; 0x17fe <cluster_b_start>
    1bca:	a0 94       	com	r10
    1bcc:	b0 94       	com	r11
    1bce:	17 ce       	rjmp	.-978    	; 0x17fe <cluster_b_start>
    1bd0:	c0 94       	com	r12
    1bd2:	d0 94       	com	r13
    1bd4:	14 ce       	rjmp	.-984    	; 0x17fe <cluster_b_start>
    1bd6:	e0 94       	com	r14
    1bd8:	f0 94       	com	r15
    1bda:	11 ce       	rjmp	.-990    	; 0x17fe <cluster_b_start>
    1bdc:	00 95       	com	r16
    1bde:	10 95       	com	r17
    1be0:	0e ce       	rjmp	.-996    	; 0x17fe <cluster_b_start>
    1be2:	20 95       	com	r18
    1be4:	30 95       	com	r19
    1be6:	0b ce       	rjmp	.-1002   	; 0x17fe <cluster_b_start>
    1be8:	40 95       	com	r20
    1bea:	50 95       	com	r21
    1bec:	08 ce       	rjmp	.-1008   	; 0x17fe <cluster_b_start>
    1bee:	60 95       	com	r22
    1bf0:	70 95       	com	r23
    1bf2:	05 ce       	rjmp	.-1014   	; 0x17fe <cluster_b_start>
    1bf4:	82 14       	cp	r8, r2
    1bf6:	8f b7       	in	r24, 0x3f	; 63
    1bf8:	0e ce       	rjmp	.-996    	; 0x1816 <flags_commit_b_18_delay_2>
    1bfa:	a2 14       	cp	r10, r2
    1bfc:	8f b7       	in	r24, 0x3f	; 63
    1bfe:	0b ce       	rjmp	.-1002   	; 0x1816 <flags_commit_b_18_delay_2>
    1c00:	c2 14       	cp	r12, r2
    1c02:	8f b7       	in	r24, 0x3f	; 63
    1c04:	08 ce       	rjmp	.-1008   	; 0x1816 <flags_commit_b_18_delay_2>
    1c06:	e2 14       	cp	r14, r2
    1c08:	8f b7       	in	r24, 0x3f	; 63
    1c0a:	05 ce       	rjmp	.-1014   	; 0x1816 <flags_commit_b_18_delay_2>
    1c0c:	02 15       	cp	r16, r2
    1c0e:	8f b7       	in	r24, 0x3f	; 63
    1c10:	02 ce       	rjmp	.-1020   	; 0x1816 <flags_commit_b_18_delay_2>
    1c12:	22 15       	cp	r18, r2
    1c14:	8f b7       	in	r24, 0x3f	; 63
    1c16:	ff cd       	rjmp	.-1026   	; 0x1816 <flags_commit_b_18_delay_2>
    1c18:	42 15       	cp	r20, r2
    1c1a:	8f b7       	in	r24, 0x3f	; 63
    1c1c:	fc cd       	rjmp	.-1032   	; 0x1816 <flags_commit_b_18_delay_2>
    1c1e:	62 15       	cp	r22, r2
    1c20:	8f b7       	in	r24, 0x3f	; 63
    1c22:	f9 cd       	rjmp	.-1038   	; 0x1816 <flags_commit_b_18_delay_2>
    1c24:	83 0c       	add	r8, r3
    1c26:	92 1c       	adc	r9, r2
    1c28:	ea cd       	rjmp	.-1068   	; 0x17fe <cluster_b_start>
    1c2a:	a3 0c       	add	r10, r3
    1c2c:	b2 1c       	adc	r11, r2
    1c2e:	e7 cd       	rjmp	.-1074   	; 0x17fe <cluster_b_start>
    1c30:	c3 0c       	add	r12, r3
    1c32:	d2 1c       	adc	r13, r2
    1c34:	e4 cd       	rjmp	.-1080   	; 0x17fe <cluster_b_start>
    1c36:	e3 0c       	add	r14, r3
    1c38:	f2 1c       	adc	r15, r2
    1c3a:	e1 cd       	rjmp	.-1086   	; 0x17fe <cluster_b_start>
    1c3c:	03 0d       	add	r16, r3
    1c3e:	12 1d       	adc	r17, r2
    1c40:	de cd       	rjmp	.-1092   	; 0x17fe <cluster_b_start>
    1c42:	23 0d       	add	r18, r3
    1c44:	32 1d       	adc	r19, r2
    1c46:	db cd       	rjmp	.-1098   	; 0x17fe <cluster_b_start>
    1c48:	43 0d       	add	r20, r3
    1c4a:	52 1d       	adc	r21, r2
    1c4c:	d8 cd       	rjmp	.-1104   	; 0x17fe <cluster_b_start>
    1c4e:	63 0d       	add	r22, r3
    1c50:	72 1d       	adc	r23, r2
    1c52:	d5 cd       	rjmp	.-1110   	; 0x17fe <cluster_b_start>
    1c54:	83 18       	sub	r8, r3
    1c56:	92 08       	sbc	r9, r2
    1c58:	d2 cd       	rjmp	.-1116   	; 0x17fe <cluster_b_start>
    1c5a:	a3 18       	sub	r10, r3
    1c5c:	b2 08       	sbc	r11, r2
    1c5e:	cf cd       	rjmp	.-1122   	; 0x17fe <cluster_b_start>
    1c60:	c3 18       	sub	r12, r3
    1c62:	d2 08       	sbc	r13, r2
    1c64:	cc cd       	rjmp	.-1128   	; 0x17fe <cluster_b_start>
    1c66:	e3 18       	sub	r14, r3
    1c68:	f2 08       	sbc	r15, r2
    1c6a:	c9 cd       	rjmp	.-1134   	; 0x17fe <cluster_b_start>
    1c6c:	03 19       	sub	r16, r3
    1c6e:	12 09       	sbc	r17, r2
    1c70:	c6 cd       	rjmp	.-1140   	; 0x17fe <cluster_b_start>
    1c72:	23 19       	sub	r18, r3
    1c74:	32 09       	sbc	r19, r2
    1c76:	c3 cd       	rjmp	.-1146   	; 0x17fe <cluster_b_start>
    1c78:	43 19       	sub	r20, r3
    1c7a:	52 09       	sbc	r21, r2
    1c7c:	c0 cd       	rjmp	.-1152   	; 0x17fe <cluster_b_start>
    1c7e:	63 19       	sub	r22, r3
    1c80:	72 09       	sbc	r23, r2
    1c82:	bd cd       	rjmp	.-1158   	; 0x17fe <cluster_b_start>

00001c84 <f4_table_end>:
    1c84:	88 14       	cp	r8, r8
    1c86:	99 04       	cpc	r9, r9
    1c88:	8f b7       	in	r24, 0x3f	; 63
    1c8a:	c7 cd       	rjmp	.-1138   	; 0x181a <flags_commit_b_18_delay_1>
    1c8c:	8a 14       	cp	r8, r10
    1c8e:	9b 04       	cpc	r9, r11
    1c90:	8f b7       	in	r24, 0x3f	; 63
    1c92:	c3 cd       	rjmp	.-1146   	; 0x181a <flags_commit_b_18_delay_1>
    1c94:	8c 14       	cp	r8, r12
    1c96:	9d 04       	cpc	r9, r13
    1c98:	8f b7       	in	r24, 0x3f	; 63
    1c9a:	bf cd       	rjmp	.-1154   	; 0x181a <flags_commit_b_18_delay_1>
    1c9c:	8e 14       	cp	r8, r14
    1c9e:	9f 04       	cpc	r9, r15
    1ca0:	8f b7       	in	r24, 0x3f	; 63
    1ca2:	bb cd       	rjmp	.-1162   	; 0x181a <flags_commit_b_18_delay_1>
    1ca4:	80 16       	cp	r8, r16
    1ca6:	91 06       	cpc	r9, r17
    1ca8:	8f b7       	in	r24, 0x3f	; 63
    1caa:	b7 cd       	rjmp	.-1170   	; 0x181a <flags_commit_b_18_delay_1>
    1cac:	82 16       	cp	r8, r18
    1cae:	93 06       	cpc	r9, r19
    1cb0:	8f b7       	in	r24, 0x3f	; 63
    1cb2:	b3 cd       	rjmp	.-1178   	; 0x181a <flags_commit_b_18_delay_1>
    1cb4:	84 16       	cp	r8, r20
    1cb6:	95 06       	cpc	r9, r21
    1cb8:	8f b7       	in	r24, 0x3f	; 63
    1cba:	af cd       	rjmp	.-1186   	; 0x181a <flags_commit_b_18_delay_1>
    1cbc:	86 16       	cp	r8, r22
    1cbe:	97 06       	cpc	r9, r23
    1cc0:	8f b7       	in	r24, 0x3f	; 63
    1cc2:	ab cd       	rjmp	.-1194   	; 0x181a <flags_commit_b_18_delay_1>
    1cc4:	a8 14       	cp	r10, r8
    1cc6:	b9 04       	cpc	r11, r9
    1cc8:	8f b7       	in	r24, 0x3f	; 63
    1cca:	a7 cd       	rjmp	.-1202   	; 0x181a <flags_commit_b_18_delay_1>
    1ccc:	aa 14       	cp	r10, r10
    1cce:	bb 04       	cpc	r11, r11
    1cd0:	8f b7       	in	r24, 0x3f	; 63
    1cd2:	a3 cd       	rjmp	.-1210   	; 0x181a <flags_commit_b_18_delay_1>
    1cd4:	ac 14       	cp	r10, r12
    1cd6:	bd 04       	cpc	r11, r13
    1cd8:	8f b7       	in	r24, 0x3f	; 63
    1cda:	9f cd       	rjmp	.-1218   	; 0x181a <flags_commit_b_18_delay_1>
    1cdc:	ae 14       	cp	r10, r14
    1cde:	bf 04       	cpc	r11, r15
    1ce0:	8f b7       	in	r24, 0x3f	; 63
    1ce2:	9b cd       	rjmp	.-1226   	; 0x181a <flags_commit_b_18_delay_1>
    1ce4:	a0 16       	cp	r10, r16
    1ce6:	b1 06       	cpc	r11, r17
    1ce8:	8f b7       	in	r24, 0x3f	; 63
    1cea:	97 cd       	rjmp	.-1234   	; 0x181a <flags_commit_b_18_delay_1>
    1cec:	a2 16       	cp	r10, r18
    1cee:	b3 06       	cpc	r11, r19
    1cf0:	8f b7       	in	r24, 0x3f	; 63
    1cf2:	93 cd       	rjmp	.-1242   	; 0x181a <flags_commit_b_18_delay_1>
    1cf4:	a4 16       	cp	r10, r20
    1cf6:	b5 06       	cpc	r11, r21
    1cf8:	8f b7       	in	r24, 0x3f	; 63
    1cfa:	8f cd       	rjmp	.-1250   	; 0x181a <flags_commit_b_18_delay_1>
    1cfc:	a6 16       	cp	r10, r22
    1cfe:	b7 06       	cpc	r11, r23
    1d00:	8f b7       	in	r24, 0x3f	; 63
    1d02:	8b cd       	rjmp	.-1258   	; 0x181a <flags_commit_b_18_delay_1>
    1d04:	c8 14       	cp	r12, r8
    1d06:	d9 04       	cpc	r13, r9
    1d08:	8f b7       	in	r24, 0x3f	; 63
    1d0a:	87 cd       	rjmp	.-1266   	; 0x181a <flags_commit_b_18_delay_1>
    1d0c:	ca 14       	cp	r12, r10
    1d0e:	db 04       	cpc	r13, r11
    1d10:	8f b7       	in	r24, 0x3f	; 63
    1d12:	83 cd       	rjmp	.-1274   	; 0x181a <flags_commit_b_18_delay_1>
    1d14:	cc 14       	cp	r12, r12
    1d16:	dd 04       	cpc	r13, r13
    1d18:	8f b7       	in	r24, 0x3f	; 63
    1d1a:	7f cd       	rjmp	.-1282   	; 0x181a <flags_commit_b_18_delay_1>
    1d1c:	ce 14       	cp	r12, r14
    1d1e:	df 04       	cpc	r13, r15
    1d20:	8f b7       	in	r24, 0x3f	; 63
    1d22:	7b cd       	rjmp	.-1290   	; 0x181a <flags_commit_b_18_delay_1>
    1d24:	c0 16       	cp	r12, r16
    1d26:	d1 06       	cpc	r13, r17
    1d28:	8f b7       	in	r24, 0x3f	; 63
    1d2a:	77 cd       	rjmp	.-1298   	; 0x181a <flags_commit_b_18_delay_1>
    1d2c:	c2 16       	cp	r12, r18
    1d2e:	d3 06       	cpc	r13, r19
    1d30:	8f b7       	in	r24, 0x3f	; 63
    1d32:	73 cd       	rjmp	.-1306   	; 0x181a <flags_commit_b_18_delay_1>
    1d34:	c4 16       	cp	r12, r20
    1d36:	d5 06       	cpc	r13, r21
    1d38:	8f b7       	in	r24, 0x3f	; 63
    1d3a:	6f cd       	rjmp	.-1314   	; 0x181a <flags_commit_b_18_delay_1>
    1d3c:	c6 16       	cp	r12, r22
    1d3e:	d7 06       	cpc	r13, r23
    1d40:	8f b7       	in	r24, 0x3f	; 63
    1d42:	6b cd       	rjmp	.-1322   	; 0x181a <flags_commit_b_18_delay_1>
    1d44:	e8 14       	cp	r14, r8
    1d46:	f9 04       	cpc	r15, r9
    1d48:	8f b7       	in	r24, 0x3f	; 63
    1d4a:	67 cd       	rjmp	.-1330   	; 0x181a <flags_commit_b_18_delay_1>
    1d4c:	ea 14       	cp	r14, r10
    1d4e:	fb 04       	cpc	r15, r11
    1d50:	8f b7       	in	r24, 0x3f	; 63
    1d52:	63 cd       	rjmp	.-1338   	; 0x181a <flags_commit_b_18_delay_1>
    1d54:	ec 14       	cp	r14, r12
    1d56:	fd 04       	cpc	r15, r13
    1d58:	8f b7       	in	r24, 0x3f	; 63
    1d5a:	5f cd       	rjmp	.-1346   	; 0x181a <flags_commit_b_18_delay_1>
    1d5c:	ee 14       	cp	r14, r14
    1d5e:	ff 04       	cpc	r15, r15
    1d60:	8f b7       	in	r24, 0x3f	; 63
    1d62:	5b cd       	rjmp	.-1354   	; 0x181a <flags_commit_b_18_delay_1>
    1d64:	e0 16       	cp	r14, r16
    1d66:	f1 06       	cpc	r15, r17
    1d68:	8f b7       	in	r24, 0x3f	; 63
    1d6a:	57 cd       	rjmp	.-1362   	; 0x181a <flags_commit_b_18_delay_1>
    1d6c:	e2 16       	cp	r14, r18
    1d6e:	f3 06       	cpc	r15, r19
    1d70:	8f b7       	in	r24, 0x3f	; 63
    1d72:	53 cd       	rjmp	.-1370   	; 0x181a <flags_commit_b_18_delay_1>
    1d74:	e4 16       	cp	r14, r20
    1d76:	f5 06       	cpc	r15, r21
    1d78:	8f b7       	in	r24, 0x3f	; 63
    1d7a:	4f cd       	rjmp	.-1378   	; 0x181a <flags_commit_b_18_delay_1>
    1d7c:	e6 16       	cp	r14, r22
    1d7e:	f7 06       	cpc	r15, r23
    1d80:	8f b7       	in	r24, 0x3f	; 63
    1d82:	4b cd       	rjmp	.-1386   	; 0x181a <flags_commit_b_18_delay_1>
    1d84:	08 15       	cp	r16, r8
    1d86:	19 05       	cpc	r17, r9
    1d88:	8f b7       	in	r24, 0x3f	; 63
    1d8a:	47 cd       	rjmp	.-1394   	; 0x181a <flags_commit_b_18_delay_1>
    1d8c:	0a 15       	cp	r16, r10
    1d8e:	1b 05       	cpc	r17, r11
    1d90:	8f b7       	in	r24, 0x3f	; 63
    1d92:	43 cd       	rjmp	.-1402   	; 0x181a <flags_commit_b_18_delay_1>
    1d94:	0c 15       	cp	r16, r12
    1d96:	1d 05       	cpc	r17, r13
    1d98:	8f b7       	in	r24, 0x3f	; 63
    1d9a:	3f cd       	rjmp	.-1410   	; 0x181a <flags_commit_b_18_delay_1>
    1d9c:	0e 15       	cp	r16, r14
    1d9e:	1f 05       	cpc	r17, r15
    1da0:	8f b7       	in	r24, 0x3f	; 63
    1da2:	3b cd       	rjmp	.-1418   	; 0x181a <flags_commit_b_18_delay_1>
    1da4:	28 15       	cp	r18, r8
    1da6:	39 05       	cpc	r19, r9
    1da8:	8f b7       	in	r24, 0x3f	; 63
    1daa:	37 cd       	rjmp	.-1426   	; 0x181a <flags_commit_b_18_delay_1>
    1dac:	2a 15       	cp	r18, r10
    1dae:	3b 05       	cpc	r19, r11
    1db0:	8f b7       	in	r24, 0x3f	; 63
    1db2:	33 cd       	rjmp	.-1434   	; 0x181a <flags_commit_b_18_delay_1>
    1db4:	2c 15       	cp	r18, r12
    1db6:	3d 05       	cpc	r19, r13
    1db8:	8f b7       	in	r24, 0x3f	; 63
    1dba:	2f cd       	rjmp	.-1442   	; 0x181a <flags_commit_b_18_delay_1>
    1dbc:	2e 15       	cp	r18, r14
    1dbe:	3f 05       	cpc	r19, r15
    1dc0:	8f b7       	in	r24, 0x3f	; 63
    1dc2:	2b cd       	rjmp	.-1450   	; 0x181a <flags_commit_b_18_delay_1>
    1dc4:	48 15       	cp	r20, r8
    1dc6:	59 05       	cpc	r21, r9
    1dc8:	8f b7       	in	r24, 0x3f	; 63
    1dca:	27 cd       	rjmp	.-1458   	; 0x181a <flags_commit_b_18_delay_1>
    1dcc:	4a 15       	cp	r20, r10
    1dce:	5b 05       	cpc	r21, r11
    1dd0:	8f b7       	in	r24, 0x3f	; 63
    1dd2:	23 cd       	rjmp	.-1466   	; 0x181a <flags_commit_b_18_delay_1>
    1dd4:	4c 15       	cp	r20, r12
    1dd6:	5d 05       	cpc	r21, r13
    1dd8:	8f b7       	in	r24, 0x3f	; 63
    1dda:	1f cd       	rjmp	.-1474   	; 0x181a <flags_commit_b_18_delay_1>
    1ddc:	4e 15       	cp	r20, r14
    1dde:	5f 05       	cpc	r21, r15
    1de0:	8f b7       	in	r24, 0x3f	; 63
    1de2:	1b cd       	rjmp	.-1482   	; 0x181a <flags_commit_b_18_delay_1>
    1de4:	68 15       	cp	r22, r8
    1de6:	79 05       	cpc	r23, r9
    1de8:	8f b7       	in	r24, 0x3f	; 63
    1dea:	17 cd       	rjmp	.-1490   	; 0x181a <flags_commit_b_18_delay_1>
    1dec:	6a 15       	cp	r22, r10
    1dee:	7b 05       	cpc	r23, r11
    1df0:	8f b7       	in	r24, 0x3f	; 63
    1df2:	13 cd       	rjmp	.-1498   	; 0x181a <flags_commit_b_18_delay_1>
    1df4:	6c 15       	cp	r22, r12
    1df6:	7d 05       	cpc	r23, r13
    1df8:	8f b7       	in	r24, 0x3f	; 63
    1dfa:	0f cd       	rjmp	.-1506   	; 0x181a <flags_commit_b_18_delay_1>
    1dfc:	6e 15       	cp	r22, r14
    1dfe:	7f 05       	cpc	r23, r15
    1e00:	8f b7       	in	r24, 0x3f	; 63
    1e02:	0b cd       	rjmp	.-1514   	; 0x181a <flags_commit_b_18_delay_1>
    1e04:	d8 01       	movw	r26, r16
    1e06:	8c 90       	ld	r8, X
    1e08:	99 24       	eor	r9, r9
    1e0a:	08 cd       	rjmp	.-1520   	; 0x181c <cluster_b_tail_18_delay_1>
    1e0c:	d8 01       	movw	r26, r16
    1e0e:	ac 90       	ld	r10, X
    1e10:	bb 24       	eor	r11, r11
    1e12:	04 cd       	rjmp	.-1528   	; 0x181c <cluster_b_tail_18_delay_1>
    1e14:	d8 01       	movw	r26, r16
    1e16:	cc 90       	ld	r12, X
    1e18:	dd 24       	eor	r13, r13
    1e1a:	00 cd       	rjmp	.-1536   	; 0x181c <cluster_b_tail_18_delay_1>
    1e1c:	d8 01       	movw	r26, r16
    1e1e:	ec 90       	ld	r14, X
    1e20:	ff 24       	eor	r15, r15
    1e22:	fc cc       	rjmp	.-1544   	; 0x181c <cluster_b_tail_18_delay_1>
    1e24:	d9 01       	movw	r26, r18
    1e26:	8c 90       	ld	r8, X
    1e28:	99 24       	eor	r9, r9
    1e2a:	f8 cc       	rjmp	.-1552   	; 0x181c <cluster_b_tail_18_delay_1>
    1e2c:	d9 01       	movw	r26, r18
    1e2e:	ac 90       	ld	r10, X
    1e30:	bb 24       	eor	r11, r11
    1e32:	f4 cc       	rjmp	.-1560   	; 0x181c <cluster_b_tail_18_delay_1>
    1e34:	d9 01       	movw	r26, r18
    1e36:	cc 90       	ld	r12, X
    1e38:	dd 24       	eor	r13, r13
    1e3a:	f0 cc       	rjmp	.-1568   	; 0x181c <cluster_b_tail_18_delay_1>
    1e3c:	d9 01       	movw	r26, r18
    1e3e:	ec 90       	ld	r14, X
    1e40:	ff 24       	eor	r15, r15
    1e42:	ec cc       	rjmp	.-1576   	; 0x181c <cluster_b_tail_18_delay_1>
    1e44:	da 01       	movw	r26, r20
    1e46:	8c 90       	ld	r8, X
    1e48:	99 24       	eor	r9, r9
    1e4a:	e8 cc       	rjmp	.-1584   	; 0x181c <cluster_b_tail_18_delay_1>
    1e4c:	da 01       	movw	r26, r20
    1e4e:	ac 90       	ld	r10, X
    1e50:	bb 24       	eor	r11, r11
    1e52:	e4 cc       	rjmp	.-1592   	; 0x181c <cluster_b_tail_18_delay_1>
    1e54:	da 01       	movw	r26, r20
    1e56:	cc 90       	ld	r12, X
    1e58:	dd 24       	eor	r13, r13
    1e5a:	e0 cc       	rjmp	.-1600   	; 0x181c <cluster_b_tail_18_delay_1>
    1e5c:	da 01       	movw	r26, r20
    1e5e:	ec 90       	ld	r14, X
    1e60:	ff 24       	eor	r15, r15
    1e62:	dc cc       	rjmp	.-1608   	; 0x181c <cluster_b_tail_18_delay_1>
    1e64:	db 01       	movw	r26, r22
    1e66:	8c 90       	ld	r8, X
    1e68:	99 24       	eor	r9, r9
    1e6a:	d8 cc       	rjmp	.-1616   	; 0x181c <cluster_b_tail_18_delay_1>
    1e6c:	db 01       	movw	r26, r22
    1e6e:	ac 90       	ld	r10, X
    1e70:	bb 24       	eor	r11, r11
    1e72:	d4 cc       	rjmp	.-1624   	; 0x181c <cluster_b_tail_18_delay_1>
    1e74:	db 01       	movw	r26, r22
    1e76:	cc 90       	ld	r12, X
    1e78:	dd 24       	eor	r13, r13
    1e7a:	d0 cc       	rjmp	.-1632   	; 0x181c <cluster_b_tail_18_delay_1>
    1e7c:	db 01       	movw	r26, r22
    1e7e:	ec 90       	ld	r14, X
    1e80:	ff 24       	eor	r15, r15
    1e82:	cc cc       	rjmp	.-1640   	; 0x181c <cluster_b_tail_18_delay_1>
    1e84:	d8 01       	movw	r26, r16
    1e86:	8d 90       	ld	r8, X+
    1e88:	9c 90       	ld	r9, X
    1e8a:	c9 cc       	rjmp	.-1646   	; 0x181e <cluster_b_tail>
    1e8c:	d8 01       	movw	r26, r16
    1e8e:	ad 90       	ld	r10, X+
    1e90:	bc 90       	ld	r11, X
    1e92:	c5 cc       	rjmp	.-1654   	; 0x181e <cluster_b_tail>
    1e94:	d8 01       	movw	r26, r16
    1e96:	cd 90       	ld	r12, X+
    1e98:	dc 90       	ld	r13, X
    1e9a:	c1 cc       	rjmp	.-1662   	; 0x181e <cluster_b_tail>
    1e9c:	d8 01       	movw	r26, r16
    1e9e:	ed 90       	ld	r14, X+
    1ea0:	fc 90       	ld	r15, X
    1ea2:	bd cc       	rjmp	.-1670   	; 0x181e <cluster_b_tail>
    1ea4:	d9 01       	movw	r26, r18
    1ea6:	8d 90       	ld	r8, X+
    1ea8:	9c 90       	ld	r9, X
    1eaa:	b9 cc       	rjmp	.-1678   	; 0x181e <cluster_b_tail>
    1eac:	d9 01       	movw	r26, r18
    1eae:	ad 90       	ld	r10, X+
    1eb0:	bc 90       	ld	r11, X
    1eb2:	b5 cc       	rjmp	.-1686   	; 0x181e <cluster_b_tail>
    1eb4:	d9 01       	movw	r26, r18
    1eb6:	cd 90       	ld	r12, X+
    1eb8:	dc 90       	ld	r13, X
    1eba:	b1 cc       	rjmp	.-1694   	; 0x181e <cluster_b_tail>
    1ebc:	d9 01       	movw	r26, r18
    1ebe:	ed 90       	ld	r14, X+
    1ec0:	fc 90       	ld	r15, X
    1ec2:	ad cc       	rjmp	.-1702   	; 0x181e <cluster_b_tail>
    1ec4:	da 01       	movw	r26, r20
    1ec6:	8d 90       	ld	r8, X+
    1ec8:	9c 90       	ld	r9, X
    1eca:	a9 cc       	rjmp	.-1710   	; 0x181e <cluster_b_tail>
    1ecc:	da 01       	movw	r26, r20
    1ece:	ad 90       	ld	r10, X+
    1ed0:	bc 90       	ld	r11, X
    1ed2:	a5 cc       	rjmp	.-1718   	; 0x181e <cluster_b_tail>
    1ed4:	da 01       	movw	r26, r20
    1ed6:	cd 90       	ld	r12, X+
    1ed8:	dc 90       	ld	r13, X
    1eda:	a1 cc       	rjmp	.-1726   	; 0x181e <cluster_b_tail>
    1edc:	da 01       	movw	r26, r20
    1ede:	ed 90       	ld	r14, X+
    1ee0:	fc 90       	ld	r15, X
    1ee2:	9d cc       	rjmp	.-1734   	; 0x181e <cluster_b_tail>
    1ee4:	db 01       	movw	r26, r22
    1ee6:	8d 90       	ld	r8, X+
    1ee8:	9c 90       	ld	r9, X
    1eea:	99 cc       	rjmp	.-1742   	; 0x181e <cluster_b_tail>
    1eec:	db 01       	movw	r26, r22
    1eee:	ad 90       	ld	r10, X+
    1ef0:	bc 90       	ld	r11, X
    1ef2:	95 cc       	rjmp	.-1750   	; 0x181e <cluster_b_tail>
    1ef4:	db 01       	movw	r26, r22
    1ef6:	cd 90       	ld	r12, X+
    1ef8:	dc 90       	ld	r13, X
    1efa:	91 cc       	rjmp	.-1758   	; 0x181e <cluster_b_tail>
    1efc:	db 01       	movw	r26, r22
    1efe:	ed 90       	ld	r14, X+
    1f00:	fc 90       	ld	r15, X
    1f02:	8d cc       	rjmp	.-1766   	; 0x181e <cluster_b_tail>
    1f04:	d8 01       	movw	r26, r16
    1f06:	8d 92       	st	X+, r8
    1f08:	9c 92       	st	X, r9
    1f0a:	89 cc       	rjmp	.-1774   	; 0x181e <cluster_b_tail>
    1f0c:	d8 01       	movw	r26, r16
    1f0e:	ad 92       	st	X+, r10
    1f10:	bc 92       	st	X, r11
    1f12:	85 cc       	rjmp	.-1782   	; 0x181e <cluster_b_tail>
    1f14:	d8 01       	movw	r26, r16
    1f16:	cd 92       	st	X+, r12
    1f18:	dc 92       	st	X, r13
    1f1a:	81 cc       	rjmp	.-1790   	; 0x181e <cluster_b_tail>
    1f1c:	d8 01       	movw	r26, r16
    1f1e:	ed 92       	st	X+, r14
    1f20:	fc 92       	st	X, r15
    1f22:	7d cc       	rjmp	.-1798   	; 0x181e <cluster_b_tail>
    1f24:	d9 01       	movw	r26, r18
    1f26:	8d 92       	st	X+, r8
    1f28:	9c 92       	st	X, r9
    1f2a:	79 cc       	rjmp	.-1806   	; 0x181e <cluster_b_tail>
    1f2c:	d9 01       	movw	r26, r18
    1f2e:	ad 92       	st	X+, r10
    1f30:	bc 92       	st	X, r11
    1f32:	75 cc       	rjmp	.-1814   	; 0x181e <cluster_b_tail>
    1f34:	d9 01       	movw	r26, r18
    1f36:	cd 92       	st	X+, r12
    1f38:	dc 92       	st	X, r13
    1f3a:	71 cc       	rjmp	.-1822   	; 0x181e <cluster_b_tail>
    1f3c:	d9 01       	movw	r26, r18
    1f3e:	ed 92       	st	X+, r14
    1f40:	fc 92       	st	X, r15
    1f42:	6d cc       	rjmp	.-1830   	; 0x181e <cluster_b_tail>
    1f44:	da 01       	movw	r26, r20
    1f46:	8d 92       	st	X+, r8
    1f48:	9c 92       	st	X, r9
    1f4a:	69 cc       	rjmp	.-1838   	; 0x181e <cluster_b_tail>
    1f4c:	da 01       	movw	r26, r20
    1f4e:	ad 92       	st	X+, r10
    1f50:	bc 92       	st	X, r11
    1f52:	65 cc       	rjmp	.-1846   	; 0x181e <cluster_b_tail>
    1f54:	da 01       	movw	r26, r20
    1f56:	cd 92       	st	X+, r12
    1f58:	dc 92       	st	X, r13
    1f5a:	61 cc       	rjmp	.-1854   	; 0x181e <cluster_b_tail>
    1f5c:	da 01       	movw	r26, r20
    1f5e:	ed 92       	st	X+, r14
    1f60:	fc 92       	st	X, r15
    1f62:	5d cc       	rjmp	.-1862   	; 0x181e <cluster_b_tail>
    1f64:	db 01       	movw	r26, r22
    1f66:	8d 92       	st	X+, r8
    1f68:	9c 92       	st	X, r9
    1f6a:	59 cc       	rjmp	.-1870   	; 0x181e <cluster_b_tail>
    1f6c:	db 01       	movw	r26, r22
    1f6e:	ad 92       	st	X+, r10
    1f70:	bc 92       	st	X, r11
    1f72:	55 cc       	rjmp	.-1878   	; 0x181e <cluster_b_tail>
    1f74:	db 01       	movw	r26, r22
    1f76:	cd 92       	st	X+, r12
    1f78:	dc 92       	st	X, r13
    1f7a:	51 cc       	rjmp	.-1886   	; 0x181e <cluster_b_tail>
    1f7c:	db 01       	movw	r26, r22
    1f7e:	ed 92       	st	X+, r14
    1f80:	fc 92       	st	X, r15
    1f82:	4d cc       	rjmp	.-1894   	; 0x181e <cluster_b_tail>

00001f84 <f5_table_end>:
    1f84:	d8 01       	movw	r26, r16
    1f86:	8d 92       	st	X+, r8
    1f88:	8d 01       	movw	r16, r26
    1f8a:	48 cc       	rjmp	.-1904   	; 0x181c <cluster_b_tail_18_delay_1>
    1f8c:	d8 01       	movw	r26, r16
    1f8e:	ad 92       	st	X+, r10
    1f90:	8d 01       	movw	r16, r26
    1f92:	44 cc       	rjmp	.-1912   	; 0x181c <cluster_b_tail_18_delay_1>
    1f94:	d8 01       	movw	r26, r16
    1f96:	cd 92       	st	X+, r12
    1f98:	8d 01       	movw	r16, r26
    1f9a:	40 cc       	rjmp	.-1920   	; 0x181c <cluster_b_tail_18_delay_1>
    1f9c:	d8 01       	movw	r26, r16
    1f9e:	ed 92       	st	X+, r14
    1fa0:	8d 01       	movw	r16, r26
    1fa2:	3c cc       	rjmp	.-1928   	; 0x181c <cluster_b_tail_18_delay_1>
    1fa4:	d8 01       	movw	r26, r16
    1fa6:	0d 93       	st	X+, r16
    1fa8:	8d 01       	movw	r16, r26
    1faa:	38 cc       	rjmp	.-1936   	; 0x181c <cluster_b_tail_18_delay_1>
    1fac:	d8 01       	movw	r26, r16
    1fae:	2d 93       	st	X+, r18
    1fb0:	8d 01       	movw	r16, r26
    1fb2:	34 cc       	rjmp	.-1944   	; 0x181c <cluster_b_tail_18_delay_1>
    1fb4:	d8 01       	movw	r26, r16
    1fb6:	4d 93       	st	X+, r20
    1fb8:	8d 01       	movw	r16, r26
    1fba:	30 cc       	rjmp	.-1952   	; 0x181c <cluster_b_tail_18_delay_1>
    1fbc:	d8 01       	movw	r26, r16
    1fbe:	6d 93       	st	X+, r22
    1fc0:	8d 01       	movw	r16, r26
    1fc2:	2c cc       	rjmp	.-1960   	; 0x181c <cluster_b_tail_18_delay_1>
    1fc4:	d9 01       	movw	r26, r18
    1fc6:	8d 92       	st	X+, r8
    1fc8:	9d 01       	movw	r18, r26
    1fca:	28 cc       	rjmp	.-1968   	; 0x181c <cluster_b_tail_18_delay_1>
    1fcc:	d9 01       	movw	r26, r18
    1fce:	ad 92       	st	X+, r10
    1fd0:	9d 01       	movw	r18, r26
    1fd2:	24 cc       	rjmp	.-1976   	; 0x181c <cluster_b_tail_18_delay_1>
    1fd4:	d9 01       	movw	r26, r18
    1fd6:	cd 92       	st	X+, r12
    1fd8:	9d 01       	movw	r18, r26
    1fda:	20 cc       	rjmp	.-1984   	; 0x181c <cluster_b_tail_18_delay_1>
    1fdc:	d9 01       	movw	r26, r18
    1fde:	ed 92       	st	X+, r14
    1fe0:	9d 01       	movw	r18, r26
    1fe2:	1c cc       	rjmp	.-1992   	; 0x181c <cluster_b_tail_18_delay_1>
    1fe4:	d9 01       	movw	r26, r18
    1fe6:	0d 93       	st	X+, r16
    1fe8:	9d 01       	movw	r18, r26
    1fea:	18 cc       	rjmp	.-2000   	; 0x181c <cluster_b_tail_18_delay_1>
    1fec:	d9 01       	movw	r26, r18
    1fee:	2d 93       	st	X+, r18
    1ff0:	9d 01       	movw	r18, r26
    1ff2:	14 cc       	rjmp	.-2008   	; 0x181c <cluster_b_tail_18_delay_1>
    1ff4:	d9 01       	movw	r26, r18
    1ff6:	4d 93       	st	X+, r20
    1ff8:	9d 01       	movw	r18, r26
    1ffa:	10 cc       	rjmp	.-2016   	; 0x181c <cluster_b_tail_18_delay_1>
    1ffc:	d9 01       	movw	r26, r18
    1ffe:	6d 93       	st	X+, r22
    2000:	9d 01       	movw	r18, r26
    2002:	0c cc       	rjmp	.-2024   	; 0x181c <cluster_b_tail_18_delay_1>
    2004:	da 01       	movw	r26, r20
    2006:	8d 92       	st	X+, r8
    2008:	ad 01       	movw	r20, r26
    200a:	08 cc       	rjmp	.-2032   	; 0x181c <cluster_b_tail_18_delay_1>
    200c:	da 01       	movw	r26, r20
    200e:	ad 92       	st	X+, r10
    2010:	ad 01       	movw	r20, r26
    2012:	04 cc       	rjmp	.-2040   	; 0x181c <cluster_b_tail_18_delay_1>
    2014:	da 01       	movw	r26, r20
    2016:	cd 92       	st	X+, r12
    2018:	ad 01       	movw	r20, r26
    201a:	00 cc       	rjmp	.-2048   	; 0x181c <cluster_b_tail_18_delay_1>
    201c:	da 01       	movw	r26, r20
    201e:	ed 92       	st	X+, r14
    2020:	ad 01       	movw	r20, r26
    2022:	fc cb       	rjmp	.-2056   	; 0x181c <cluster_b_tail_18_delay_1>
    2024:	da 01       	movw	r26, r20
    2026:	0d 93       	st	X+, r16
    2028:	ad 01       	movw	r20, r26
    202a:	f8 cb       	rjmp	.-2064   	; 0x181c <cluster_b_tail_18_delay_1>
    202c:	da 01       	movw	r26, r20
    202e:	2d 93       	st	X+, r18
    2030:	ad 01       	movw	r20, r26
    2032:	f4 cb       	rjmp	.-2072   	; 0x181c <cluster_b_tail_18_delay_1>
    2034:	da 01       	movw	r26, r20
    2036:	4d 93       	st	X+, r20
    2038:	ad 01       	movw	r20, r26
    203a:	f0 cb       	rjmp	.-2080   	; 0x181c <cluster_b_tail_18_delay_1>
    203c:	da 01       	movw	r26, r20
    203e:	6d 93       	st	X+, r22
    2040:	ad 01       	movw	r20, r26
    2042:	ec cb       	rjmp	.-2088   	; 0x181c <cluster_b_tail_18_delay_1>
    2044:	db 01       	movw	r26, r22
    2046:	8d 92       	st	X+, r8
    2048:	bd 01       	movw	r22, r26
    204a:	e8 cb       	rjmp	.-2096   	; 0x181c <cluster_b_tail_18_delay_1>
    204c:	db 01       	movw	r26, r22
    204e:	ad 92       	st	X+, r10
    2050:	bd 01       	movw	r22, r26
    2052:	e4 cb       	rjmp	.-2104   	; 0x181c <cluster_b_tail_18_delay_1>
    2054:	db 01       	movw	r26, r22
    2056:	cd 92       	st	X+, r12
    2058:	bd 01       	movw	r22, r26
    205a:	e0 cb       	rjmp	.-2112   	; 0x181c <cluster_b_tail_18_delay_1>
    205c:	db 01       	movw	r26, r22
    205e:	ed 92       	st	X+, r14
    2060:	bd 01       	movw	r22, r26
    2062:	dc cb       	rjmp	.-2120   	; 0x181c <cluster_b_tail_18_delay_1>
    2064:	db 01       	movw	r26, r22
    2066:	0d 93       	st	X+, r16
    2068:	bd 01       	movw	r22, r26
    206a:	d8 cb       	rjmp	.-2128   	; 0x181c <cluster_b_tail_18_delay_1>
    206c:	db 01       	movw	r26, r22
    206e:	2d 93       	st	X+, r18
    2070:	bd 01       	movw	r22, r26
    2072:	d4 cb       	rjmp	.-2136   	; 0x181c <cluster_b_tail_18_delay_1>
    2074:	db 01       	movw	r26, r22
    2076:	4d 93       	st	X+, r20
    2078:	bd 01       	movw	r22, r26
    207a:	d0 cb       	rjmp	.-2144   	; 0x181c <cluster_b_tail_18_delay_1>
    207c:	db 01       	movw	r26, r22
    207e:	6d 93       	st	X+, r22
    2080:	bd 01       	movw	r22, r26
    2082:	cc cb       	rjmp	.-2152   	; 0x181c <cluster_b_tail_18_delay_1>
    2084:	88 2d       	mov	r24, r8
    2086:	89 2c       	mov	r8, r9
    2088:	98 2e       	mov	r9, r24
    208a:	c6 cb       	rjmp	.-2164   	; 0x1818 <cluster_b_tail_18_delay_2>
    208c:	8a 2d       	mov	r24, r10
    208e:	ab 2c       	mov	r10, r11
    2090:	b8 2e       	mov	r11, r24
    2092:	c2 cb       	rjmp	.-2172   	; 0x1818 <cluster_b_tail_18_delay_2>
    2094:	8c 2d       	mov	r24, r12
    2096:	cd 2c       	mov	r12, r13
    2098:	d8 2e       	mov	r13, r24
    209a:	be cb       	rjmp	.-2180   	; 0x1818 <cluster_b_tail_18_delay_2>
    209c:	8e 2d       	mov	r24, r14
    209e:	ef 2c       	mov	r14, r15
    20a0:	f8 2e       	mov	r15, r24
    20a2:	ba cb       	rjmp	.-2188   	; 0x1818 <cluster_b_tail_18_delay_2>
    20a4:	80 2f       	mov	r24, r16
    20a6:	01 2f       	mov	r16, r17
    20a8:	18 2f       	mov	r17, r24
    20aa:	b6 cb       	rjmp	.-2196   	; 0x1818 <cluster_b_tail_18_delay_2>
    20ac:	82 2f       	mov	r24, r18
    20ae:	23 2f       	mov	r18, r19
    20b0:	38 2f       	mov	r19, r24
    20b2:	b2 cb       	rjmp	.-2204   	; 0x1818 <cluster_b_tail_18_delay_2>
    20b4:	84 2f       	mov	r24, r20
    20b6:	45 2f       	mov	r20, r21
    20b8:	58 2f       	mov	r21, r24
    20ba:	ae cb       	rjmp	.-2212   	; 0x1818 <cluster_b_tail_18_delay_2>
    20bc:	86 2f       	mov	r24, r22
    20be:	67 2f       	mov	r22, r23
    20c0:	78 2f       	mov	r23, r24
    20c2:	aa cb       	rjmp	.-2220   	; 0x1818 <cluster_b_tail_18_delay_2>
    20c4:	82 14       	cp	r8, r2
    20c6:	92 04       	cpc	r9, r2
    20c8:	8f b7       	in	r24, 0x3f	; 63
    20ca:	a7 cb       	rjmp	.-2226   	; 0x181a <flags_commit_b_18_delay_1>
    20cc:	a2 14       	cp	r10, r2
    20ce:	b2 04       	cpc	r11, r2
    20d0:	8f b7       	in	r24, 0x3f	; 63
    20d2:	a3 cb       	rjmp	.-2234   	; 0x181a <flags_commit_b_18_delay_1>
    20d4:	c2 14       	cp	r12, r2
    20d6:	d2 04       	cpc	r13, r2
    20d8:	8f b7       	in	r24, 0x3f	; 63
    20da:	9f cb       	rjmp	.-2242   	; 0x181a <flags_commit_b_18_delay_1>
    20dc:	e2 14       	cp	r14, r2
    20de:	f2 04       	cpc	r15, r2
    20e0:	8f b7       	in	r24, 0x3f	; 63
    20e2:	9b cb       	rjmp	.-2250   	; 0x181a <flags_commit_b_18_delay_1>
    20e4:	02 15       	cp	r16, r2
    20e6:	12 05       	cpc	r17, r2
    20e8:	8f b7       	in	r24, 0x3f	; 63
    20ea:	97 cb       	rjmp	.-2258   	; 0x181a <flags_commit_b_18_delay_1>
    20ec:	22 15       	cp	r18, r2
    20ee:	32 05       	cpc	r19, r2
    20f0:	8f b7       	in	r24, 0x3f	; 63
    20f2:	93 cb       	rjmp	.-2266   	; 0x181a <flags_commit_b_18_delay_1>
    20f4:	42 15       	cp	r20, r2
    20f6:	52 05       	cpc	r21, r2
    20f8:	8f b7       	in	r24, 0x3f	; 63
    20fa:	8f cb       	rjmp	.-2274   	; 0x181a <flags_commit_b_18_delay_1>
    20fc:	62 15       	cp	r22, r2
    20fe:	72 05       	cpc	r23, r2
    2100:	8f b7       	in	r24, 0x3f	; 63
    2102:	8b cb       	rjmp	.-2282   	; 0x181a <flags_commit_b_18_delay_1>
    2104:	00 9f       	mul	r16, r16
    2106:	00 2d       	mov	r16, r0
    2108:	11 27       	eor	r17, r17
    210a:	88 cb       	rjmp	.-2288   	; 0x181c <cluster_b_tail_18_delay_1>
    210c:	02 9f       	mul	r16, r18
    210e:	00 2d       	mov	r16, r0
    2110:	11 27       	eor	r17, r17
    2112:	84 cb       	rjmp	.-2296   	; 0x181c <cluster_b_tail_18_delay_1>
    2114:	04 9f       	mul	r16, r20
    2116:	00 2d       	mov	r16, r0
    2118:	11 27       	eor	r17, r17
    211a:	80 cb       	rjmp	.-2304   	; 0x181c <cluster_b_tail_18_delay_1>
    211c:	06 9f       	mul	r16, r22
    211e:	00 2d       	mov	r16, r0
    2120:	11 27       	eor	r17, r17
    2122:	7c cb       	rjmp	.-2312   	; 0x181c <cluster_b_tail_18_delay_1>
    2124:	20 9f       	mul	r18, r16
    2126:	20 2d       	mov	r18, r0
    2128:	33 27       	eor	r19, r19
    212a:	78 cb       	rjmp	.-2320   	; 0x181c <cluster_b_tail_18_delay_1>
    212c:	22 9f       	mul	r18, r18
    212e:	20 2d       	mov	r18, r0
    2130:	33 27       	eor	r19, r19
    2132:	74 cb       	rjmp	.-2328   	; 0x181c <cluster_b_tail_18_delay_1>
    2134:	24 9f       	mul	r18, r20
    2136:	20 2d       	mov	r18, r0
    2138:	33 27       	eor	r19, r19
    213a:	70 cb       	rjmp	.-2336   	; 0x181c <cluster_b_tail_18_delay_1>
    213c:	26 9f       	mul	r18, r22
    213e:	20 2d       	mov	r18, r0
    2140:	33 27       	eor	r19, r19
    2142:	6c cb       	rjmp	.-2344   	; 0x181c <cluster_b_tail_18_delay_1>
    2144:	40 9f       	mul	r20, r16
    2146:	40 2d       	mov	r20, r0
    2148:	55 27       	eor	r21, r21
    214a:	68 cb       	rjmp	.-2352   	; 0x181c <cluster_b_tail_18_delay_1>
    214c:	42 9f       	mul	r20, r18
    214e:	40 2d       	mov	r20, r0
    2150:	55 27       	eor	r21, r21
    2152:	64 cb       	rjmp	.-2360   	; 0x181c <cluster_b_tail_18_delay_1>
    2154:	44 9f       	mul	r20, r20
    2156:	40 2d       	mov	r20, r0
    2158:	55 27       	eor	r21, r21
    215a:	60 cb       	rjmp	.-2368   	; 0x181c <cluster_b_tail_18_delay_1>
    215c:	46 9f       	mul	r20, r22
    215e:	40 2d       	mov	r20, r0
    2160:	55 27       	eor	r21, r21
    2162:	5c cb       	rjmp	.-2376   	; 0x181c <cluster_b_tail_18_delay_1>
    2164:	60 9f       	mul	r22, r16
    2166:	60 2d       	mov	r22, r0
    2168:	77 27       	eor	r23, r23
    216a:	58 cb       	rjmp	.-2384   	; 0x181c <cluster_b_tail_18_delay_1>
    216c:	62 9f       	mul	r22, r18
    216e:	60 2d       	mov	r22, r0
    2170:	77 27       	eor	r23, r23
    2172:	54 cb       	rjmp	.-2392   	; 0x181c <cluster_b_tail_18_delay_1>
    2174:	64 9f       	mul	r22, r20
    2176:	60 2d       	mov	r22, r0
    2178:	77 27       	eor	r23, r23
    217a:	50 cb       	rjmp	.-2400   	; 0x181c <cluster_b_tail_18_delay_1>
    217c:	66 9f       	mul	r22, r22
    217e:	60 2d       	mov	r22, r0
    2180:	77 27       	eor	r23, r23
    2182:	4c cb       	rjmp	.-2408   	; 0x181c <cluster_b_tail_18_delay_1>
    2184:	99 24       	eor	r9, r9
    2186:	87 fc       	sbrc	r8, 7
    2188:	9a 94       	dec	r9
    218a:	46 cb       	rjmp	.-2420   	; 0x1818 <cluster_b_tail_18_delay_2>
    218c:	bb 24       	eor	r11, r11
    218e:	a7 fc       	sbrc	r10, 7
    2190:	ba 94       	dec	r11
    2192:	42 cb       	rjmp	.-2428   	; 0x1818 <cluster_b_tail_18_delay_2>
    2194:	dd 24       	eor	r13, r13
    2196:	c7 fc       	sbrc	r12, 7
    2198:	da 94       	dec	r13
    219a:	3e cb       	rjmp	.-2436   	; 0x1818 <cluster_b_tail_18_delay_2>
    219c:	ff 24       	eor	r15, r15
    219e:	e7 fc       	sbrc	r14, 7
    21a0:	fa 94       	dec	r15
    21a2:	3a cb       	rjmp	.-2444   	; 0x1818 <cluster_b_tail_18_delay_2>
    21a4:	11 27       	eor	r17, r17
    21a6:	07 fd       	sbrc	r16, 7
    21a8:	1a 95       	dec	r17
    21aa:	36 cb       	rjmp	.-2452   	; 0x1818 <cluster_b_tail_18_delay_2>
    21ac:	33 27       	eor	r19, r19
    21ae:	27 fd       	sbrc	r18, 7
    21b0:	3a 95       	dec	r19
    21b2:	32 cb       	rjmp	.-2460   	; 0x1818 <cluster_b_tail_18_delay_2>
    21b4:	55 27       	eor	r21, r21
    21b6:	47 fd       	sbrc	r20, 7
    21b8:	5a 95       	dec	r21
    21ba:	2e cb       	rjmp	.-2468   	; 0x1818 <cluster_b_tail_18_delay_2>
    21bc:	77 27       	eor	r23, r23
    21be:	67 fd       	sbrc	r22, 7
    21c0:	7a 95       	dec	r23
    21c2:	2a cb       	rjmp	.-2476   	; 0x1818 <cluster_b_tail_18_delay_2>
    21c4:	81 94       	neg	r8
    21c6:	92 1c       	adc	r9, r2
    21c8:	91 94       	neg	r9
    21ca:	26 cb       	rjmp	.-2484   	; 0x1818 <cluster_b_tail_18_delay_2>
    21cc:	a1 94       	neg	r10
    21ce:	b2 1c       	adc	r11, r2
    21d0:	b1 94       	neg	r11
    21d2:	22 cb       	rjmp	.-2492   	; 0x1818 <cluster_b_tail_18_delay_2>
    21d4:	c1 94       	neg	r12
    21d6:	d2 1c       	adc	r13, r2
    21d8:	d1 94       	neg	r13
    21da:	1e cb       	rjmp	.-2500   	; 0x1818 <cluster_b_tail_18_delay_2>
    21dc:	e1 94       	neg	r14
    21de:	f2 1c       	adc	r15, r2
    21e0:	f1 94       	neg	r15
    21e2:	1a cb       	rjmp	.-2508   	; 0x1818 <cluster_b_tail_18_delay_2>
    21e4:	01 95       	neg	r16
    21e6:	12 1d       	adc	r17, r2
    21e8:	11 95       	neg	r17
    21ea:	16 cb       	rjmp	.-2516   	; 0x1818 <cluster_b_tail_18_delay_2>
    21ec:	21 95       	neg	r18
    21ee:	32 1d       	adc	r19, r2
    21f0:	31 95       	neg	r19
    21f2:	12 cb       	rjmp	.-2524   	; 0x1818 <cluster_b_tail_18_delay_2>
    21f4:	41 95       	neg	r20
    21f6:	52 1d       	adc	r21, r2
    21f8:	51 95       	neg	r21
    21fa:	0e cb       	rjmp	.-2532   	; 0x1818 <cluster_b_tail_18_delay_2>
    21fc:	61 95       	neg	r22
    21fe:	72 1d       	adc	r23, r2
    2200:	71 95       	neg	r23
    2202:	0a cb       	rjmp	.-2540   	; 0x1818 <cluster_b_tail_18_delay_2>

00002204 <f6_table_end>:
    2204:	d8 01       	movw	r26, r16
    2206:	8d 90       	ld	r8, X+
    2208:	8d 01       	movw	r16, r26
    220a:	99 24       	eor	r9, r9
    220c:	d9 c2       	rjmp	.+1458   	; 0x27c0 <cluster_c_tail>
    220e:	d8 01       	movw	r26, r16
    2210:	ad 90       	ld	r10, X+
    2212:	8d 01       	movw	r16, r26
    2214:	bb 24       	eor	r11, r11
    2216:	d4 c2       	rjmp	.+1448   	; 0x27c0 <cluster_c_tail>
    2218:	d8 01       	movw	r26, r16
    221a:	cd 90       	ld	r12, X+
    221c:	8d 01       	movw	r16, r26
    221e:	dd 24       	eor	r13, r13
    2220:	cf c2       	rjmp	.+1438   	; 0x27c0 <cluster_c_tail>
    2222:	d8 01       	movw	r26, r16
    2224:	ed 90       	ld	r14, X+
    2226:	8d 01       	movw	r16, r26
    2228:	ff 24       	eor	r15, r15
    222a:	ca c2       	rjmp	.+1428   	; 0x27c0 <cluster_c_tail>
    222c:	02 cb       	rjmp	.-2556   	; 0x1832 <secondary_invalid_b_func>
    222e:	00 00       	nop
    2230:	00 00       	nop
    2232:	00 00       	nop
    2234:	00 00       	nop
    2236:	d8 01       	movw	r26, r16
    2238:	2d 91       	ld	r18, X+
    223a:	8d 01       	movw	r16, r26
    223c:	33 27       	eor	r19, r19
    223e:	c0 c2       	rjmp	.+1408   	; 0x27c0 <cluster_c_tail>
    2240:	d8 01       	movw	r26, r16
    2242:	4d 91       	ld	r20, X+
    2244:	8d 01       	movw	r16, r26
    2246:	55 27       	eor	r21, r21
    2248:	bb c2       	rjmp	.+1398   	; 0x27c0 <cluster_c_tail>
    224a:	d8 01       	movw	r26, r16
    224c:	6d 91       	ld	r22, X+
    224e:	8d 01       	movw	r16, r26
    2250:	77 27       	eor	r23, r23
    2252:	b6 c2       	rjmp	.+1388   	; 0x27c0 <cluster_c_tail>
    2254:	d9 01       	movw	r26, r18
    2256:	8d 90       	ld	r8, X+
    2258:	9d 01       	movw	r18, r26
    225a:	99 24       	eor	r9, r9
    225c:	b1 c2       	rjmp	.+1378   	; 0x27c0 <cluster_c_tail>
    225e:	d9 01       	movw	r26, r18
    2260:	ad 90       	ld	r10, X+
    2262:	9d 01       	movw	r18, r26
    2264:	bb 24       	eor	r11, r11
    2266:	ac c2       	rjmp	.+1368   	; 0x27c0 <cluster_c_tail>
    2268:	d9 01       	movw	r26, r18
    226a:	cd 90       	ld	r12, X+
    226c:	9d 01       	movw	r18, r26
    226e:	dd 24       	eor	r13, r13
    2270:	a7 c2       	rjmp	.+1358   	; 0x27c0 <cluster_c_tail>
    2272:	d9 01       	movw	r26, r18
    2274:	ed 90       	ld	r14, X+
    2276:	9d 01       	movw	r18, r26
    2278:	ff 24       	eor	r15, r15
    227a:	a2 c2       	rjmp	.+1348   	; 0x27c0 <cluster_c_tail>
    227c:	d9 01       	movw	r26, r18
    227e:	0d 91       	ld	r16, X+
    2280:	9d 01       	movw	r18, r26
    2282:	11 27       	eor	r17, r17
    2284:	9d c2       	rjmp	.+1338   	; 0x27c0 <cluster_c_tail>
    2286:	d5 ca       	rjmp	.-2646   	; 0x1832 <secondary_invalid_b_func>
    2288:	00 00       	nop
    228a:	00 00       	nop
    228c:	00 00       	nop
    228e:	00 00       	nop
    2290:	d9 01       	movw	r26, r18
    2292:	4d 91       	ld	r20, X+
    2294:	9d 01       	movw	r18, r26
    2296:	55 27       	eor	r21, r21
    2298:	93 c2       	rjmp	.+1318   	; 0x27c0 <cluster_c_tail>
    229a:	d9 01       	movw	r26, r18
    229c:	6d 91       	ld	r22, X+
    229e:	9d 01       	movw	r18, r26
    22a0:	77 27       	eor	r23, r23
    22a2:	8e c2       	rjmp	.+1308   	; 0x27c0 <cluster_c_tail>
    22a4:	da 01       	movw	r26, r20
    22a6:	8d 90       	ld	r8, X+
    22a8:	ad 01       	movw	r20, r26
    22aa:	99 24       	eor	r9, r9
    22ac:	89 c2       	rjmp	.+1298   	; 0x27c0 <cluster_c_tail>
    22ae:	da 01       	movw	r26, r20
    22b0:	ad 90       	ld	r10, X+
    22b2:	ad 01       	movw	r20, r26
    22b4:	bb 24       	eor	r11, r11
    22b6:	84 c2       	rjmp	.+1288   	; 0x27c0 <cluster_c_tail>
    22b8:	da 01       	movw	r26, r20
    22ba:	cd 90       	ld	r12, X+
    22bc:	ad 01       	movw	r20, r26
    22be:	dd 24       	eor	r13, r13
    22c0:	7f c2       	rjmp	.+1278   	; 0x27c0 <cluster_c_tail>
    22c2:	da 01       	movw	r26, r20
    22c4:	ed 90       	ld	r14, X+
    22c6:	ad 01       	movw	r20, r26
    22c8:	ff 24       	eor	r15, r15
    22ca:	7a c2       	rjmp	.+1268   	; 0x27c0 <cluster_c_tail>
    22cc:	da 01       	movw	r26, r20
    22ce:	0d 91       	ld	r16, X+
    22d0:	ad 01       	movw	r20, r26
    22d2:	11 27       	eor	r17, r17
    22d4:	75 c2       	rjmp	.+1258   	; 0x27c0 <cluster_c_tail>
    22d6:	da 01       	movw	r26, r20
    22d8:	2d 91       	ld	r18, X+
    22da:	ad 01       	movw	r20, r26
    22dc:	33 27       	eor	r19, r19
    22de:	70 c2       	rjmp	.+1248   	; 0x27c0 <cluster_c_tail>
    22e0:	a8 ca       	rjmp	.-2736   	; 0x1832 <secondary_invalid_b_func>
    22e2:	00 00       	nop
    22e4:	00 00       	nop
    22e6:	00 00       	nop
    22e8:	00 00       	nop
    22ea:	da 01       	movw	r26, r20
    22ec:	6d 91       	ld	r22, X+
    22ee:	ad 01       	movw	r20, r26
    22f0:	77 27       	eor	r23, r23
    22f2:	66 c2       	rjmp	.+1228   	; 0x27c0 <cluster_c_tail>
    22f4:	db 01       	movw	r26, r22
    22f6:	8d 90       	ld	r8, X+
    22f8:	bd 01       	movw	r22, r26
    22fa:	99 24       	eor	r9, r9
    22fc:	61 c2       	rjmp	.+1218   	; 0x27c0 <cluster_c_tail>
    22fe:	db 01       	movw	r26, r22
    2300:	ad 90       	ld	r10, X+
    2302:	bd 01       	movw	r22, r26
    2304:	bb 24       	eor	r11, r11
    2306:	5c c2       	rjmp	.+1208   	; 0x27c0 <cluster_c_tail>
    2308:	db 01       	movw	r26, r22
    230a:	cd 90       	ld	r12, X+
    230c:	bd 01       	movw	r22, r26
    230e:	dd 24       	eor	r13, r13
    2310:	57 c2       	rjmp	.+1198   	; 0x27c0 <cluster_c_tail>
    2312:	db 01       	movw	r26, r22
    2314:	ed 90       	ld	r14, X+
    2316:	bd 01       	movw	r22, r26
    2318:	ff 24       	eor	r15, r15
    231a:	52 c2       	rjmp	.+1188   	; 0x27c0 <cluster_c_tail>
    231c:	db 01       	movw	r26, r22
    231e:	0d 91       	ld	r16, X+
    2320:	bd 01       	movw	r22, r26
    2322:	11 27       	eor	r17, r17
    2324:	4d c2       	rjmp	.+1178   	; 0x27c0 <cluster_c_tail>
    2326:	db 01       	movw	r26, r22
    2328:	2d 91       	ld	r18, X+
    232a:	bd 01       	movw	r22, r26
    232c:	33 27       	eor	r19, r19
    232e:	48 c2       	rjmp	.+1168   	; 0x27c0 <cluster_c_tail>
    2330:	db 01       	movw	r26, r22
    2332:	4d 91       	ld	r20, X+
    2334:	bd 01       	movw	r22, r26
    2336:	55 27       	eor	r21, r21
    2338:	43 c2       	rjmp	.+1158   	; 0x27c0 <cluster_c_tail>
    233a:	7b ca       	rjmp	.-2826   	; 0x1832 <secondary_invalid_b_func>
    233c:	00 00       	nop
    233e:	00 00       	nop
    2340:	00 00       	nop
    2342:	00 00       	nop
    2344:	d8 01       	movw	r26, r16
    2346:	8d 90       	ld	r8, X+
    2348:	9d 90       	ld	r9, X+
    234a:	8d 01       	movw	r16, r26
    234c:	39 c2       	rjmp	.+1138   	; 0x27c0 <cluster_c_tail>
    234e:	d8 01       	movw	r26, r16
    2350:	ad 90       	ld	r10, X+
    2352:	bd 90       	ld	r11, X+
    2354:	8d 01       	movw	r16, r26
    2356:	34 c2       	rjmp	.+1128   	; 0x27c0 <cluster_c_tail>
    2358:	d8 01       	movw	r26, r16
    235a:	cd 90       	ld	r12, X+
    235c:	dd 90       	ld	r13, X+
    235e:	8d 01       	movw	r16, r26
    2360:	2f c2       	rjmp	.+1118   	; 0x27c0 <cluster_c_tail>
    2362:	d8 01       	movw	r26, r16
    2364:	ed 90       	ld	r14, X+
    2366:	fd 90       	ld	r15, X+
    2368:	8d 01       	movw	r16, r26
    236a:	2a c2       	rjmp	.+1108   	; 0x27c0 <cluster_c_tail>
    236c:	62 ca       	rjmp	.-2876   	; 0x1832 <secondary_invalid_b_func>
    236e:	00 00       	nop
    2370:	00 00       	nop
    2372:	00 00       	nop
    2374:	00 00       	nop
    2376:	d8 01       	movw	r26, r16
    2378:	2d 91       	ld	r18, X+
    237a:	3d 91       	ld	r19, X+
    237c:	8d 01       	movw	r16, r26
    237e:	20 c2       	rjmp	.+1088   	; 0x27c0 <cluster_c_tail>
    2380:	d8 01       	movw	r26, r16
    2382:	4d 91       	ld	r20, X+
    2384:	5d 91       	ld	r21, X+
    2386:	8d 01       	movw	r16, r26
    2388:	1b c2       	rjmp	.+1078   	; 0x27c0 <cluster_c_tail>
    238a:	d8 01       	movw	r26, r16
    238c:	6d 91       	ld	r22, X+
    238e:	7d 91       	ld	r23, X+
    2390:	8d 01       	movw	r16, r26
    2392:	16 c2       	rjmp	.+1068   	; 0x27c0 <cluster_c_tail>
    2394:	d9 01       	movw	r26, r18
    2396:	8d 90       	ld	r8, X+
    2398:	9d 90       	ld	r9, X+
    239a:	9d 01       	movw	r18, r26
    239c:	11 c2       	rjmp	.+1058   	; 0x27c0 <cluster_c_tail>
    239e:	d9 01       	movw	r26, r18
    23a0:	ad 90       	ld	r10, X+
    23a2:	bd 90       	ld	r11, X+
    23a4:	9d 01       	movw	r18, r26
    23a6:	0c c2       	rjmp	.+1048   	; 0x27c0 <cluster_c_tail>
    23a8:	d9 01       	movw	r26, r18
    23aa:	cd 90       	ld	r12, X+
    23ac:	dd 90       	ld	r13, X+
    23ae:	9d 01       	movw	r18, r26
    23b0:	07 c2       	rjmp	.+1038   	; 0x27c0 <cluster_c_tail>
    23b2:	d9 01       	movw	r26, r18
    23b4:	ed 90       	ld	r14, X+
    23b6:	fd 90       	ld	r15, X+
    23b8:	9d 01       	movw	r18, r26
    23ba:	02 c2       	rjmp	.+1028   	; 0x27c0 <cluster_c_tail>
    23bc:	d9 01       	movw	r26, r18
    23be:	0d 91       	ld	r16, X+
    23c0:	1d 91       	ld	r17, X+
    23c2:	9d 01       	movw	r18, r26
    23c4:	fd c1       	rjmp	.+1018   	; 0x27c0 <cluster_c_tail>
    23c6:	35 ca       	rjmp	.-2966   	; 0x1832 <secondary_invalid_b_func>
    23c8:	00 00       	nop
    23ca:	00 00       	nop
    23cc:	00 00       	nop
    23ce:	00 00       	nop
    23d0:	d9 01       	movw	r26, r18
    23d2:	4d 91       	ld	r20, X+
    23d4:	5d 91       	ld	r21, X+
    23d6:	9d 01       	movw	r18, r26
    23d8:	f3 c1       	rjmp	.+998    	; 0x27c0 <cluster_c_tail>
    23da:	d9 01       	movw	r26, r18
    23dc:	6d 91       	ld	r22, X+
    23de:	7d 91       	ld	r23, X+
    23e0:	9d 01       	movw	r18, r26
    23e2:	ee c1       	rjmp	.+988    	; 0x27c0 <cluster_c_tail>
    23e4:	da 01       	movw	r26, r20
    23e6:	8d 90       	ld	r8, X+
    23e8:	9d 90       	ld	r9, X+
    23ea:	ad 01       	movw	r20, r26
    23ec:	e9 c1       	rjmp	.+978    	; 0x27c0 <cluster_c_tail>
    23ee:	da 01       	movw	r26, r20
    23f0:	ad 90       	ld	r10, X+
    23f2:	bd 90       	ld	r11, X+
    23f4:	ad 01       	movw	r20, r26
    23f6:	e4 c1       	rjmp	.+968    	; 0x27c0 <cluster_c_tail>
    23f8:	da 01       	movw	r26, r20
    23fa:	cd 90       	ld	r12, X+
    23fc:	dd 90       	ld	r13, X+
    23fe:	ad 01       	movw	r20, r26
    2400:	df c1       	rjmp	.+958    	; 0x27c0 <cluster_c_tail>
    2402:	da 01       	movw	r26, r20
    2404:	ed 90       	ld	r14, X+
    2406:	fd 90       	ld	r15, X+
    2408:	ad 01       	movw	r20, r26
    240a:	da c1       	rjmp	.+948    	; 0x27c0 <cluster_c_tail>
    240c:	da 01       	movw	r26, r20
    240e:	0d 91       	ld	r16, X+
    2410:	1d 91       	ld	r17, X+
    2412:	ad 01       	movw	r20, r26
    2414:	d5 c1       	rjmp	.+938    	; 0x27c0 <cluster_c_tail>
    2416:	da 01       	movw	r26, r20
    2418:	2d 91       	ld	r18, X+
    241a:	3d 91       	ld	r19, X+
    241c:	ad 01       	movw	r20, r26
    241e:	d0 c1       	rjmp	.+928    	; 0x27c0 <cluster_c_tail>
    2420:	08 ca       	rjmp	.-3056   	; 0x1832 <secondary_invalid_b_func>
    2422:	00 00       	nop
    2424:	00 00       	nop
    2426:	00 00       	nop
    2428:	00 00       	nop
    242a:	da 01       	movw	r26, r20
    242c:	6d 91       	ld	r22, X+
    242e:	7d 91       	ld	r23, X+
    2430:	ad 01       	movw	r20, r26
    2432:	c6 c1       	rjmp	.+908    	; 0x27c0 <cluster_c_tail>
    2434:	db 01       	movw	r26, r22
    2436:	8d 90       	ld	r8, X+
    2438:	9d 90       	ld	r9, X+
    243a:	bd 01       	movw	r22, r26
    243c:	c1 c1       	rjmp	.+898    	; 0x27c0 <cluster_c_tail>
    243e:	db 01       	movw	r26, r22
    2440:	ad 90       	ld	r10, X+
    2442:	bd 90       	ld	r11, X+
    2444:	bd 01       	movw	r22, r26
    2446:	bc c1       	rjmp	.+888    	; 0x27c0 <cluster_c_tail>
    2448:	db 01       	movw	r26, r22
    244a:	cd 90       	ld	r12, X+
    244c:	dd 90       	ld	r13, X+
    244e:	bd 01       	movw	r22, r26
    2450:	b7 c1       	rjmp	.+878    	; 0x27c0 <cluster_c_tail>
    2452:	db 01       	movw	r26, r22
    2454:	ed 90       	ld	r14, X+
    2456:	fd 90       	ld	r15, X+
    2458:	bd 01       	movw	r22, r26
    245a:	b2 c1       	rjmp	.+868    	; 0x27c0 <cluster_c_tail>
    245c:	db 01       	movw	r26, r22
    245e:	0d 91       	ld	r16, X+
    2460:	1d 91       	ld	r17, X+
    2462:	bd 01       	movw	r22, r26
    2464:	ad c1       	rjmp	.+858    	; 0x27c0 <cluster_c_tail>
    2466:	db 01       	movw	r26, r22
    2468:	2d 91       	ld	r18, X+
    246a:	3d 91       	ld	r19, X+
    246c:	bd 01       	movw	r22, r26
    246e:	a8 c1       	rjmp	.+848    	; 0x27c0 <cluster_c_tail>
    2470:	db 01       	movw	r26, r22
    2472:	4d 91       	ld	r20, X+
    2474:	5d 91       	ld	r21, X+
    2476:	bd 01       	movw	r22, r26
    2478:	a3 c1       	rjmp	.+838    	; 0x27c0 <cluster_c_tail>
    247a:	db c9       	rjmp	.-3146   	; 0x1832 <secondary_invalid_b_func>
    247c:	00 00       	nop
    247e:	00 00       	nop
    2480:	00 00       	nop
    2482:	00 00       	nop
    2484:	d8 01       	movw	r26, r16
    2486:	8d 92       	st	X+, r8
    2488:	9d 92       	st	X+, r9
    248a:	8d 01       	movw	r16, r26
    248c:	99 c1       	rjmp	.+818    	; 0x27c0 <cluster_c_tail>
    248e:	d8 01       	movw	r26, r16
    2490:	ad 92       	st	X+, r10
    2492:	bd 92       	st	X+, r11
    2494:	8d 01       	movw	r16, r26
    2496:	94 c1       	rjmp	.+808    	; 0x27c0 <cluster_c_tail>
    2498:	d8 01       	movw	r26, r16
    249a:	cd 92       	st	X+, r12
    249c:	dd 92       	st	X+, r13
    249e:	8d 01       	movw	r16, r26
    24a0:	8f c1       	rjmp	.+798    	; 0x27c0 <cluster_c_tail>
    24a2:	d8 01       	movw	r26, r16
    24a4:	ed 92       	st	X+, r14
    24a6:	fd 92       	st	X+, r15
    24a8:	8d 01       	movw	r16, r26
    24aa:	8a c1       	rjmp	.+788    	; 0x27c0 <cluster_c_tail>
    24ac:	d8 01       	movw	r26, r16
    24ae:	0d 93       	st	X+, r16
    24b0:	1d 93       	st	X+, r17
    24b2:	8d 01       	movw	r16, r26
    24b4:	85 c1       	rjmp	.+778    	; 0x27c0 <cluster_c_tail>
    24b6:	d8 01       	movw	r26, r16
    24b8:	2d 93       	st	X+, r18
    24ba:	3d 93       	st	X+, r19
    24bc:	8d 01       	movw	r16, r26
    24be:	80 c1       	rjmp	.+768    	; 0x27c0 <cluster_c_tail>
    24c0:	d8 01       	movw	r26, r16
    24c2:	4d 93       	st	X+, r20
    24c4:	5d 93       	st	X+, r21
    24c6:	8d 01       	movw	r16, r26
    24c8:	7b c1       	rjmp	.+758    	; 0x27c0 <cluster_c_tail>
    24ca:	d8 01       	movw	r26, r16
    24cc:	6d 93       	st	X+, r22
    24ce:	7d 93       	st	X+, r23
    24d0:	8d 01       	movw	r16, r26
    24d2:	76 c1       	rjmp	.+748    	; 0x27c0 <cluster_c_tail>
    24d4:	d9 01       	movw	r26, r18
    24d6:	8d 92       	st	X+, r8
    24d8:	9d 92       	st	X+, r9
    24da:	9d 01       	movw	r18, r26
    24dc:	71 c1       	rjmp	.+738    	; 0x27c0 <cluster_c_tail>
    24de:	d9 01       	movw	r26, r18
    24e0:	ad 92       	st	X+, r10
    24e2:	bd 92       	st	X+, r11
    24e4:	9d 01       	movw	r18, r26
    24e6:	6c c1       	rjmp	.+728    	; 0x27c0 <cluster_c_tail>
    24e8:	d9 01       	movw	r26, r18
    24ea:	cd 92       	st	X+, r12
    24ec:	dd 92       	st	X+, r13
    24ee:	9d 01       	movw	r18, r26
    24f0:	67 c1       	rjmp	.+718    	; 0x27c0 <cluster_c_tail>
    24f2:	d9 01       	movw	r26, r18
    24f4:	ed 92       	st	X+, r14
    24f6:	fd 92       	st	X+, r15
    24f8:	9d 01       	movw	r18, r26
    24fa:	62 c1       	rjmp	.+708    	; 0x27c0 <cluster_c_tail>
    24fc:	d9 01       	movw	r26, r18
    24fe:	0d 93       	st	X+, r16
    2500:	1d 93       	st	X+, r17
    2502:	9d 01       	movw	r18, r26
    2504:	5d c1       	rjmp	.+698    	; 0x27c0 <cluster_c_tail>
    2506:	d9 01       	movw	r26, r18
    2508:	2d 93       	st	X+, r18
    250a:	3d 93       	st	X+, r19
    250c:	9d 01       	movw	r18, r26
    250e:	58 c1       	rjmp	.+688    	; 0x27c0 <cluster_c_tail>
    2510:	d9 01       	movw	r26, r18
    2512:	4d 93       	st	X+, r20
    2514:	5d 93       	st	X+, r21
    2516:	9d 01       	movw	r18, r26
    2518:	53 c1       	rjmp	.+678    	; 0x27c0 <cluster_c_tail>
    251a:	d9 01       	movw	r26, r18
    251c:	6d 93       	st	X+, r22
    251e:	7d 93       	st	X+, r23
    2520:	9d 01       	movw	r18, r26
    2522:	4e c1       	rjmp	.+668    	; 0x27c0 <cluster_c_tail>
    2524:	da 01       	movw	r26, r20
    2526:	8d 92       	st	X+, r8
    2528:	9d 92       	st	X+, r9
    252a:	ad 01       	movw	r20, r26
    252c:	49 c1       	rjmp	.+658    	; 0x27c0 <cluster_c_tail>
    252e:	da 01       	movw	r26, r20
    2530:	ad 92       	st	X+, r10
    2532:	bd 92       	st	X+, r11
    2534:	ad 01       	movw	r20, r26
    2536:	44 c1       	rjmp	.+648    	; 0x27c0 <cluster_c_tail>
    2538:	da 01       	movw	r26, r20
    253a:	cd 92       	st	X+, r12
    253c:	dd 92       	st	X+, r13
    253e:	ad 01       	movw	r20, r26
    2540:	3f c1       	rjmp	.+638    	; 0x27c0 <cluster_c_tail>
    2542:	da 01       	movw	r26, r20
    2544:	ed 92       	st	X+, r14
    2546:	fd 92       	st	X+, r15
    2548:	ad 01       	movw	r20, r26
    254a:	3a c1       	rjmp	.+628    	; 0x27c0 <cluster_c_tail>
    254c:	da 01       	movw	r26, r20
    254e:	0d 93       	st	X+, r16
    2550:	1d 93       	st	X+, r17
    2552:	ad 01       	movw	r20, r26
    2554:	35 c1       	rjmp	.+618    	; 0x27c0 <cluster_c_tail>
    2556:	da 01       	movw	r26, r20
    2558:	2d 93       	st	X+, r18
    255a:	3d 93       	st	X+, r19
    255c:	ad 01       	movw	r20, r26
    255e:	30 c1       	rjmp	.+608    	; 0x27c0 <cluster_c_tail>
    2560:	da 01       	movw	r26, r20
    2562:	4d 93       	st	X+, r20
    2564:	5d 93       	st	X+, r21
    2566:	ad 01       	movw	r20, r26
    2568:	2b c1       	rjmp	.+598    	; 0x27c0 <cluster_c_tail>
    256a:	da 01       	movw	r26, r20
    256c:	6d 93       	st	X+, r22
    256e:	7d 93       	st	X+, r23
    2570:	ad 01       	movw	r20, r26
    2572:	26 c1       	rjmp	.+588    	; 0x27c0 <cluster_c_tail>
    2574:	db 01       	movw	r26, r22
    2576:	8d 92       	st	X+, r8
    2578:	9d 92       	st	X+, r9
    257a:	bd 01       	movw	r22, r26
    257c:	21 c1       	rjmp	.+578    	; 0x27c0 <cluster_c_tail>
    257e:	db 01       	movw	r26, r22
    2580:	ad 92       	st	X+, r10
    2582:	bd 92       	st	X+, r11
    2584:	bd 01       	movw	r22, r26
    2586:	1c c1       	rjmp	.+568    	; 0x27c0 <cluster_c_tail>
    2588:	db 01       	movw	r26, r22
    258a:	cd 92       	st	X+, r12
    258c:	dd 92       	st	X+, r13
    258e:	bd 01       	movw	r22, r26
    2590:	17 c1       	rjmp	.+558    	; 0x27c0 <cluster_c_tail>
    2592:	db 01       	movw	r26, r22
    2594:	ed 92       	st	X+, r14
    2596:	fd 92       	st	X+, r15
    2598:	bd 01       	movw	r22, r26
    259a:	12 c1       	rjmp	.+548    	; 0x27c0 <cluster_c_tail>
    259c:	db 01       	movw	r26, r22
    259e:	0d 93       	st	X+, r16
    25a0:	1d 93       	st	X+, r17
    25a2:	bd 01       	movw	r22, r26
    25a4:	0d c1       	rjmp	.+538    	; 0x27c0 <cluster_c_tail>
    25a6:	db 01       	movw	r26, r22
    25a8:	2d 93       	st	X+, r18
    25aa:	3d 93       	st	X+, r19
    25ac:	bd 01       	movw	r22, r26
    25ae:	08 c1       	rjmp	.+528    	; 0x27c0 <cluster_c_tail>
    25b0:	db 01       	movw	r26, r22
    25b2:	4d 93       	st	X+, r20
    25b4:	5d 93       	st	X+, r21
    25b6:	bd 01       	movw	r22, r26
    25b8:	03 c1       	rjmp	.+518    	; 0x27c0 <cluster_c_tail>
    25ba:	db 01       	movw	r26, r22
    25bc:	6d 93       	st	X+, r22
    25be:	7d 93       	st	X+, r23
    25c0:	bd 01       	movw	r22, r26
    25c2:	fe c0       	rjmp	.+508    	; 0x27c0 <cluster_c_tail>
    25c4:	88 0c       	add	r8, r8
    25c6:	99 1c       	adc	r9, r9
    25c8:	aa 1c       	adc	r10, r10
    25ca:	bb 1c       	adc	r11, r11
    25cc:	f8 c0       	rjmp	.+496    	; 0x27be <cluster_c_tail_18_delay_1>
    25ce:	8c 0c       	add	r8, r12
    25d0:	9d 1c       	adc	r9, r13
    25d2:	ae 1c       	adc	r10, r14
    25d4:	bf 1c       	adc	r11, r15
    25d6:	f3 c0       	rjmp	.+486    	; 0x27be <cluster_c_tail_18_delay_1>
    25d8:	80 0e       	add	r8, r16
    25da:	91 1e       	adc	r9, r17
    25dc:	a2 1e       	adc	r10, r18
    25de:	b3 1e       	adc	r11, r19
    25e0:	ee c0       	rjmp	.+476    	; 0x27be <cluster_c_tail_18_delay_1>
    25e2:	84 0e       	add	r8, r20
    25e4:	95 1e       	adc	r9, r21
    25e6:	a6 1e       	adc	r10, r22
    25e8:	b7 1e       	adc	r11, r23
    25ea:	e9 c0       	rjmp	.+466    	; 0x27be <cluster_c_tail_18_delay_1>
    25ec:	c8 0c       	add	r12, r8
    25ee:	d9 1c       	adc	r13, r9
    25f0:	ea 1c       	adc	r14, r10
    25f2:	fb 1c       	adc	r15, r11
    25f4:	e4 c0       	rjmp	.+456    	; 0x27be <cluster_c_tail_18_delay_1>
    25f6:	cc 0c       	add	r12, r12
    25f8:	dd 1c       	adc	r13, r13
    25fa:	ee 1c       	adc	r14, r14
    25fc:	ff 1c       	adc	r15, r15
    25fe:	df c0       	rjmp	.+446    	; 0x27be <cluster_c_tail_18_delay_1>
    2600:	c0 0e       	add	r12, r16
    2602:	d1 1e       	adc	r13, r17
    2604:	e2 1e       	adc	r14, r18
    2606:	f3 1e       	adc	r15, r19
    2608:	da c0       	rjmp	.+436    	; 0x27be <cluster_c_tail_18_delay_1>
    260a:	c4 0e       	add	r12, r20
    260c:	d5 1e       	adc	r13, r21
    260e:	e6 1e       	adc	r14, r22
    2610:	f7 1e       	adc	r15, r23
    2612:	d5 c0       	rjmp	.+426    	; 0x27be <cluster_c_tail_18_delay_1>
    2614:	08 0d       	add	r16, r8
    2616:	19 1d       	adc	r17, r9
    2618:	2a 1d       	adc	r18, r10
    261a:	3b 1d       	adc	r19, r11
    261c:	d0 c0       	rjmp	.+416    	; 0x27be <cluster_c_tail_18_delay_1>
    261e:	0c 0d       	add	r16, r12
    2620:	1d 1d       	adc	r17, r13
    2622:	2e 1d       	adc	r18, r14
    2624:	3f 1d       	adc	r19, r15
    2626:	cb c0       	rjmp	.+406    	; 0x27be <cluster_c_tail_18_delay_1>
    2628:	00 0f       	add	r16, r16
    262a:	11 1f       	adc	r17, r17
    262c:	22 1f       	adc	r18, r18
    262e:	33 1f       	adc	r19, r19
    2630:	c6 c0       	rjmp	.+396    	; 0x27be <cluster_c_tail_18_delay_1>
    2632:	04 0f       	add	r16, r20
    2634:	15 1f       	adc	r17, r21
    2636:	26 1f       	adc	r18, r22
    2638:	37 1f       	adc	r19, r23
    263a:	c1 c0       	rjmp	.+386    	; 0x27be <cluster_c_tail_18_delay_1>
    263c:	48 0d       	add	r20, r8
    263e:	59 1d       	adc	r21, r9
    2640:	6a 1d       	adc	r22, r10
    2642:	7b 1d       	adc	r23, r11
    2644:	bc c0       	rjmp	.+376    	; 0x27be <cluster_c_tail_18_delay_1>
    2646:	4c 0d       	add	r20, r12
    2648:	5d 1d       	adc	r21, r13
    264a:	6e 1d       	adc	r22, r14
    264c:	7f 1d       	adc	r23, r15
    264e:	b7 c0       	rjmp	.+366    	; 0x27be <cluster_c_tail_18_delay_1>
    2650:	40 0f       	add	r20, r16
    2652:	51 1f       	adc	r21, r17
    2654:	62 1f       	adc	r22, r18
    2656:	73 1f       	adc	r23, r19
    2658:	b2 c0       	rjmp	.+356    	; 0x27be <cluster_c_tail_18_delay_1>
    265a:	44 0f       	add	r20, r20
    265c:	55 1f       	adc	r21, r21
    265e:	66 1f       	adc	r22, r22
    2660:	77 1f       	adc	r23, r23
    2662:	ad c0       	rjmp	.+346    	; 0x27be <cluster_c_tail_18_delay_1>
    2664:	88 18       	sub	r8, r8
    2666:	99 08       	sbc	r9, r9
    2668:	aa 08       	sbc	r10, r10
    266a:	bb 08       	sbc	r11, r11
    266c:	a8 c0       	rjmp	.+336    	; 0x27be <cluster_c_tail_18_delay_1>
    266e:	8c 18       	sub	r8, r12
    2670:	9d 08       	sbc	r9, r13
    2672:	ae 08       	sbc	r10, r14
    2674:	bf 08       	sbc	r11, r15
    2676:	a3 c0       	rjmp	.+326    	; 0x27be <cluster_c_tail_18_delay_1>
    2678:	80 1a       	sub	r8, r16
    267a:	91 0a       	sbc	r9, r17
    267c:	a2 0a       	sbc	r10, r18
    267e:	b3 0a       	sbc	r11, r19
    2680:	9e c0       	rjmp	.+316    	; 0x27be <cluster_c_tail_18_delay_1>
    2682:	84 1a       	sub	r8, r20
    2684:	95 0a       	sbc	r9, r21
    2686:	a6 0a       	sbc	r10, r22
    2688:	b7 0a       	sbc	r11, r23
    268a:	99 c0       	rjmp	.+306    	; 0x27be <cluster_c_tail_18_delay_1>
    268c:	c8 18       	sub	r12, r8
    268e:	d9 08       	sbc	r13, r9
    2690:	ea 08       	sbc	r14, r10
    2692:	fb 08       	sbc	r15, r11
    2694:	94 c0       	rjmp	.+296    	; 0x27be <cluster_c_tail_18_delay_1>
    2696:	cc 18       	sub	r12, r12
    2698:	dd 08       	sbc	r13, r13
    269a:	ee 08       	sbc	r14, r14
    269c:	ff 08       	sbc	r15, r15
    269e:	8f c0       	rjmp	.+286    	; 0x27be <cluster_c_tail_18_delay_1>
    26a0:	c0 1a       	sub	r12, r16
    26a2:	d1 0a       	sbc	r13, r17
    26a4:	e2 0a       	sbc	r14, r18
    26a6:	f3 0a       	sbc	r15, r19
    26a8:	8a c0       	rjmp	.+276    	; 0x27be <cluster_c_tail_18_delay_1>
    26aa:	c4 1a       	sub	r12, r20
    26ac:	d5 0a       	sbc	r13, r21
    26ae:	e6 0a       	sbc	r14, r22
    26b0:	f7 0a       	sbc	r15, r23
    26b2:	85 c0       	rjmp	.+266    	; 0x27be <cluster_c_tail_18_delay_1>
    26b4:	08 19       	sub	r16, r8
    26b6:	19 09       	sbc	r17, r9
    26b8:	2a 09       	sbc	r18, r10
    26ba:	3b 09       	sbc	r19, r11
    26bc:	80 c0       	rjmp	.+256    	; 0x27be <cluster_c_tail_18_delay_1>
    26be:	0c 19       	sub	r16, r12
    26c0:	1d 09       	sbc	r17, r13
    26c2:	2e 09       	sbc	r18, r14
    26c4:	3f 09       	sbc	r19, r15
    26c6:	7b c0       	rjmp	.+246    	; 0x27be <cluster_c_tail_18_delay_1>
    26c8:	00 1b       	sub	r16, r16
    26ca:	11 0b       	sbc	r17, r17
    26cc:	22 0b       	sbc	r18, r18
    26ce:	33 0b       	sbc	r19, r19
    26d0:	76 c0       	rjmp	.+236    	; 0x27be <cluster_c_tail_18_delay_1>
    26d2:	04 1b       	sub	r16, r20
    26d4:	15 0b       	sbc	r17, r21
    26d6:	26 0b       	sbc	r18, r22
    26d8:	37 0b       	sbc	r19, r23
    26da:	71 c0       	rjmp	.+226    	; 0x27be <cluster_c_tail_18_delay_1>
    26dc:	48 19       	sub	r20, r8
    26de:	59 09       	sbc	r21, r9
    26e0:	6a 09       	sbc	r22, r10
    26e2:	7b 09       	sbc	r23, r11
    26e4:	6c c0       	rjmp	.+216    	; 0x27be <cluster_c_tail_18_delay_1>
    26e6:	4c 19       	sub	r20, r12
    26e8:	5d 09       	sbc	r21, r13
    26ea:	6e 09       	sbc	r22, r14
    26ec:	7f 09       	sbc	r23, r15
    26ee:	67 c0       	rjmp	.+206    	; 0x27be <cluster_c_tail_18_delay_1>
    26f0:	40 1b       	sub	r20, r16
    26f2:	51 0b       	sbc	r21, r17
    26f4:	62 0b       	sbc	r22, r18
    26f6:	73 0b       	sbc	r23, r19
    26f8:	62 c0       	rjmp	.+196    	; 0x27be <cluster_c_tail_18_delay_1>
    26fa:	44 1b       	sub	r20, r20
    26fc:	55 0b       	sbc	r21, r21
    26fe:	66 0b       	sbc	r22, r22
    2700:	77 0b       	sbc	r23, r23
    2702:	5d c0       	rjmp	.+186    	; 0x27be <cluster_c_tail_18_delay_1>
    2704:	b6 94       	lsr	r11
    2706:	a7 94       	ror	r10
    2708:	97 94       	ror	r9
    270a:	87 94       	ror	r8
    270c:	58 c0       	rjmp	.+176    	; 0x27be <cluster_c_tail_18_delay_1>
    270e:	f6 94       	lsr	r15
    2710:	e7 94       	ror	r14
    2712:	d7 94       	ror	r13
    2714:	c7 94       	ror	r12
    2716:	53 c0       	rjmp	.+166    	; 0x27be <cluster_c_tail_18_delay_1>
    2718:	36 95       	lsr	r19
    271a:	27 95       	ror	r18
    271c:	17 95       	ror	r17
    271e:	07 95       	ror	r16
    2720:	4e c0       	rjmp	.+156    	; 0x27be <cluster_c_tail_18_delay_1>
    2722:	76 95       	lsr	r23
    2724:	67 95       	ror	r22
    2726:	57 95       	ror	r21
    2728:	47 95       	ror	r20
    272a:	49 c0       	rjmp	.+146    	; 0x27be <cluster_c_tail_18_delay_1>
    272c:	b5 94       	asr	r11
    272e:	a7 94       	ror	r10
    2730:	97 94       	ror	r9
    2732:	87 94       	ror	r8
    2734:	44 c0       	rjmp	.+136    	; 0x27be <cluster_c_tail_18_delay_1>
    2736:	f5 94       	asr	r15
    2738:	e7 94       	ror	r14
    273a:	d7 94       	ror	r13
    273c:	c7 94       	ror	r12
    273e:	3f c0       	rjmp	.+126    	; 0x27be <cluster_c_tail_18_delay_1>
    2740:	35 95       	asr	r19
    2742:	27 95       	ror	r18
    2744:	17 95       	ror	r17
    2746:	07 95       	ror	r16
    2748:	3a c0       	rjmp	.+116    	; 0x27be <cluster_c_tail_18_delay_1>
    274a:	75 95       	asr	r23
    274c:	67 95       	ror	r22
    274e:	57 95       	ror	r21
    2750:	47 95       	ror	r20
    2752:	35 c0       	rjmp	.+106    	; 0x27be <cluster_c_tail_18_delay_1>
    2754:	89 28       	or	r8, r9
    2756:	99 24       	eor	r9, r9
    2758:	82 10       	cpse	r8, r2
    275a:	83 2c       	mov	r8, r3
    275c:	30 c0       	rjmp	.+96     	; 0x27be <cluster_c_tail_18_delay_1>
    275e:	ab 28       	or	r10, r11
    2760:	bb 24       	eor	r11, r11
    2762:	a2 10       	cpse	r10, r2
    2764:	a3 2c       	mov	r10, r3
    2766:	2b c0       	rjmp	.+86     	; 0x27be <cluster_c_tail_18_delay_1>
    2768:	cd 28       	or	r12, r13
    276a:	dd 24       	eor	r13, r13
    276c:	c2 10       	cpse	r12, r2
    276e:	c3 2c       	mov	r12, r3
    2770:	26 c0       	rjmp	.+76     	; 0x27be <cluster_c_tail_18_delay_1>
    2772:	ef 28       	or	r14, r15
    2774:	ff 24       	eor	r15, r15
    2776:	e2 10       	cpse	r14, r2
    2778:	e3 2c       	mov	r14, r3
    277a:	21 c0       	rjmp	.+66     	; 0x27be <cluster_c_tail_18_delay_1>
    277c:	01 2b       	or	r16, r17
    277e:	11 27       	eor	r17, r17
    2780:	02 11       	cpse	r16, r2
    2782:	03 2d       	mov	r16, r3
    2784:	1c c0       	rjmp	.+56     	; 0x27be <cluster_c_tail_18_delay_1>
    2786:	23 2b       	or	r18, r19
    2788:	33 27       	eor	r19, r19
    278a:	22 11       	cpse	r18, r2
    278c:	23 2d       	mov	r18, r3
    278e:	17 c0       	rjmp	.+46     	; 0x27be <cluster_c_tail_18_delay_1>
    2790:	45 2b       	or	r20, r21
    2792:	55 27       	eor	r21, r21
    2794:	42 11       	cpse	r20, r2
    2796:	43 2d       	mov	r20, r3
    2798:	12 c0       	rjmp	.+36     	; 0x27be <cluster_c_tail_18_delay_1>
    279a:	67 2b       	or	r22, r23
    279c:	77 27       	eor	r23, r23
    279e:	62 11       	cpse	r22, r2
    27a0:	63 2d       	mov	r22, r3
    27a2:	0d c0       	rjmp	.+26     	; 0x27be <cluster_c_tail_18_delay_1>

000027a4 <cluster_c_start>:
    27a4:	00 00       	nop

000027a6 <cluster_c_tail_17>:
    27a6:	43 0c       	add	r4, r3
    27a8:	f8 94       	cli
    27aa:	2e bc       	out	0x2e, r2	; 46
    27ac:	8e b5       	in	r24, 0x2e	; 46
    27ae:	78 94       	sei
    27b0:	52 1c       	adc	r5, r2
    27b2:	62 1c       	adc	r6, r2
    27b4:	87 9d       	mul	r24, r7
    27b6:	f0 01       	movw	r30, r0
    27b8:	ff 5f       	subi	r31, 0xFF	; 255
    27ba:	09 94       	ijmp

000027bc <cluster_c_tail_18_delay_2>:
    27bc:	01 c0       	rjmp	.+2      	; 0x27c0 <cluster_c_tail>

000027be <cluster_c_tail_18_delay_1>:
    27be:	00 00       	nop

000027c0 <cluster_c_tail>:
    27c0:	8e b5       	in	r24, 0x2e	; 46
    27c2:	2e bc       	out	0x2e, r2	; 46
    27c4:	43 0c       	add	r4, r3
    27c6:	52 1c       	adc	r5, r2
    27c8:	62 1c       	adc	r6, r2
    27ca:	87 9d       	mul	r24, r7
    27cc:	f0 01       	movw	r30, r0
    27ce:	ff 5f       	subi	r31, 0xFF	; 255
    27d0:	09 94       	ijmp

000027d2 <cluster_c_end>:
    27d2:	2e c8       	rjmp	.-4004   	; 0x1830 <cluster_b_end>

000027d4 <f8_table>:
    27d4:	88 24       	eor	r8, r8
    27d6:	99 24       	eor	r9, r9
    27d8:	f1 99       	sbic	0x1e, 1	; 30
    27da:	83 2c       	mov	r8, r3
    27dc:	f0 cf       	rjmp	.-32     	; 0x27be <cluster_c_tail_18_delay_1>
    27de:	aa 24       	eor	r10, r10
    27e0:	bb 24       	eor	r11, r11
    27e2:	f1 99       	sbic	0x1e, 1	; 30
    27e4:	a3 2c       	mov	r10, r3
    27e6:	eb cf       	rjmp	.-42     	; 0x27be <cluster_c_tail_18_delay_1>
    27e8:	cc 24       	eor	r12, r12
    27ea:	dd 24       	eor	r13, r13
    27ec:	f1 99       	sbic	0x1e, 1	; 30
    27ee:	c3 2c       	mov	r12, r3
    27f0:	e6 cf       	rjmp	.-52     	; 0x27be <cluster_c_tail_18_delay_1>
    27f2:	ee 24       	eor	r14, r14
    27f4:	ff 24       	eor	r15, r15
    27f6:	f1 99       	sbic	0x1e, 1	; 30
    27f8:	e3 2c       	mov	r14, r3
    27fa:	e1 cf       	rjmp	.-62     	; 0x27be <cluster_c_tail_18_delay_1>
    27fc:	00 27       	eor	r16, r16
    27fe:	11 27       	eor	r17, r17
    2800:	f1 99       	sbic	0x1e, 1	; 30
    2802:	03 2d       	mov	r16, r3
    2804:	dc cf       	rjmp	.-72     	; 0x27be <cluster_c_tail_18_delay_1>
    2806:	22 27       	eor	r18, r18
    2808:	33 27       	eor	r19, r19
    280a:	f1 99       	sbic	0x1e, 1	; 30
    280c:	23 2d       	mov	r18, r3
    280e:	d7 cf       	rjmp	.-82     	; 0x27be <cluster_c_tail_18_delay_1>
    2810:	44 27       	eor	r20, r20
    2812:	55 27       	eor	r21, r21
    2814:	f1 99       	sbic	0x1e, 1	; 30
    2816:	43 2d       	mov	r20, r3
    2818:	d2 cf       	rjmp	.-92     	; 0x27be <cluster_c_tail_18_delay_1>
    281a:	66 27       	eor	r22, r22
    281c:	77 27       	eor	r23, r23
    281e:	f1 99       	sbic	0x1e, 1	; 30
    2820:	63 2d       	mov	r22, r3
    2822:	cd cf       	rjmp	.-102    	; 0x27be <cluster_c_tail_18_delay_1>
    2824:	88 24       	eor	r8, r8
    2826:	99 24       	eor	r9, r9
    2828:	f1 9b       	sbis	0x1e, 1	; 30
    282a:	83 2c       	mov	r8, r3
    282c:	c8 cf       	rjmp	.-112    	; 0x27be <cluster_c_tail_18_delay_1>
    282e:	aa 24       	eor	r10, r10
    2830:	bb 24       	eor	r11, r11
    2832:	f1 9b       	sbis	0x1e, 1	; 30
    2834:	a3 2c       	mov	r10, r3
    2836:	c3 cf       	rjmp	.-122    	; 0x27be <cluster_c_tail_18_delay_1>
    2838:	cc 24       	eor	r12, r12
    283a:	dd 24       	eor	r13, r13
    283c:	f1 9b       	sbis	0x1e, 1	; 30
    283e:	c3 2c       	mov	r12, r3
    2840:	be cf       	rjmp	.-132    	; 0x27be <cluster_c_tail_18_delay_1>
    2842:	ee 24       	eor	r14, r14
    2844:	ff 24       	eor	r15, r15
    2846:	f1 9b       	sbis	0x1e, 1	; 30
    2848:	e3 2c       	mov	r14, r3
    284a:	b9 cf       	rjmp	.-142    	; 0x27be <cluster_c_tail_18_delay_1>
    284c:	00 27       	eor	r16, r16
    284e:	11 27       	eor	r17, r17
    2850:	f1 9b       	sbis	0x1e, 1	; 30
    2852:	03 2d       	mov	r16, r3
    2854:	b4 cf       	rjmp	.-152    	; 0x27be <cluster_c_tail_18_delay_1>
    2856:	22 27       	eor	r18, r18
    2858:	33 27       	eor	r19, r19
    285a:	f1 9b       	sbis	0x1e, 1	; 30
    285c:	23 2d       	mov	r18, r3
    285e:	af cf       	rjmp	.-162    	; 0x27be <cluster_c_tail_18_delay_1>
    2860:	44 27       	eor	r20, r20
    2862:	55 27       	eor	r21, r21
    2864:	f1 9b       	sbis	0x1e, 1	; 30
    2866:	43 2d       	mov	r20, r3
    2868:	aa cf       	rjmp	.-172    	; 0x27be <cluster_c_tail_18_delay_1>
    286a:	66 27       	eor	r22, r22
    286c:	77 27       	eor	r23, r23
    286e:	f1 9b       	sbis	0x1e, 1	; 30
    2870:	63 2d       	mov	r22, r3
    2872:	a5 cf       	rjmp	.-182    	; 0x27be <cluster_c_tail_18_delay_1>
    2874:	88 24       	eor	r8, r8
    2876:	99 24       	eor	r9, r9
    2878:	f0 99       	sbic	0x1e, 0	; 30
    287a:	83 2c       	mov	r8, r3
    287c:	a0 cf       	rjmp	.-192    	; 0x27be <cluster_c_tail_18_delay_1>
    287e:	aa 24       	eor	r10, r10
    2880:	bb 24       	eor	r11, r11
    2882:	f0 99       	sbic	0x1e, 0	; 30
    2884:	a3 2c       	mov	r10, r3
    2886:	9b cf       	rjmp	.-202    	; 0x27be <cluster_c_tail_18_delay_1>
    2888:	cc 24       	eor	r12, r12
    288a:	dd 24       	eor	r13, r13
    288c:	f0 99       	sbic	0x1e, 0	; 30
    288e:	c3 2c       	mov	r12, r3
    2890:	96 cf       	rjmp	.-212    	; 0x27be <cluster_c_tail_18_delay_1>
    2892:	ee 24       	eor	r14, r14
    2894:	ff 24       	eor	r15, r15
    2896:	f0 99       	sbic	0x1e, 0	; 30
    2898:	e3 2c       	mov	r14, r3
    289a:	91 cf       	rjmp	.-222    	; 0x27be <cluster_c_tail_18_delay_1>
    289c:	00 27       	eor	r16, r16
    289e:	11 27       	eor	r17, r17
    28a0:	f0 99       	sbic	0x1e, 0	; 30
    28a2:	03 2d       	mov	r16, r3
    28a4:	8c cf       	rjmp	.-232    	; 0x27be <cluster_c_tail_18_delay_1>
    28a6:	22 27       	eor	r18, r18
    28a8:	33 27       	eor	r19, r19
    28aa:	f0 99       	sbic	0x1e, 0	; 30
    28ac:	23 2d       	mov	r18, r3
    28ae:	87 cf       	rjmp	.-242    	; 0x27be <cluster_c_tail_18_delay_1>
    28b0:	44 27       	eor	r20, r20
    28b2:	55 27       	eor	r21, r21
    28b4:	f0 99       	sbic	0x1e, 0	; 30
    28b6:	43 2d       	mov	r20, r3
    28b8:	82 cf       	rjmp	.-252    	; 0x27be <cluster_c_tail_18_delay_1>
    28ba:	66 27       	eor	r22, r22
    28bc:	77 27       	eor	r23, r23
    28be:	f0 99       	sbic	0x1e, 0	; 30
    28c0:	63 2d       	mov	r22, r3
    28c2:	7d cf       	rjmp	.-262    	; 0x27be <cluster_c_tail_18_delay_1>
    28c4:	88 24       	eor	r8, r8
    28c6:	99 24       	eor	r9, r9
    28c8:	f0 9b       	sbis	0x1e, 0	; 30
    28ca:	83 2c       	mov	r8, r3
    28cc:	78 cf       	rjmp	.-272    	; 0x27be <cluster_c_tail_18_delay_1>
    28ce:	aa 24       	eor	r10, r10
    28d0:	bb 24       	eor	r11, r11
    28d2:	f0 9b       	sbis	0x1e, 0	; 30
    28d4:	a3 2c       	mov	r10, r3
    28d6:	73 cf       	rjmp	.-282    	; 0x27be <cluster_c_tail_18_delay_1>
    28d8:	cc 24       	eor	r12, r12
    28da:	dd 24       	eor	r13, r13
    28dc:	f0 9b       	sbis	0x1e, 0	; 30
    28de:	c3 2c       	mov	r12, r3
    28e0:	6e cf       	rjmp	.-292    	; 0x27be <cluster_c_tail_18_delay_1>
    28e2:	ee 24       	eor	r14, r14
    28e4:	ff 24       	eor	r15, r15
    28e6:	f0 9b       	sbis	0x1e, 0	; 30
    28e8:	e3 2c       	mov	r14, r3
    28ea:	69 cf       	rjmp	.-302    	; 0x27be <cluster_c_tail_18_delay_1>
    28ec:	00 27       	eor	r16, r16
    28ee:	11 27       	eor	r17, r17
    28f0:	f0 9b       	sbis	0x1e, 0	; 30
    28f2:	03 2d       	mov	r16, r3
    28f4:	64 cf       	rjmp	.-312    	; 0x27be <cluster_c_tail_18_delay_1>
    28f6:	22 27       	eor	r18, r18
    28f8:	33 27       	eor	r19, r19
    28fa:	f0 9b       	sbis	0x1e, 0	; 30
    28fc:	23 2d       	mov	r18, r3
    28fe:	5f cf       	rjmp	.-322    	; 0x27be <cluster_c_tail_18_delay_1>
    2900:	44 27       	eor	r20, r20
    2902:	55 27       	eor	r21, r21
    2904:	f0 9b       	sbis	0x1e, 0	; 30
    2906:	43 2d       	mov	r20, r3
    2908:	5a cf       	rjmp	.-332    	; 0x27be <cluster_c_tail_18_delay_1>
    290a:	66 27       	eor	r22, r22
    290c:	77 27       	eor	r23, r23
    290e:	f0 9b       	sbis	0x1e, 0	; 30
    2910:	63 2d       	mov	r22, r3
    2912:	55 cf       	rjmp	.-342    	; 0x27be <cluster_c_tail_18_delay_1>
    2914:	88 24       	eor	r8, r8
    2916:	99 24       	eor	r9, r9
    2918:	f4 99       	sbic	0x1e, 4	; 30
    291a:	83 2c       	mov	r8, r3
    291c:	50 cf       	rjmp	.-352    	; 0x27be <cluster_c_tail_18_delay_1>
    291e:	aa 24       	eor	r10, r10
    2920:	bb 24       	eor	r11, r11
    2922:	f4 99       	sbic	0x1e, 4	; 30
    2924:	a3 2c       	mov	r10, r3
    2926:	4b cf       	rjmp	.-362    	; 0x27be <cluster_c_tail_18_delay_1>
    2928:	cc 24       	eor	r12, r12
    292a:	dd 24       	eor	r13, r13
    292c:	f4 99       	sbic	0x1e, 4	; 30
    292e:	c3 2c       	mov	r12, r3
    2930:	46 cf       	rjmp	.-372    	; 0x27be <cluster_c_tail_18_delay_1>
    2932:	ee 24       	eor	r14, r14
    2934:	ff 24       	eor	r15, r15
    2936:	f4 99       	sbic	0x1e, 4	; 30
    2938:	e3 2c       	mov	r14, r3
    293a:	41 cf       	rjmp	.-382    	; 0x27be <cluster_c_tail_18_delay_1>
    293c:	00 27       	eor	r16, r16
    293e:	11 27       	eor	r17, r17
    2940:	f4 99       	sbic	0x1e, 4	; 30
    2942:	03 2d       	mov	r16, r3
    2944:	3c cf       	rjmp	.-392    	; 0x27be <cluster_c_tail_18_delay_1>
    2946:	22 27       	eor	r18, r18
    2948:	33 27       	eor	r19, r19
    294a:	f4 99       	sbic	0x1e, 4	; 30
    294c:	23 2d       	mov	r18, r3
    294e:	37 cf       	rjmp	.-402    	; 0x27be <cluster_c_tail_18_delay_1>
    2950:	44 27       	eor	r20, r20
    2952:	55 27       	eor	r21, r21
    2954:	f4 99       	sbic	0x1e, 4	; 30
    2956:	43 2d       	mov	r20, r3
    2958:	32 cf       	rjmp	.-412    	; 0x27be <cluster_c_tail_18_delay_1>
    295a:	66 27       	eor	r22, r22
    295c:	77 27       	eor	r23, r23
    295e:	f4 99       	sbic	0x1e, 4	; 30
    2960:	63 2d       	mov	r22, r3
    2962:	2d cf       	rjmp	.-422    	; 0x27be <cluster_c_tail_18_delay_1>
    2964:	88 24       	eor	r8, r8
    2966:	99 24       	eor	r9, r9
    2968:	f4 9b       	sbis	0x1e, 4	; 30
    296a:	83 2c       	mov	r8, r3
    296c:	28 cf       	rjmp	.-432    	; 0x27be <cluster_c_tail_18_delay_1>
    296e:	aa 24       	eor	r10, r10
    2970:	bb 24       	eor	r11, r11
    2972:	f4 9b       	sbis	0x1e, 4	; 30
    2974:	a3 2c       	mov	r10, r3
    2976:	23 cf       	rjmp	.-442    	; 0x27be <cluster_c_tail_18_delay_1>
    2978:	cc 24       	eor	r12, r12
    297a:	dd 24       	eor	r13, r13
    297c:	f4 9b       	sbis	0x1e, 4	; 30
    297e:	c3 2c       	mov	r12, r3
    2980:	1e cf       	rjmp	.-452    	; 0x27be <cluster_c_tail_18_delay_1>
    2982:	ee 24       	eor	r14, r14
    2984:	ff 24       	eor	r15, r15
    2986:	f4 9b       	sbis	0x1e, 4	; 30
    2988:	e3 2c       	mov	r14, r3
    298a:	19 cf       	rjmp	.-462    	; 0x27be <cluster_c_tail_18_delay_1>
    298c:	00 27       	eor	r16, r16
    298e:	11 27       	eor	r17, r17
    2990:	f4 9b       	sbis	0x1e, 4	; 30
    2992:	03 2d       	mov	r16, r3
    2994:	14 cf       	rjmp	.-472    	; 0x27be <cluster_c_tail_18_delay_1>
    2996:	22 27       	eor	r18, r18
    2998:	33 27       	eor	r19, r19
    299a:	f4 9b       	sbis	0x1e, 4	; 30
    299c:	23 2d       	mov	r18, r3
    299e:	0f cf       	rjmp	.-482    	; 0x27be <cluster_c_tail_18_delay_1>
    29a0:	44 27       	eor	r20, r20
    29a2:	55 27       	eor	r21, r21
    29a4:	f4 9b       	sbis	0x1e, 4	; 30
    29a6:	43 2d       	mov	r20, r3
    29a8:	0a cf       	rjmp	.-492    	; 0x27be <cluster_c_tail_18_delay_1>
    29aa:	66 27       	eor	r22, r22
    29ac:	77 27       	eor	r23, r23
    29ae:	f4 9b       	sbis	0x1e, 4	; 30
    29b0:	63 2d       	mov	r22, r3
    29b2:	05 cf       	rjmp	.-502    	; 0x27be <cluster_c_tail_18_delay_1>

000029b4 <f8_table_end>:
    29b4:	0e cf       	rjmp	.-484    	; 0x27d2 <cluster_c_end>
    29b6:	00 00       	nop
    29b8:	0c cf       	rjmp	.-488    	; 0x27d2 <cluster_c_end>
    29ba:	00 00       	nop
    29bc:	0a cf       	rjmp	.-492    	; 0x27d2 <cluster_c_end>
    29be:	00 00       	nop
    29c0:	08 cf       	rjmp	.-496    	; 0x27d2 <cluster_c_end>
    29c2:	00 00       	nop
    29c4:	06 cf       	rjmp	.-500    	; 0x27d2 <cluster_c_end>
    29c6:	00 00       	nop
    29c8:	04 cf       	rjmp	.-504    	; 0x27d2 <cluster_c_end>
    29ca:	00 00       	nop
    29cc:	02 cf       	rjmp	.-508    	; 0x27d2 <cluster_c_end>
    29ce:	00 00       	nop
    29d0:	00 cf       	rjmp	.-512    	; 0x27d2 <cluster_c_end>
    29d2:	00 00       	nop
    29d4:	fe ce       	rjmp	.-516    	; 0x27d2 <cluster_c_end>
    29d6:	00 00       	nop
    29d8:	fc ce       	rjmp	.-520    	; 0x27d2 <cluster_c_end>
    29da:	00 00       	nop
    29dc:	fa ce       	rjmp	.-524    	; 0x27d2 <cluster_c_end>
    29de:	00 00       	nop
    29e0:	f8 ce       	rjmp	.-528    	; 0x27d2 <cluster_c_end>
    29e2:	00 00       	nop
    29e4:	f6 ce       	rjmp	.-532    	; 0x27d2 <cluster_c_end>
    29e6:	00 00       	nop
    29e8:	f4 ce       	rjmp	.-536    	; 0x27d2 <cluster_c_end>
    29ea:	00 00       	nop
    29ec:	f2 ce       	rjmp	.-540    	; 0x27d2 <cluster_c_end>
    29ee:	00 00       	nop
    29f0:	f0 ce       	rjmp	.-544    	; 0x27d2 <cluster_c_end>
    29f2:	00 00       	nop
    29f4:	ee ce       	rjmp	.-548    	; 0x27d2 <cluster_c_end>
    29f6:	00 00       	nop
    29f8:	ec ce       	rjmp	.-552    	; 0x27d2 <cluster_c_end>
    29fa:	00 00       	nop
    29fc:	ea ce       	rjmp	.-556    	; 0x27d2 <cluster_c_end>
    29fe:	00 00       	nop
    2a00:	e8 ce       	rjmp	.-560    	; 0x27d2 <cluster_c_end>
    2a02:	00 00       	nop
    2a04:	e6 ce       	rjmp	.-564    	; 0x27d2 <cluster_c_end>
    2a06:	00 00       	nop
    2a08:	e4 ce       	rjmp	.-568    	; 0x27d2 <cluster_c_end>
    2a0a:	00 00       	nop
    2a0c:	e2 ce       	rjmp	.-572    	; 0x27d2 <cluster_c_end>
    2a0e:	00 00       	nop
    2a10:	e0 ce       	rjmp	.-576    	; 0x27d2 <cluster_c_end>
    2a12:	00 00       	nop
    2a14:	de ce       	rjmp	.-580    	; 0x27d2 <cluster_c_end>
    2a16:	00 00       	nop
    2a18:	dc ce       	rjmp	.-584    	; 0x27d2 <cluster_c_end>
    2a1a:	00 00       	nop
    2a1c:	da ce       	rjmp	.-588    	; 0x27d2 <cluster_c_end>
    2a1e:	00 00       	nop
    2a20:	d8 ce       	rjmp	.-592    	; 0x27d2 <cluster_c_end>
    2a22:	00 00       	nop
    2a24:	d6 ce       	rjmp	.-596    	; 0x27d2 <cluster_c_end>
    2a26:	00 00       	nop
    2a28:	d4 ce       	rjmp	.-600    	; 0x27d2 <cluster_c_end>
    2a2a:	00 00       	nop
    2a2c:	d2 ce       	rjmp	.-604    	; 0x27d2 <cluster_c_end>
    2a2e:	00 00       	nop
    2a30:	d0 ce       	rjmp	.-608    	; 0x27d2 <cluster_c_end>
    2a32:	00 00       	nop
    2a34:	ce ce       	rjmp	.-612    	; 0x27d2 <cluster_c_end>
    2a36:	00 00       	nop
    2a38:	cc ce       	rjmp	.-616    	; 0x27d2 <cluster_c_end>
    2a3a:	00 00       	nop
    2a3c:	ca ce       	rjmp	.-620    	; 0x27d2 <cluster_c_end>
    2a3e:	00 00       	nop
    2a40:	c8 ce       	rjmp	.-624    	; 0x27d2 <cluster_c_end>
    2a42:	00 00       	nop
    2a44:	c6 ce       	rjmp	.-628    	; 0x27d2 <cluster_c_end>
    2a46:	00 00       	nop
    2a48:	c4 ce       	rjmp	.-632    	; 0x27d2 <cluster_c_end>
    2a4a:	00 00       	nop
    2a4c:	c2 ce       	rjmp	.-636    	; 0x27d2 <cluster_c_end>
    2a4e:	00 00       	nop
    2a50:	c0 ce       	rjmp	.-640    	; 0x27d2 <cluster_c_end>
    2a52:	00 00       	nop
    2a54:	be ce       	rjmp	.-644    	; 0x27d2 <cluster_c_end>
    2a56:	00 00       	nop
    2a58:	bc ce       	rjmp	.-648    	; 0x27d2 <cluster_c_end>
    2a5a:	00 00       	nop
    2a5c:	ba ce       	rjmp	.-652    	; 0x27d2 <cluster_c_end>
    2a5e:	00 00       	nop
    2a60:	b8 ce       	rjmp	.-656    	; 0x27d2 <cluster_c_end>
    2a62:	00 00       	nop
    2a64:	b6 ce       	rjmp	.-660    	; 0x27d2 <cluster_c_end>
    2a66:	00 00       	nop
    2a68:	b4 ce       	rjmp	.-664    	; 0x27d2 <cluster_c_end>
    2a6a:	00 00       	nop
    2a6c:	b2 ce       	rjmp	.-668    	; 0x27d2 <cluster_c_end>
    2a6e:	00 00       	nop
    2a70:	b0 ce       	rjmp	.-672    	; 0x27d2 <cluster_c_end>
    2a72:	00 00       	nop

00002a74 <cmov_table>:
    2a74:	44 01       	movw	r8, r8
    2a76:	a4 ce       	rjmp	.-696    	; 0x27c0 <cluster_c_tail>
    2a78:	45 01       	movw	r8, r10
    2a7a:	a2 ce       	rjmp	.-700    	; 0x27c0 <cluster_c_tail>
    2a7c:	46 01       	movw	r8, r12
    2a7e:	a0 ce       	rjmp	.-704    	; 0x27c0 <cluster_c_tail>
    2a80:	47 01       	movw	r8, r14
    2a82:	9e ce       	rjmp	.-708    	; 0x27c0 <cluster_c_tail>
    2a84:	48 01       	movw	r8, r16
    2a86:	9c ce       	rjmp	.-712    	; 0x27c0 <cluster_c_tail>
    2a88:	49 01       	movw	r8, r18
    2a8a:	9a ce       	rjmp	.-716    	; 0x27c0 <cluster_c_tail>
    2a8c:	4a 01       	movw	r8, r20
    2a8e:	98 ce       	rjmp	.-720    	; 0x27c0 <cluster_c_tail>
    2a90:	4b 01       	movw	r8, r22
    2a92:	96 ce       	rjmp	.-724    	; 0x27c0 <cluster_c_tail>
    2a94:	54 01       	movw	r10, r8
    2a96:	94 ce       	rjmp	.-728    	; 0x27c0 <cluster_c_tail>
    2a98:	55 01       	movw	r10, r10
    2a9a:	92 ce       	rjmp	.-732    	; 0x27c0 <cluster_c_tail>
    2a9c:	56 01       	movw	r10, r12
    2a9e:	90 ce       	rjmp	.-736    	; 0x27c0 <cluster_c_tail>
    2aa0:	57 01       	movw	r10, r14
    2aa2:	8e ce       	rjmp	.-740    	; 0x27c0 <cluster_c_tail>
    2aa4:	58 01       	movw	r10, r16
    2aa6:	8c ce       	rjmp	.-744    	; 0x27c0 <cluster_c_tail>
    2aa8:	59 01       	movw	r10, r18
    2aaa:	8a ce       	rjmp	.-748    	; 0x27c0 <cluster_c_tail>
    2aac:	5a 01       	movw	r10, r20
    2aae:	88 ce       	rjmp	.-752    	; 0x27c0 <cluster_c_tail>
    2ab0:	5b 01       	movw	r10, r22
    2ab2:	86 ce       	rjmp	.-756    	; 0x27c0 <cluster_c_tail>
    2ab4:	64 01       	movw	r12, r8
    2ab6:	84 ce       	rjmp	.-760    	; 0x27c0 <cluster_c_tail>
    2ab8:	65 01       	movw	r12, r10
    2aba:	82 ce       	rjmp	.-764    	; 0x27c0 <cluster_c_tail>
    2abc:	66 01       	movw	r12, r12
    2abe:	80 ce       	rjmp	.-768    	; 0x27c0 <cluster_c_tail>
    2ac0:	67 01       	movw	r12, r14
    2ac2:	7e ce       	rjmp	.-772    	; 0x27c0 <cluster_c_tail>
    2ac4:	68 01       	movw	r12, r16
    2ac6:	7c ce       	rjmp	.-776    	; 0x27c0 <cluster_c_tail>
    2ac8:	69 01       	movw	r12, r18
    2aca:	7a ce       	rjmp	.-780    	; 0x27c0 <cluster_c_tail>
    2acc:	6a 01       	movw	r12, r20
    2ace:	78 ce       	rjmp	.-784    	; 0x27c0 <cluster_c_tail>
    2ad0:	6b 01       	movw	r12, r22
    2ad2:	76 ce       	rjmp	.-788    	; 0x27c0 <cluster_c_tail>
    2ad4:	74 01       	movw	r14, r8
    2ad6:	74 ce       	rjmp	.-792    	; 0x27c0 <cluster_c_tail>
    2ad8:	75 01       	movw	r14, r10
    2ada:	72 ce       	rjmp	.-796    	; 0x27c0 <cluster_c_tail>
    2adc:	76 01       	movw	r14, r12
    2ade:	70 ce       	rjmp	.-800    	; 0x27c0 <cluster_c_tail>
    2ae0:	77 01       	movw	r14, r14
    2ae2:	6e ce       	rjmp	.-804    	; 0x27c0 <cluster_c_tail>
    2ae4:	78 01       	movw	r14, r16
    2ae6:	6c ce       	rjmp	.-808    	; 0x27c0 <cluster_c_tail>
    2ae8:	79 01       	movw	r14, r18
    2aea:	6a ce       	rjmp	.-812    	; 0x27c0 <cluster_c_tail>
    2aec:	7a 01       	movw	r14, r20
    2aee:	68 ce       	rjmp	.-816    	; 0x27c0 <cluster_c_tail>
    2af0:	7b 01       	movw	r14, r22
    2af2:	66 ce       	rjmp	.-820    	; 0x27c0 <cluster_c_tail>
    2af4:	84 01       	movw	r16, r8
    2af6:	64 ce       	rjmp	.-824    	; 0x27c0 <cluster_c_tail>
    2af8:	85 01       	movw	r16, r10
    2afa:	62 ce       	rjmp	.-828    	; 0x27c0 <cluster_c_tail>
    2afc:	86 01       	movw	r16, r12
    2afe:	60 ce       	rjmp	.-832    	; 0x27c0 <cluster_c_tail>
    2b00:	87 01       	movw	r16, r14
    2b02:	5e ce       	rjmp	.-836    	; 0x27c0 <cluster_c_tail>
    2b04:	88 01       	movw	r16, r16
    2b06:	5c ce       	rjmp	.-840    	; 0x27c0 <cluster_c_tail>
    2b08:	89 01       	movw	r16, r18
    2b0a:	5a ce       	rjmp	.-844    	; 0x27c0 <cluster_c_tail>
    2b0c:	8a 01       	movw	r16, r20
    2b0e:	58 ce       	rjmp	.-848    	; 0x27c0 <cluster_c_tail>
    2b10:	8b 01       	movw	r16, r22
    2b12:	56 ce       	rjmp	.-852    	; 0x27c0 <cluster_c_tail>
    2b14:	94 01       	movw	r18, r8
    2b16:	54 ce       	rjmp	.-856    	; 0x27c0 <cluster_c_tail>
    2b18:	95 01       	movw	r18, r10
    2b1a:	52 ce       	rjmp	.-860    	; 0x27c0 <cluster_c_tail>
    2b1c:	96 01       	movw	r18, r12
    2b1e:	50 ce       	rjmp	.-864    	; 0x27c0 <cluster_c_tail>
    2b20:	97 01       	movw	r18, r14
    2b22:	4e ce       	rjmp	.-868    	; 0x27c0 <cluster_c_tail>
    2b24:	98 01       	movw	r18, r16
    2b26:	4c ce       	rjmp	.-872    	; 0x27c0 <cluster_c_tail>
    2b28:	99 01       	movw	r18, r18
    2b2a:	4a ce       	rjmp	.-876    	; 0x27c0 <cluster_c_tail>
    2b2c:	9a 01       	movw	r18, r20
    2b2e:	48 ce       	rjmp	.-880    	; 0x27c0 <cluster_c_tail>
    2b30:	9b 01       	movw	r18, r22
    2b32:	46 ce       	rjmp	.-884    	; 0x27c0 <cluster_c_tail>
    2b34:	a4 01       	movw	r20, r8
    2b36:	44 ce       	rjmp	.-888    	; 0x27c0 <cluster_c_tail>
    2b38:	a5 01       	movw	r20, r10
    2b3a:	42 ce       	rjmp	.-892    	; 0x27c0 <cluster_c_tail>
    2b3c:	a6 01       	movw	r20, r12
    2b3e:	40 ce       	rjmp	.-896    	; 0x27c0 <cluster_c_tail>
    2b40:	a7 01       	movw	r20, r14
    2b42:	3e ce       	rjmp	.-900    	; 0x27c0 <cluster_c_tail>
    2b44:	a8 01       	movw	r20, r16
    2b46:	3c ce       	rjmp	.-904    	; 0x27c0 <cluster_c_tail>
    2b48:	a9 01       	movw	r20, r18
    2b4a:	3a ce       	rjmp	.-908    	; 0x27c0 <cluster_c_tail>
    2b4c:	aa 01       	movw	r20, r20
    2b4e:	38 ce       	rjmp	.-912    	; 0x27c0 <cluster_c_tail>
    2b50:	ab 01       	movw	r20, r22
    2b52:	36 ce       	rjmp	.-916    	; 0x27c0 <cluster_c_tail>
    2b54:	b4 01       	movw	r22, r8
    2b56:	34 ce       	rjmp	.-920    	; 0x27c0 <cluster_c_tail>
    2b58:	b5 01       	movw	r22, r10
    2b5a:	32 ce       	rjmp	.-924    	; 0x27c0 <cluster_c_tail>
    2b5c:	b6 01       	movw	r22, r12
    2b5e:	30 ce       	rjmp	.-928    	; 0x27c0 <cluster_c_tail>
    2b60:	b7 01       	movw	r22, r14
    2b62:	2e ce       	rjmp	.-932    	; 0x27c0 <cluster_c_tail>
    2b64:	b8 01       	movw	r22, r16
    2b66:	2c ce       	rjmp	.-936    	; 0x27c0 <cluster_c_tail>
    2b68:	b9 01       	movw	r22, r18
    2b6a:	2a ce       	rjmp	.-940    	; 0x27c0 <cluster_c_tail>
    2b6c:	ba 01       	movw	r22, r20
    2b6e:	28 ce       	rjmp	.-944    	; 0x27c0 <cluster_c_tail>
    2b70:	bb 01       	movw	r22, r22
    2b72:	26 ce       	rjmp	.-948    	; 0x27c0 <cluster_c_tail>

00002b74 <cmov_table_end>:
    2b74:	d4 01       	movw	r26, r8
    2b76:	7e c0       	rjmp	.+252    	; 0x2c74 <fe_forward_table_end>
    2b78:	d5 01       	movw	r26, r10
    2b7a:	7c c0       	rjmp	.+248    	; 0x2c74 <fe_forward_table_end>
    2b7c:	d6 01       	movw	r26, r12
    2b7e:	7a c0       	rjmp	.+244    	; 0x2c74 <fe_forward_table_end>
    2b80:	d7 01       	movw	r26, r14
    2b82:	78 c0       	rjmp	.+240    	; 0x2c74 <fe_forward_table_end>
    2b84:	d8 01       	movw	r26, r16
    2b86:	76 c0       	rjmp	.+236    	; 0x2c74 <fe_forward_table_end>
    2b88:	d9 01       	movw	r26, r18
    2b8a:	74 c0       	rjmp	.+232    	; 0x2c74 <fe_forward_table_end>
    2b8c:	da 01       	movw	r26, r20
    2b8e:	72 c0       	rjmp	.+228    	; 0x2c74 <fe_forward_table_end>
    2b90:	db 01       	movw	r26, r22
    2b92:	70 c0       	rjmp	.+224    	; 0x2c74 <fe_forward_table_end>
    2b94:	d4 01       	movw	r26, r8
    2b96:	76 c0       	rjmp	.+236    	; 0x2c84 <fe_mul16_r1>
    2b98:	d5 01       	movw	r26, r10
    2b9a:	74 c0       	rjmp	.+232    	; 0x2c84 <fe_mul16_r1>
    2b9c:	d6 01       	movw	r26, r12
    2b9e:	72 c0       	rjmp	.+228    	; 0x2c84 <fe_mul16_r1>
    2ba0:	d7 01       	movw	r26, r14
    2ba2:	70 c0       	rjmp	.+224    	; 0x2c84 <fe_mul16_r1>
    2ba4:	d8 01       	movw	r26, r16
    2ba6:	6e c0       	rjmp	.+220    	; 0x2c84 <fe_mul16_r1>
    2ba8:	d9 01       	movw	r26, r18
    2baa:	6c c0       	rjmp	.+216    	; 0x2c84 <fe_mul16_r1>
    2bac:	da 01       	movw	r26, r20
    2bae:	6a c0       	rjmp	.+212    	; 0x2c84 <fe_mul16_r1>
    2bb0:	db 01       	movw	r26, r22
    2bb2:	68 c0       	rjmp	.+208    	; 0x2c84 <fe_mul16_r1>
    2bb4:	d4 01       	movw	r26, r8
    2bb6:	6e c0       	rjmp	.+220    	; 0x2c94 <fe_mul16_r2>
    2bb8:	d5 01       	movw	r26, r10
    2bba:	6c c0       	rjmp	.+216    	; 0x2c94 <fe_mul16_r2>
    2bbc:	d6 01       	movw	r26, r12
    2bbe:	6a c0       	rjmp	.+212    	; 0x2c94 <fe_mul16_r2>
    2bc0:	d7 01       	movw	r26, r14
    2bc2:	68 c0       	rjmp	.+208    	; 0x2c94 <fe_mul16_r2>
    2bc4:	d8 01       	movw	r26, r16
    2bc6:	66 c0       	rjmp	.+204    	; 0x2c94 <fe_mul16_r2>
    2bc8:	d9 01       	movw	r26, r18
    2bca:	64 c0       	rjmp	.+200    	; 0x2c94 <fe_mul16_r2>
    2bcc:	da 01       	movw	r26, r20
    2bce:	62 c0       	rjmp	.+196    	; 0x2c94 <fe_mul16_r2>
    2bd0:	db 01       	movw	r26, r22
    2bd2:	60 c0       	rjmp	.+192    	; 0x2c94 <fe_mul16_r2>
    2bd4:	d4 01       	movw	r26, r8
    2bd6:	66 c0       	rjmp	.+204    	; 0x2ca4 <fe_mul16_r3>
    2bd8:	d5 01       	movw	r26, r10
    2bda:	64 c0       	rjmp	.+200    	; 0x2ca4 <fe_mul16_r3>
    2bdc:	d6 01       	movw	r26, r12
    2bde:	62 c0       	rjmp	.+196    	; 0x2ca4 <fe_mul16_r3>
    2be0:	d7 01       	movw	r26, r14
    2be2:	60 c0       	rjmp	.+192    	; 0x2ca4 <fe_mul16_r3>
    2be4:	d8 01       	movw	r26, r16
    2be6:	5e c0       	rjmp	.+188    	; 0x2ca4 <fe_mul16_r3>
    2be8:	d9 01       	movw	r26, r18
    2bea:	5c c0       	rjmp	.+184    	; 0x2ca4 <fe_mul16_r3>
    2bec:	da 01       	movw	r26, r20
    2bee:	5a c0       	rjmp	.+180    	; 0x2ca4 <fe_mul16_r3>
    2bf0:	db 01       	movw	r26, r22
    2bf2:	58 c0       	rjmp	.+176    	; 0x2ca4 <fe_mul16_r3>
    2bf4:	d4 01       	movw	r26, r8
    2bf6:	5e c0       	rjmp	.+188    	; 0x2cb4 <fe_mul16_r4>
    2bf8:	d5 01       	movw	r26, r10
    2bfa:	5c c0       	rjmp	.+184    	; 0x2cb4 <fe_mul16_r4>
    2bfc:	d6 01       	movw	r26, r12
    2bfe:	5a c0       	rjmp	.+180    	; 0x2cb4 <fe_mul16_r4>
    2c00:	d7 01       	movw	r26, r14
    2c02:	58 c0       	rjmp	.+176    	; 0x2cb4 <fe_mul16_r4>
    2c04:	d8 01       	movw	r26, r16
    2c06:	56 c0       	rjmp	.+172    	; 0x2cb4 <fe_mul16_r4>
    2c08:	d9 01       	movw	r26, r18
    2c0a:	54 c0       	rjmp	.+168    	; 0x2cb4 <fe_mul16_r4>
    2c0c:	da 01       	movw	r26, r20
    2c0e:	52 c0       	rjmp	.+164    	; 0x2cb4 <fe_mul16_r4>
    2c10:	db 01       	movw	r26, r22
    2c12:	50 c0       	rjmp	.+160    	; 0x2cb4 <fe_mul16_r4>
    2c14:	d4 01       	movw	r26, r8
    2c16:	56 c0       	rjmp	.+172    	; 0x2cc4 <fe_mul16_r5>
    2c18:	d5 01       	movw	r26, r10
    2c1a:	54 c0       	rjmp	.+168    	; 0x2cc4 <fe_mul16_r5>
    2c1c:	d6 01       	movw	r26, r12
    2c1e:	52 c0       	rjmp	.+164    	; 0x2cc4 <fe_mul16_r5>
    2c20:	d7 01       	movw	r26, r14
    2c22:	50 c0       	rjmp	.+160    	; 0x2cc4 <fe_mul16_r5>
    2c24:	d8 01       	movw	r26, r16
    2c26:	4e c0       	rjmp	.+156    	; 0x2cc4 <fe_mul16_r5>
    2c28:	d9 01       	movw	r26, r18
    2c2a:	4c c0       	rjmp	.+152    	; 0x2cc4 <fe_mul16_r5>
    2c2c:	da 01       	movw	r26, r20
    2c2e:	4a c0       	rjmp	.+148    	; 0x2cc4 <fe_mul16_r5>
    2c30:	db 01       	movw	r26, r22
    2c32:	48 c0       	rjmp	.+144    	; 0x2cc4 <fe_mul16_r5>
    2c34:	d4 01       	movw	r26, r8
    2c36:	4e c0       	rjmp	.+156    	; 0x2cd4 <fe_mul16_r6>
    2c38:	d5 01       	movw	r26, r10
    2c3a:	4c c0       	rjmp	.+152    	; 0x2cd4 <fe_mul16_r6>
    2c3c:	d6 01       	movw	r26, r12
    2c3e:	4a c0       	rjmp	.+148    	; 0x2cd4 <fe_mul16_r6>
    2c40:	d7 01       	movw	r26, r14
    2c42:	48 c0       	rjmp	.+144    	; 0x2cd4 <fe_mul16_r6>
    2c44:	d8 01       	movw	r26, r16
    2c46:	46 c0       	rjmp	.+140    	; 0x2cd4 <fe_mul16_r6>
    2c48:	d9 01       	movw	r26, r18
    2c4a:	44 c0       	rjmp	.+136    	; 0x2cd4 <fe_mul16_r6>
    2c4c:	da 01       	movw	r26, r20
    2c4e:	42 c0       	rjmp	.+132    	; 0x2cd4 <fe_mul16_r6>
    2c50:	db 01       	movw	r26, r22
    2c52:	40 c0       	rjmp	.+128    	; 0x2cd4 <fe_mul16_r6>
    2c54:	d4 01       	movw	r26, r8
    2c56:	46 c0       	rjmp	.+140    	; 0x2ce4 <fe_mul16_r7>
    2c58:	d5 01       	movw	r26, r10
    2c5a:	44 c0       	rjmp	.+136    	; 0x2ce4 <fe_mul16_r7>
    2c5c:	d6 01       	movw	r26, r12
    2c5e:	42 c0       	rjmp	.+132    	; 0x2ce4 <fe_mul16_r7>
    2c60:	d7 01       	movw	r26, r14
    2c62:	40 c0       	rjmp	.+128    	; 0x2ce4 <fe_mul16_r7>
    2c64:	d8 01       	movw	r26, r16
    2c66:	3e c0       	rjmp	.+124    	; 0x2ce4 <fe_mul16_r7>
    2c68:	d9 01       	movw	r26, r18
    2c6a:	3c c0       	rjmp	.+120    	; 0x2ce4 <fe_mul16_r7>
    2c6c:	da 01       	movw	r26, r20
    2c6e:	3a c0       	rjmp	.+116    	; 0x2ce4 <fe_mul16_r7>
    2c70:	db 01       	movw	r26, r22
    2c72:	38 c0       	rjmp	.+112    	; 0x2ce4 <fe_mul16_r7>

00002c74 <fe_forward_table_end>:
    2c74:	f4 01       	movw	r30, r8
    2c76:	ea 9f       	mul	r30, r26
    2c78:	40 01       	movw	r8, r0
    2c7a:	fa 9f       	mul	r31, r26
    2c7c:	90 0c       	add	r9, r0
    2c7e:	eb 9f       	mul	r30, r27
    2c80:	90 0c       	add	r9, r0
    2c82:	9e cd       	rjmp	.-1220   	; 0x27c0 <cluster_c_tail>

00002c84 <fe_mul16_r1>:
    2c84:	f5 01       	movw	r30, r10
    2c86:	ea 9f       	mul	r30, r26
    2c88:	50 01       	movw	r10, r0
    2c8a:	fa 9f       	mul	r31, r26
    2c8c:	b0 0c       	add	r11, r0
    2c8e:	eb 9f       	mul	r30, r27
    2c90:	b0 0c       	add	r11, r0
    2c92:	96 cd       	rjmp	.-1236   	; 0x27c0 <cluster_c_tail>

00002c94 <fe_mul16_r2>:
    2c94:	f6 01       	movw	r30, r12
    2c96:	ea 9f       	mul	r30, r26
    2c98:	60 01       	movw	r12, r0
    2c9a:	fa 9f       	mul	r31, r26
    2c9c:	d0 0c       	add	r13, r0
    2c9e:	eb 9f       	mul	r30, r27
    2ca0:	d0 0c       	add	r13, r0
    2ca2:	8e cd       	rjmp	.-1252   	; 0x27c0 <cluster_c_tail>

00002ca4 <fe_mul16_r3>:
    2ca4:	f7 01       	movw	r30, r14
    2ca6:	ea 9f       	mul	r30, r26
    2ca8:	70 01       	movw	r14, r0
    2caa:	fa 9f       	mul	r31, r26
    2cac:	f0 0c       	add	r15, r0
    2cae:	eb 9f       	mul	r30, r27
    2cb0:	f0 0c       	add	r15, r0
    2cb2:	86 cd       	rjmp	.-1268   	; 0x27c0 <cluster_c_tail>

00002cb4 <fe_mul16_r4>:
    2cb4:	f8 01       	movw	r30, r16
    2cb6:	ea 9f       	mul	r30, r26
    2cb8:	80 01       	movw	r16, r0
    2cba:	fa 9f       	mul	r31, r26
    2cbc:	10 0d       	add	r17, r0
    2cbe:	eb 9f       	mul	r30, r27
    2cc0:	10 0d       	add	r17, r0
    2cc2:	7e cd       	rjmp	.-1284   	; 0x27c0 <cluster_c_tail>

00002cc4 <fe_mul16_r5>:
    2cc4:	f9 01       	movw	r30, r18
    2cc6:	ea 9f       	mul	r30, r26
    2cc8:	90 01       	movw	r18, r0
    2cca:	fa 9f       	mul	r31, r26
    2ccc:	30 0d       	add	r19, r0
    2cce:	eb 9f       	mul	r30, r27
    2cd0:	30 0d       	add	r19, r0
    2cd2:	76 cd       	rjmp	.-1300   	; 0x27c0 <cluster_c_tail>

00002cd4 <fe_mul16_r6>:
    2cd4:	fa 01       	movw	r30, r20
    2cd6:	ea 9f       	mul	r30, r26
    2cd8:	a0 01       	movw	r20, r0
    2cda:	fa 9f       	mul	r31, r26
    2cdc:	50 0d       	add	r21, r0
    2cde:	eb 9f       	mul	r30, r27
    2ce0:	50 0d       	add	r21, r0
    2ce2:	6e cd       	rjmp	.-1316   	; 0x27c0 <cluster_c_tail>

00002ce4 <fe_mul16_r7>:
    2ce4:	fb 01       	movw	r30, r22
    2ce6:	ea 9f       	mul	r30, r26
    2ce8:	b0 01       	movw	r22, r0
    2cea:	fa 9f       	mul	r31, r26
    2cec:	70 0d       	add	r23, r0
    2cee:	eb 9f       	mul	r30, r27
    2cf0:	70 0d       	add	r23, r0
    2cf2:	66 cd       	rjmp	.-1332   	; 0x27c0 <cluster_c_tail>

00002cf4 <fe_mul16_bodies_end>:
    2cf4:	59 9a       	sbi	0x0b, 1	; 11
    2cf6:	e3 e0       	ldi	r30, 0x03	; 3
    2cf8:	59 98       	cbi	0x0b, 1	; 11
    2cfa:	ee bd       	out	0x2e, r30	; 46
    2cfc:	a0 91 00 0a 	lds	r26, 0x0A00	; 0x800a00 <_end+0x900>
    2d00:	a5 0d       	add	r26, r5
    2d02:	b0 91 01 0a 	lds	r27, 0x0A01	; 0x800a01 <_end+0x901>
    2d06:	b6 1d       	adc	r27, r6
    2d08:	10 d0       	rcall	.+32     	; 0x2d2a <fx_seek_delay_10>
    2d0a:	be bd       	out	0x2e, r27	; 46
    2d0c:	08 d0       	rcall	.+16     	; 0x2d1e <fx_seek_delay_17>
    2d0e:	ae bd       	out	0x2e, r26	; 46
    2d10:	06 d0       	rcall	.+12     	; 0x2d1e <fx_seek_delay_17>
    2d12:	4e bc       	out	0x2e, r4	; 46
    2d14:	04 d0       	rcall	.+8      	; 0x2d1e <fx_seek_delay_17>
    2d16:	2e bc       	out	0x2e, r2	; 46
    2d18:	00 c0       	rjmp	.+0      	; 0x2d1a <fe_mul16_bodies_end+0x26>
    2d1a:	07 d0       	rcall	.+14     	; 0x2d2a <fx_seek_delay_10>
    2d1c:	08 95       	ret

00002d1e <fx_seek_delay_17>:
    2d1e:	00 00       	nop

00002d20 <fx_seek_delay_16>:
    2d20:	00 c0       	rjmp	.+0      	; 0x2d22 <fx_seek_delay_14>

00002d22 <fx_seek_delay_14>:
    2d22:	00 00       	nop

00002d24 <fx_seek_delay_13>:
    2d24:	00 00       	nop

00002d26 <fx_seek_delay_12>:
    2d26:	00 00       	nop

00002d28 <fx_seek_delay_11>:
    2d28:	00 00       	nop

00002d2a <fx_seek_delay_10>:
    2d2a:	00 00       	nop

00002d2c <fx_seek_delay_9>:
    2d2c:	00 c0       	rjmp	.+0      	; 0x2d2e <fx_seek_delay_7>

00002d2e <fx_seek_delay_7>:
    2d2e:	08 95       	ret

00002d30 <startup_func>:
    2d30:	f8 94       	cli
    2d32:	af ef       	ldi	r26, 0xFF	; 255
    2d34:	ad bf       	out	0x3d, r26	; 61
    2d36:	aa e0       	ldi	r26, 0x0A	; 10
    2d38:	ae bf       	out	0x3e, r26	; 62
    2d3a:	22 24       	eor	r2, r2
    2d3c:	a1 e0       	ldi	r26, 0x01	; 1
    2d3e:	3a 2e       	mov	r3, r26
    2d40:	a4 e0       	ldi	r26, 0x04	; 4
    2d42:	7a 2e       	mov	r7, r26
    2d44:	a0 e0       	ldi	r26, 0x00	; 0
    2d46:	b1 e0       	ldi	r27, 0x01	; 1

00002d48 <startup_clear_ram_loop>:
    2d48:	2d 92       	st	X+, r2
    2d4a:	a0 30       	cpi	r26, 0x00	; 0
    2d4c:	e9 f7       	brne	.-6      	; 0x2d48 <startup_clear_ram_loop>
    2d4e:	bb 30       	cpi	r27, 0x0B	; 11
    2d50:	d9 f7       	brne	.-10     	; 0x2d48 <startup_clear_ram_loop>
    2d52:	c0 e0       	ldi	r28, 0x00	; 0
    2d54:	da e0       	ldi	r29, 0x0A	; 10
    2d56:	2e ba       	out	0x1e, r2	; 30
    2d58:	f4 d0       	rcall	.+488    	; 0x2f42 <hardware_init_pins_func>
    2d5a:	a0 e5       	ldi	r26, 0x50	; 80
    2d5c:	ac bd       	out	0x2c, r26	; 44
    2d5e:	a1 e0       	ldi	r26, 0x01	; 1
    2d60:	ad bd       	out	0x2d, r26	; 45
    2d62:	26 d1       	rcall	.+588    	; 0x2fb0 <oled_startup_init_func>
    2d64:	59 98       	cbi	0x0b, 1	; 11
    2d66:	eb ea       	ldi	r30, 0xAB	; 171
    2d68:	e2 d0       	rcall	.+452    	; 0x2f2e <fx_spi_transfer_blocking>
    2d6a:	59 9a       	sbi	0x0b, 1	; 11
    2d6c:	e6 d0       	rcall	.+460    	; 0x2f3a <fx_startup_wake_delay>
    2d6e:	e4 e1       	ldi	r30, 0x14	; 20
    2d70:	f0 e0       	ldi	r31, 0x00	; 0
    2d72:	45 91       	lpm	r20, Z+
    2d74:	55 91       	lpm	r21, Z+
    2d76:	48 31       	cpi	r20, 0x18	; 24
    2d78:	c1 f4       	brne	.+48     	; 0x2daa <startup_find_development_image>
    2d7a:	55 39       	cpi	r21, 0x95	; 149
    2d7c:	b1 f4       	brne	.+44     	; 0x2daa <startup_find_development_image>
    2d7e:	b5 91       	lpm	r27, Z+
    2d80:	a5 91       	lpm	r26, Z+
    2d82:	a0 93 00 0a 	sts	0x0A00, r26	; 0x800a00 <_end+0x900>
    2d86:	b0 93 01 0a 	sts	0x0A01, r27	; 0x800a01 <_end+0x901>
    2d8a:	45 91       	lpm	r20, Z+
    2d8c:	55 91       	lpm	r21, Z+
    2d8e:	48 31       	cpi	r20, 0x18	; 24
    2d90:	21 f5       	brne	.+72     	; 0x2dda <startup_read_header>
    2d92:	55 39       	cpi	r21, 0x95	; 149
    2d94:	11 f5       	brne	.+68     	; 0x2dda <startup_read_header>
    2d96:	b5 91       	lpm	r27, Z+
    2d98:	a5 91       	lpm	r26, Z+
    2d9a:	a0 93 02 0a 	sts	0x0A02, r26	; 0x800a02 <_end+0x902>
    2d9e:	b0 93 03 0a 	sts	0x0A03, r27	; 0x800a03 <_end+0x903>
    2da2:	a1 e0       	ldi	r26, 0x01	; 1
    2da4:	a0 93 06 0a 	sts	0x0A06, r26	; 0x800a06 <_end+0x906>
    2da8:	18 c0       	rjmp	.+48     	; 0x2dda <startup_read_header>

00002daa <startup_find_development_image>:
    2daa:	6f ef       	ldi	r22, 0xFF	; 255
    2dac:	bf ef       	ldi	r27, 0xFF	; 255
    2dae:	a8 ef       	ldi	r26, 0xF8	; 248
    2db0:	44 27       	eor	r20, r20
    2db2:	55 27       	eor	r21, r21
    2db4:	8d d0       	rcall	.+282    	; 0x2ed0 <startup_try_tail>
    2db6:	88 f0       	brcs	.+34     	; 0x2dda <startup_read_header>
    2db8:	6f ef       	ldi	r22, 0xFF	; 255
    2dba:	bf ee       	ldi	r27, 0xEF	; 239
    2dbc:	a8 ef       	ldi	r26, 0xF8	; 248
    2dbe:	40 ef       	ldi	r20, 0xF0	; 240
    2dc0:	5f ef       	ldi	r21, 0xFF	; 255
    2dc2:	86 d0       	rcall	.+268    	; 0x2ed0 <startup_try_tail>
    2dc4:	08 f0       	brcs	.+2      	; 0x2dc8 <.L1^B1>
    2dc6:	71 c0       	rjmp	.+226    	; 0x2eaa <startup_invalid_image>

00002dc8 <.L1^B1>:
    2dc8:	a0 ef       	ldi	r26, 0xF0	; 240
    2dca:	bf ef       	ldi	r27, 0xFF	; 255
    2dcc:	a0 93 02 0a 	sts	0x0A02, r26	; 0x800a02 <_end+0x902>
    2dd0:	b0 93 03 0a 	sts	0x0A03, r27	; 0x800a03 <_end+0x903>
    2dd4:	a1 e0       	ldi	r26, 0x01	; 1
    2dd6:	a0 93 06 0a 	sts	0x0A06, r26	; 0x800a06 <_end+0x906>

00002dda <startup_read_header>:
    2dda:	aa 27       	eor	r26, r26
    2ddc:	b0 91 00 0a 	lds	r27, 0x0A00	; 0x800a00 <_end+0x900>
    2de0:	60 91 01 0a 	lds	r22, 0x0A01	; 0x800a01 <_end+0x901>
    2de4:	97 d0       	rcall	.+302    	; 0x2f14 <fx_startup_begin_read>
    2de6:	a1 d0       	rcall	.+322    	; 0x2f2a <fx_startup_read_byte>
    2de8:	e1 34       	cpi	r30, 0x41	; 65
    2dea:	09 f0       	breq	.+2      	; 0x2dee <.L1^B2>
    2dec:	5e c0       	rjmp	.+188    	; 0x2eaa <startup_invalid_image>

00002dee <.L1^B2>:
    2dee:	9d d0       	rcall	.+314    	; 0x2f2a <fx_startup_read_byte>
    2df0:	e6 35       	cpi	r30, 0x56	; 86
    2df2:	09 f0       	breq	.+2      	; 0x2df6 <.L1^B3>
    2df4:	5a c0       	rjmp	.+180    	; 0x2eaa <startup_invalid_image>

00002df6 <.L1^B3>:
    2df6:	99 d0       	rcall	.+306    	; 0x2f2a <fx_startup_read_byte>
    2df8:	ed 34       	cpi	r30, 0x4D	; 77
    2dfa:	09 f0       	breq	.+2      	; 0x2dfe <.L1^B4>
    2dfc:	56 c0       	rjmp	.+172    	; 0x2eaa <startup_invalid_image>

00002dfe <.L1^B4>:
    2dfe:	95 d0       	rcall	.+298    	; 0x2f2a <fx_startup_read_byte>
    2e00:	e1 30       	cpi	r30, 0x01	; 1
    2e02:	09 f0       	breq	.+2      	; 0x2e06 <.L1^B5>
    2e04:	52 c0       	rjmp	.+164    	; 0x2eaa <startup_invalid_image>

00002e06 <.L1^B5>:
    2e06:	91 d0       	rcall	.+290    	; 0x2f2a <fx_startup_read_byte>
    2e08:	e1 30       	cpi	r30, 0x01	; 1
    2e0a:	09 f0       	breq	.+2      	; 0x2e0e <.L1^B6>
    2e0c:	4e c0       	rjmp	.+156    	; 0x2eaa <startup_invalid_image>

00002e0e <.L1^B6>:
    2e0e:	8d d0       	rcall	.+282    	; 0x2f2a <fx_startup_read_byte>
    2e10:	4e 2e       	mov	r4, r30
    2e12:	8b d0       	rcall	.+278    	; 0x2f2a <fx_startup_read_byte>
    2e14:	5e 2e       	mov	r5, r30
    2e16:	89 d0       	rcall	.+274    	; 0x2f2a <fx_startup_read_byte>
    2e18:	6e 2e       	mov	r6, r30
    2e1a:	87 d0       	rcall	.+270    	; 0x2f2a <fx_startup_read_byte>
    2e1c:	0e 2f       	mov	r16, r30
    2e1e:	85 d0       	rcall	.+266    	; 0x2f2a <fx_startup_read_byte>
    2e20:	1e 2f       	mov	r17, r30
    2e22:	83 d0       	rcall	.+262    	; 0x2f2a <fx_startup_read_byte>
    2e24:	2e 2f       	mov	r18, r30
    2e26:	81 d0       	rcall	.+258    	; 0x2f2a <fx_startup_read_byte>
    2e28:	3e 2f       	mov	r19, r30
    2e2a:	7f d0       	rcall	.+254    	; 0x2f2a <fx_startup_read_byte>
    2e2c:	4e 2f       	mov	r20, r30
    2e2e:	e0 93 04 0a 	sts	0x0A04, r30	; 0x800a04 <_end+0x904>
    2e32:	7b d0       	rcall	.+246    	; 0x2f2a <fx_startup_read_byte>
    2e34:	5e 2f       	mov	r21, r30
    2e36:	e0 93 05 0a 	sts	0x0A05, r30	; 0x800a05 <_end+0x905>
    2e3a:	59 9a       	sbi	0x0b, 1	; 11
    2e3c:	20 17       	cp	r18, r16
    2e3e:	31 07       	cpc	r19, r17
    2e40:	08 f4       	brcc	.+2      	; 0x2e44 <.L1^B7>
    2e42:	33 c0       	rjmp	.+102    	; 0x2eaa <startup_invalid_image>

00002e44 <.L1^B7>:
    2e44:	34 30       	cpi	r19, 0x04	; 4
    2e46:	28 f0       	brcs	.+10     	; 0x2e52 <.L1^B8>
    2e48:	09 f0       	breq	.+2      	; 0x2e4c <.L2^B1>
    2e4a:	2f c0       	rjmp	.+94     	; 0x2eaa <startup_invalid_image>

00002e4c <.L2^B1>:
    2e4c:	22 23       	and	r18, r18
    2e4e:	09 f0       	breq	.+2      	; 0x2e52 <.L1^B8>
    2e50:	2c c0       	rjmp	.+88     	; 0x2eaa <startup_invalid_image>

00002e52 <.L1^B8>:
    2e52:	54 30       	cpi	r21, 0x04	; 4
    2e54:	28 f0       	brcs	.+10     	; 0x2e60 <.L2^B2>
    2e56:	09 f0       	breq	.+2      	; 0x2e5a <.L3^B1>
    2e58:	28 c0       	rjmp	.+80     	; 0x2eaa <startup_invalid_image>

00002e5a <.L3^B1>:
    2e5a:	44 23       	and	r20, r20
    2e5c:	09 f0       	breq	.+2      	; 0x2e60 <.L2^B2>
    2e5e:	25 c0       	rjmp	.+74     	; 0x2eaa <startup_invalid_image>

00002e60 <.L2^B2>:
    2e60:	42 15       	cp	r20, r2
    2e62:	52 05       	cpc	r21, r2
    2e64:	21 f0       	breq	.+8      	; 0x2e6e <startup_copy_data>
    2e66:	a0 91 06 0a 	lds	r26, 0x0A06	; 0x800a06 <_end+0x906>
    2e6a:	a0 ff       	sbrs	r26, 0
    2e6c:	1e c0       	rjmp	.+60     	; 0x2eaa <startup_invalid_image>

00002e6e <startup_copy_data>:
    2e6e:	02 15       	cp	r16, r2
    2e70:	12 05       	cpc	r17, r2
    2e72:	89 f0       	breq	.+34     	; 0x2e96 <startup_enter_image>
    2e74:	b0 91 00 0a 	lds	r27, 0x0A00	; 0x800a00 <_end+0x900>
    2e78:	60 91 01 0a 	lds	r22, 0x0A01	; 0x800a01 <_end+0x901>
    2e7c:	b3 95       	inc	r27
    2e7e:	09 f4       	brne	.+2      	; 0x2e82 <.L4^B1>
    2e80:	63 95       	inc	r22

00002e82 <.L4^B1>:
    2e82:	aa 27       	eor	r26, r26
    2e84:	47 d0       	rcall	.+142    	; 0x2f14 <fx_startup_begin_read>
    2e86:	a0 e0       	ldi	r26, 0x00	; 0
    2e88:	b1 e0       	ldi	r27, 0x01	; 1

00002e8a <startup_copy_data_loop>:
    2e8a:	4f d0       	rcall	.+158    	; 0x2f2a <fx_startup_read_byte>
    2e8c:	ed 93       	st	X+, r30
    2e8e:	01 50       	subi	r16, 0x01	; 1
    2e90:	10 40       	sbci	r17, 0x00	; 0
    2e92:	d9 f7       	brne	.-10     	; 0x2e8a <startup_copy_data_loop>
    2e94:	59 9a       	sbi	0x0b, 1	; 11

00002e96 <startup_enter_image>:
    2e96:	0c d0       	rcall	.+24     	; 0x2eb0 <timer0_init_func>
    2e98:	2d df       	rcall	.-422    	; 0x2cf4 <fe_mul16_bodies_end>
    2e9a:	8e b5       	in	r24, 0x2e	; 46
    2e9c:	2e bc       	out	0x2e, r2	; 46
    2e9e:	78 94       	sei
    2ea0:	00 00       	nop
    2ea2:	87 9d       	mul	r24, r7
    2ea4:	f0 01       	movw	r30, r0
    2ea6:	ff 5f       	subi	r31, 0xFF	; 255
    2ea8:	09 94       	ijmp

00002eaa <startup_invalid_image>:
    2eaa:	f8 94       	cli
    2eac:	59 9a       	sbi	0x0b, 1	; 11

00002eae <startup_invalid_image_loop>:
    2eae:	ff cf       	rjmp	.-2      	; 0x2eae <startup_invalid_image_loop>

00002eb0 <timer0_init_func>:
    2eb0:	25 bc       	out	0x25, r2	; 37
    2eb2:	20 92 6e 00 	sts	0x006E, r2	; 0x80006e <__DATA_REGION_ORIGIN__+0xe>
    2eb6:	a2 e0       	ldi	r26, 0x02	; 2
    2eb8:	a4 bd       	out	0x24, r26	; 36
    2eba:	26 bc       	out	0x26, r2	; 38
    2ebc:	a9 ef       	ldi	r26, 0xF9	; 249
    2ebe:	a7 bd       	out	0x27, r26	; 39
    2ec0:	a2 e0       	ldi	r26, 0x02	; 2
    2ec2:	a5 bb       	out	0x15, r26	; 21
    2ec4:	a2 e0       	ldi	r26, 0x02	; 2
    2ec6:	a0 93 6e 00 	sts	0x006E, r26	; 0x80006e <__DATA_REGION_ORIGIN__+0xe>
    2eca:	a3 e0       	ldi	r26, 0x03	; 3
    2ecc:	a5 bd       	out	0x25, r26	; 37
    2ece:	08 95       	ret

00002ed0 <startup_try_tail>:
    2ed0:	21 d0       	rcall	.+66     	; 0x2f14 <fx_startup_begin_read>
    2ed2:	2b d0       	rcall	.+86     	; 0x2f2a <fx_startup_read_byte>
    2ed4:	e1 34       	cpi	r30, 0x41	; 65
    2ed6:	d9 f4       	brne	.+54     	; 0x2f0e <startup_try_tail_fail>
    2ed8:	28 d0       	rcall	.+80     	; 0x2f2a <fx_startup_read_byte>
    2eda:	e6 35       	cpi	r30, 0x56	; 86
    2edc:	c1 f4       	brne	.+48     	; 0x2f0e <startup_try_tail_fail>
    2ede:	25 d0       	rcall	.+74     	; 0x2f2a <fx_startup_read_byte>
    2ee0:	e4 35       	cpi	r30, 0x54	; 84
    2ee2:	a9 f4       	brne	.+42     	; 0x2f0e <startup_try_tail_fail>
    2ee4:	22 d0       	rcall	.+68     	; 0x2f2a <fx_startup_read_byte>
    2ee6:	e1 30       	cpi	r30, 0x01	; 1
    2ee8:	91 f4       	brne	.+36     	; 0x2f0e <startup_try_tail_fail>
    2eea:	1f d0       	rcall	.+62     	; 0x2f2a <fx_startup_read_byte>
    2eec:	0e 2e       	mov	r0, r30
    2eee:	1d d0       	rcall	.+58     	; 0x2f2a <fx_startup_read_byte>
    2ef0:	1e 2e       	mov	r1, r30
    2ef2:	59 9a       	sbi	0x0b, 1	; 11
    2ef4:	02 14       	cp	r0, r2
    2ef6:	12 04       	cpc	r1, r2
    2ef8:	59 f0       	breq	.+22     	; 0x2f10 <startup_try_tail_fail_disabled>
    2efa:	a4 2f       	mov	r26, r20
    2efc:	b5 2f       	mov	r27, r21
    2efe:	a0 19       	sub	r26, r0
    2f00:	b1 09       	sbc	r27, r1
    2f02:	a0 93 00 0a 	sts	0x0A00, r26	; 0x800a00 <_end+0x900>
    2f06:	b0 93 01 0a 	sts	0x0A01, r27	; 0x800a01 <_end+0x901>
    2f0a:	08 94       	sec
    2f0c:	08 95       	ret

00002f0e <startup_try_tail_fail>:
    2f0e:	59 9a       	sbi	0x0b, 1	; 11

00002f10 <startup_try_tail_fail_disabled>:
    2f10:	88 94       	clc
    2f12:	08 95       	ret

00002f14 <fx_startup_begin_read>:
    2f14:	59 9a       	sbi	0x0b, 1	; 11
    2f16:	59 98       	cbi	0x0b, 1	; 11
    2f18:	e3 e0       	ldi	r30, 0x03	; 3
    2f1a:	09 d0       	rcall	.+18     	; 0x2f2e <fx_spi_transfer_blocking>
    2f1c:	e6 2f       	mov	r30, r22
    2f1e:	07 d0       	rcall	.+14     	; 0x2f2e <fx_spi_transfer_blocking>
    2f20:	eb 2f       	mov	r30, r27
    2f22:	05 d0       	rcall	.+10     	; 0x2f2e <fx_spi_transfer_blocking>
    2f24:	ea 2f       	mov	r30, r26
    2f26:	03 d0       	rcall	.+6      	; 0x2f2e <fx_spi_transfer_blocking>
    2f28:	08 95       	ret

00002f2a <fx_startup_read_byte>:
    2f2a:	e2 2d       	mov	r30, r2
    2f2c:	00 c0       	rjmp	.+0      	; 0x2f2e <fx_spi_transfer_blocking>

00002f2e <fx_spi_transfer_blocking>:
    2f2e:	ee bd       	out	0x2e, r30	; 46

00002f30 <.L1^B9>:
    2f30:	fd b5       	in	r31, 0x2d	; 45
    2f32:	f7 ff       	sbrs	r31, 7
    2f34:	fd cf       	rjmp	.-6      	; 0x2f30 <.L1^B9>
    2f36:	ee b5       	in	r30, 0x2e	; 46
    2f38:	08 95       	ret

00002f3a <fx_startup_wake_delay>:
    2f3a:	a0 e2       	ldi	r26, 0x20	; 32

00002f3c <.L1^B10>:
    2f3c:	aa 95       	dec	r26
    2f3e:	f1 f7       	brne	.-4      	; 0x2f3c <.L1^B10>
    2f40:	08 95       	ret

00002f42 <hardware_init_pins_func>:
    2f42:	29 98       	cbi	0x05, 1	; 5
    2f44:	21 9a       	sbi	0x04, 1	; 4
    2f46:	2a 98       	cbi	0x05, 2	; 5
    2f48:	22 9a       	sbi	0x04, 2	; 4
    2f4a:	23 98       	cbi	0x04, 3	; 4
    2f4c:	2b 98       	cbi	0x05, 3	; 5
    2f4e:	59 9a       	sbi	0x0b, 1	; 11
    2f50:	51 9a       	sbi	0x0a, 1	; 10
    2f52:	5e 98       	cbi	0x0b, 6	; 11
    2f54:	56 9a       	sbi	0x0a, 6	; 10
    2f56:	5c 9a       	sbi	0x0b, 4	; 11
    2f58:	54 9a       	sbi	0x0a, 4	; 10
    2f5a:	5f 98       	cbi	0x0b, 7	; 11
    2f5c:	57 9a       	sbi	0x0a, 7	; 10
    2f5e:	2e 9a       	sbi	0x05, 6	; 5
    2f60:	26 9a       	sbi	0x04, 6	; 4
    2f62:	2f 9a       	sbi	0x05, 7	; 5
    2f64:	27 9a       	sbi	0x04, 7	; 4
    2f66:	2d 9a       	sbi	0x05, 5	; 5
    2f68:	25 9a       	sbi	0x04, 5	; 4
    2f6a:	5d 9a       	sbi	0x0b, 5	; 11
    2f6c:	55 9a       	sbi	0x0a, 5	; 10
    2f6e:	28 9a       	sbi	0x05, 0	; 5
    2f70:	20 9a       	sbi	0x04, 0	; 4
    2f72:	85 98       	cbi	0x10, 5	; 16
    2f74:	8d 9a       	sbi	0x11, 5	; 17
    2f76:	86 98       	cbi	0x10, 6	; 16
    2f78:	8e 9a       	sbi	0x11, 6	; 17
    2f7a:	87 98       	cbi	0x10, 7	; 16
    2f7c:	8f 9a       	sbi	0x11, 7	; 17
    2f7e:	84 98       	cbi	0x10, 4	; 16
    2f80:	8c 9a       	sbi	0x11, 4	; 17
    2f82:	6e 98       	cbi	0x0d, 6	; 13
    2f84:	76 9a       	sbi	0x0e, 6	; 14
    2f86:	24 98       	cbi	0x04, 4	; 4
    2f88:	2c 9a       	sbi	0x05, 4	; 5
    2f8a:	81 98       	cbi	0x10, 1	; 16
    2f8c:	89 98       	cbi	0x11, 1	; 17
    2f8e:	a1 ec       	ldi	r26, 0xC1	; 193
    2f90:	a0 93 7c 00 	sts	0x007C, r26	; 0x80007c <__DATA_REGION_ORIGIN__+0x1c>
    2f94:	08 95       	ret

00002f96 <oled_reset_delay_5ms_func>:
    2f96:	88 e6       	ldi	r24, 0x68	; 104

00002f98 <.L1^B11>:
    2f98:	99 27       	eor	r25, r25

00002f9a <.L2^B3>:
    2f9a:	9a 95       	dec	r25
    2f9c:	f1 f7       	brne	.-4      	; 0x2f9a <.L2^B3>
    2f9e:	8a 95       	dec	r24
    2fa0:	d9 f7       	brne	.-10     	; 0x2f98 <.L1^B11>
    2fa2:	08 95       	ret

00002fa4 <oled_spi_transfer_blocking_func>:
    2fa4:	ae bd       	out	0x2e, r26	; 46

00002fa6 <.L1^B12>:
    2fa6:	bd b5       	in	r27, 0x2d	; 45
    2fa8:	b7 ff       	sbrs	r27, 7
    2faa:	fd cf       	rjmp	.-6      	; 0x2fa6 <.L1^B12>
    2fac:	ae b5       	in	r26, 0x2e	; 46
    2fae:	08 95       	ret

00002fb0 <oled_startup_init_func>:
    2fb0:	f2 df       	rcall	.-28     	; 0x2f96 <oled_reset_delay_5ms_func>
    2fb2:	5f 9a       	sbi	0x0b, 7	; 11
    2fb4:	f0 df       	rcall	.-32     	; 0x2f96 <oled_reset_delay_5ms_func>
    2fb6:	5e 98       	cbi	0x0b, 6	; 11
    2fb8:	5c 98       	cbi	0x0b, 4	; 11
    2fba:	e0 ed       	ldi	r30, 0xD0	; 208
    2fbc:	ff e2       	ldi	r31, 0x2F	; 47
    2fbe:	8d e0       	ldi	r24, 0x0D	; 13

00002fc0 <.L1^B13>:
    2fc0:	a5 91       	lpm	r26, Z+
    2fc2:	f0 df       	rcall	.-32     	; 0x2fa4 <oled_spi_transfer_blocking_func>
    2fc4:	8a 95       	dec	r24
    2fc6:	e1 f7       	brne	.-8      	; 0x2fc0 <.L1^B13>
    2fc8:	5c 9a       	sbi	0x0b, 4	; 11
    2fca:	5e 9a       	sbi	0x0b, 6	; 11
    2fcc:	59 9a       	sbi	0x0b, 1	; 11
    2fce:	08 95       	ret

00002fd0 <oled_boot_program>:
    2fd0:	d5 f0       	brhs	.+52     	; 0x3006 <_etext+0x28>
    2fd2:	8d 14       	cp	r8, r13
    2fd4:	a1 c8       	rjmp	.-3774   	; 0x2118 <f5_table_end+0x194>
    2fd6:	81 cf       	rjmp	.-254    	; 0x2eda <startup_try_tail+0xa>
    2fd8:	d9 f1       	breq	.+118    	; 0x3050 <_etext+0x72>
    2fda:	af 20       	and	r10, r15
    2fdc:	00        	nop

00002fdd <oled_boot_program_end>:
    2fdd:	Address 0x2fdd is out of bounds.

